
xinu.elf:     file format elf32-i386

Disassembly of section .text:

00000000 <entry>:
       0:	be 00 00 10 00       	mov    $0x100000,%esi
       5:	bf 00 00 00 00       	mov    $0x0,%edi
       a:	b9 00 b0 04 00       	mov    $0x4b000,%ecx
       f:	fc                   	cld    
      10:	f3 a4                	repz movsb %ds:(%esi),%es:(%edi)
      12:	bc 00 a0 15 00       	mov    $0x15a000,%esp
      17:	68 1d 00 00 00       	push   $0x1d
      1c:	c3                   	ret    

0000001d <start>:
      1d:	89 e6                	mov    %esp,%esi
      1f:	bb 00 00 01 00       	mov    $0x10000,%ebx
      24:	b8 f4 9a 01 00       	mov    $0x19af4,%eax
      29:	2d 30 b6 00 00       	sub    $0xb630,%eax
      2e:	01 d8                	add    %ebx,%eax
      30:	50                   	push   %eax
      31:	68 30 b6 00 00       	push   $0xb630
      36:	e8 ab 00 00 00       	call   e6 <bzero>
      3b:	89 f0                	mov    %esi,%eax
      3d:	29 d8                	sub    %ebx,%eax
      3f:	83 eb 14             	sub    $0x14,%ebx
      42:	53                   	push   %ebx
      43:	50                   	push   %eax
      44:	e8 9d 00 00 00       	call   e6 <bzero>
      49:	89 f4                	mov    %esi,%esp
      4b:	6a 00                	push   $0x0
      4d:	9d                   	popf   
      4e:	89 e5                	mov    %esp,%ebp
      50:	e8 13 55 00 00       	call   5568 <setsegs>
      55:	0f 01 15 40 b0 00 00 	lgdtl  0xb040
      5c:	ea 63 00 00 00 08 00 	ljmp   $0x8,$0x63

00000063 <gdt1>:
      63:	b8 10 00 00 00       	mov    $0x10,%eax
      68:	8e d8                	mov    %eax,%ds
      6a:	8e c0                	mov    %eax,%es
      6c:	b8 18 00 00 00       	mov    $0x18,%eax
      71:	8e d0                	mov    %eax,%ss
      73:	8b 25 80 8f 01 00    	mov    0x18f80,%esp
      79:	89 e5                	mov    %esp,%ebp
      7b:	66 b8 28 00          	mov    $0x28,%ax
      7f:	0f 00 d8             	ltr    %ax
      82:	e8 c5 00 00 00       	call   14c <nulluser>
      87:	e8 19 07 00 00       	call   7a5 <halt>

0000008c <inb>:
      8c:	8b 54 24 04          	mov    0x4(%esp),%edx
      90:	31 c0                	xor    %eax,%eax
      92:	ec                   	in     (%dx),%al
      93:	c3                   	ret    

00000094 <inw>:
      94:	8b 54 24 04          	mov    0x4(%esp),%edx
      98:	31 c0                	xor    %eax,%eax
      9a:	66 ed                	in     (%dx),%ax
      9c:	c3                   	ret    

0000009d <inl>:
      9d:	8b 54 24 04          	mov    0x4(%esp),%edx
      a1:	31 c0                	xor    %eax,%eax
      a3:	ed                   	in     (%dx),%eax
      a4:	c3                   	ret    

000000a5 <outb>:
      a5:	8b 54 24 04          	mov    0x4(%esp),%edx
      a9:	8b 44 24 08          	mov    0x8(%esp),%eax
      ad:	ee                   	out    %al,(%dx)
      ae:	c3                   	ret    

000000af <outw>:
      af:	8b 54 24 04          	mov    0x4(%esp),%edx
      b3:	8b 44 24 08          	mov    0x8(%esp),%eax
      b7:	66 ef                	out    %ax,(%dx)
      b9:	c3                   	ret    

000000ba <outl>:
      ba:	8b 54 24 04          	mov    0x4(%esp),%edx
      be:	8b 44 24 08          	mov    0x8(%esp),%eax
      c2:	ef                   	out    %eax,(%dx)
      c3:	c3                   	ret    

000000c4 <_rtcin>:
      c4:	8b 44 24 04          	mov    0x4(%esp),%eax
      c8:	e6 70                	out    %al,$0x70
      ca:	29 c0                	sub    %eax,%eax
      cc:	e4 71                	in     $0x71,%al
      ce:	c3                   	ret    

000000cf <___udivsi3>:
      cf:	8b 44 24 04          	mov    0x4(%esp),%eax
      d3:	31 d2                	xor    %edx,%edx
      d5:	f7 74 24 08          	divl   0x8(%esp)
      d9:	c3                   	ret    

000000da <___divsi3>:
      da:	8b 44 24 04          	mov    0x4(%esp),%eax
      de:	31 d2                	xor    %edx,%edx
      e0:	99                   	cltd   
      e1:	f7 7c 24 08          	idivl  0x8(%esp)
      e5:	c3                   	ret    

000000e6 <bzero>:
      e6:	57                   	push   %edi
      e7:	8b 7c 24 08          	mov    0x8(%esp),%edi
      eb:	8b 4c 24 0c          	mov    0xc(%esp),%ecx
      ef:	b0 00                	mov    $0x0,%al
      f1:	fc                   	cld    
      f2:	f3 aa                	repz stos %al,%es:(%edi)
      f4:	5f                   	pop    %edi
      f5:	c3                   	ret    

000000f6 <bcopy>:
      f6:	56                   	push   %esi
      f7:	57                   	push   %edi
      f8:	8b 74 24 0c          	mov    0xc(%esp),%esi
      fc:	8b 7c 24 10          	mov    0x10(%esp),%edi

00000100 <L1>:
     100:	8b 4c 24 14          	mov    0x14(%esp),%ecx
     104:	fc                   	cld    
     105:	f3 a4                	repz movsb %ds:(%esi),%es:(%edi)
     107:	5f                   	pop    %edi
     108:	5e                   	pop    %esi
     109:	c3                   	ret    

0000010a <insw>:
     10a:	57                   	push   %edi
     10b:	66 8b 54 24 08       	mov    0x8(%esp),%dx
     110:	8b 7c 24 0c          	mov    0xc(%esp),%edi
     114:	8b 4c 24 10          	mov    0x10(%esp),%ecx
     118:	fc                   	cld    
     119:	66 f2 6d             	repnz insw (%dx),%es:(%edi)
     11c:	89 f8                	mov    %edi,%eax
     11e:	5f                   	pop    %edi
     11f:	c3                   	ret    

00000120 <outsw>:
     120:	56                   	push   %esi
     121:	66 8b 54 24 08       	mov    0x8(%esp),%dx
     126:	8b 74 24 0c          	mov    0xc(%esp),%esi
     12a:	8b 4c 24 10          	mov    0x10(%esp),%ecx
     12e:	fc                   	cld    
     12f:	66 f2 6f             	repnz outsw %ds:(%esi),(%dx)
     132:	89 f0                	mov    %esi,%eax
     134:	5e                   	pop    %esi
     135:	c3                   	ret    

00000136 <lidt>:
     136:	0f 01 1d c6 b1 00 00 	lidtl  0xb1c6
     13d:	c3                   	ret    

0000013e <jumptocode>:
     13e:	ea 00 00 10 00 20 00 	ljmp   $0x20,$0x100000

00000145 <jumptobootcode>:
     145:	ea 00 00 15 00 20 00 	ljmp   $0x20,$0x150000

0000014c <nulluser>:
     14c:	55                   	push   %ebp
     14d:	89 e5                	mov    %esp,%ebp
     14f:	83 ec 08             	sub    $0x8,%esp
     152:	c7 05 68 7f 01 00 01 	movl   $0x1,0x17f68
     159:	00 00 00 
     15c:	e8 3f 47 00 00       	call   48a0 <initevec>
     161:	83 ec 0c             	sub    $0xc,%esp
     164:	68 60 98 00 00       	push   $0x9860
     169:	e8 fa 58 00 00       	call   5a68 <kprintf>
     16e:	e8 e3 00 00 00       	call   256 <sysinit>
     173:	e8 33 06 00 00       	call   7ab <enable>
     178:	83 c4 0c             	add    $0xc,%esp
     17b:	68 f8 98 00 00       	push   $0x98f8
     180:	68 74 98 00 00       	push   $0x9874
     185:	68 e0 75 01 00       	push   $0x175e0
     18a:	e8 1d 96 00 00       	call   97ac <sprintf>
     18f:	83 c4 08             	add    $0x8,%esp
     192:	68 e0 75 01 00       	push   $0x175e0
     197:	68 7f 98 00 00       	push   $0x987f
     19c:	e8 c7 58 00 00       	call   5a68 <kprintf>
     1a1:	8b 15 40 b6 00 00    	mov    0xb640,%edx
     1a7:	8d 42 01             	lea    0x1(%edx),%eax
     1aa:	a3 40 b6 00 00       	mov    %eax,0xb640
     1af:	83 c4 10             	add    $0x10,%esp
     1b2:	85 d2                	test   %edx,%edx
     1b4:	7f 12                	jg     1c8 <nulluser+0x7c>
     1b6:	83 ec 0c             	sub    $0xc,%esp
     1b9:	68 6b a6 00 00       	push   $0xa66b
     1be:	e8 a5 58 00 00       	call   5a68 <kprintf>
     1c3:	83 c4 10             	add    $0x10,%esp
     1c6:	eb 16                	jmp    1de <nulluser+0x92>
     1c8:	83 ec 08             	sub    $0x8,%esp
     1cb:	ff 35 40 b6 00 00    	pushl  0xb640
     1d1:	68 85 98 00 00       	push   $0x9885
     1d6:	e8 8d 58 00 00       	call   5a68 <kprintf>
     1db:	83 c4 10             	add    $0x10,%esp
     1de:	83 ec 08             	sub    $0x8,%esp
     1e1:	a1 c4 75 01 00       	mov    0x175c4,%eax
     1e6:	40                   	inc    %eax
     1e7:	50                   	push   %eax
     1e8:	68 95 98 00 00       	push   $0x9895
     1ed:	e8 76 58 00 00       	call   5a68 <kprintf>
     1f2:	83 c4 08             	add    $0x8,%esp
     1f5:	b8 f4 9a 01 00       	mov    $0x19af4,%eax
     1fa:	2d 1d 00 00 00       	sub    $0x1d,%eax
     1ff:	50                   	push   %eax
     200:	68 a8 98 00 00       	push   $0x98a8
     205:	e8 5e 58 00 00       	call   5a68 <kprintf>
     20a:	83 c4 08             	add    $0x8,%esp
     20d:	b8 bc 98 00 00       	mov    $0x98bc,%eax
     212:	83 3d 78 8f 01 00 01 	cmpl   $0x1,0x18f78
     219:	74 05                	je     220 <nulluser+0xd4>
     21b:	b8 bf 98 00 00       	mov    $0x98bf,%eax
     220:	50                   	push   %eax
     221:	68 c3 98 00 00       	push   $0x98c3
     226:	e8 3d 58 00 00       	call   5a68 <kprintf>
     22b:	83 c4 08             	add    $0x8,%esp
     22e:	6a 00                	push   $0x0
     230:	6a 01                	push   $0x1
     232:	68 d2 98 00 00       	push   $0x98d2
     237:	6a 14                	push   $0x14
     239:	68 00 04 00 00       	push   $0x400
     23e:	68 5d 43 00 00       	push   $0x435d
     243:	e8 24 44 00 00       	call   466c <create>
     248:	83 c4 14             	add    $0x14,%esp
     24b:	50                   	push   %eax
     24c:	e8 53 5f 00 00       	call   61a4 <resume>
     251:	83 c4 10             	add    $0x10,%esp
     254:	eb fe                	jmp    254 <nulluser+0x108>

00000256 <sysinit>:
     256:	55                   	push   %ebp
     257:	89 e5                	mov    %esp,%ebp
     259:	56                   	push   %esi
     25a:	53                   	push   %ebx
     25b:	c7 05 e0 c8 00 00 00 	movl   $0x0,0xc8e0
     262:	00 00 00 
     265:	c7 05 c0 75 01 00 31 	movl   $0x31,0x175c0
     26c:	00 00 00 
     26f:	c7 05 a0 f5 00 00 63 	movl   $0x63,0xf5a0
     276:	00 00 00 
     279:	c7 05 a4 f5 00 00 32 	movl   $0x32,0xf5a4
     280:	00 00 00 
     283:	a1 c4 75 01 00       	mov    0x175c4,%eax
     288:	40                   	inc    %eax
     289:	3d 00 00 0a 00       	cmp    $0xa0000,%eax
     28e:	76 47                	jbe    2d7 <sysinit+0x81>
     290:	b8 fb 9a 01 00       	mov    $0x19afb,%eax
     295:	89 c2                	mov    %eax,%edx
     297:	83 e2 f8             	and    $0xfffffff8,%edx
     29a:	89 15 68 8b 01 00    	mov    %edx,0x18b68
     2a0:	c7 02 00 60 19 00    	movl   $0x196000,(%edx)
     2a6:	b8 00 00 0a 00       	mov    $0xa0000,%eax
     2ab:	2d f4 9a 01 00       	sub    $0x19af4,%eax
     2b0:	83 e0 fc             	and    $0xfffffffc,%eax
     2b3:	83 e8 04             	sub    $0x4,%eax
     2b6:	89 42 04             	mov    %eax,0x4(%edx)
     2b9:	c7 05 00 60 19 00 00 	movl   $0x0,0x196000
     2c0:	00 00 00 
     2c3:	a1 c4 75 01 00       	mov    0x175c4,%eax
     2c8:	2d 00 70 19 00       	sub    $0x197000,%eax
     2cd:	83 e0 fc             	and    $0xfffffffc,%eax
     2d0:	a3 04 60 19 00       	mov    %eax,0x196004
     2d5:	eb 26                	jmp    2fd <sysinit+0xa7>
     2d7:	b8 fb 9a 01 00       	mov    $0x19afb,%eax
     2dc:	89 c2                	mov    %eax,%edx
     2de:	83 e2 f8             	and    $0xfffffff8,%edx
     2e1:	89 15 68 8b 01 00    	mov    %edx,0x18b68
     2e7:	c7 02 00 00 00 00    	movl   $0x0,(%edx)
     2ed:	a1 c4 75 01 00       	mov    0x175c4,%eax
     2f2:	2d f4 aa 01 00       	sub    $0x1aaf4,%eax
     2f7:	83 e0 fc             	and    $0xfffffffc,%eax
     2fa:	89 42 04             	mov    %eax,0x4(%edx)
     2fd:	e8 4a 7a 00 00       	call   7d4c <init_bsm>
     302:	e8 51 80 00 00       	call   8358 <init_frm>
     307:	e8 3c 7d 00 00       	call   8048 <init_pt>
     30c:	ba ff ff ff ff       	mov    $0xffffffff,%edx
     311:	83 f8 ff             	cmp    $0xffffffff,%eax
     314:	0f 84 21 01 00 00    	je     43b <sysinit+0x1e5>
     31a:	e8 17 7e 00 00       	call   8136 <init_pd>
     31f:	ba ff ff ff ff       	mov    $0xffffffff,%edx
     324:	85 c0                	test   %eax,%eax
     326:	0f 84 0f 01 00 00    	je     43b <sysinit+0x1e5>
     32c:	89 c3                	mov    %eax,%ebx
     32e:	81 e3 00 f0 ff ff    	and    $0xfffff000,%ebx
     334:	83 ec 0c             	sub    $0xc,%esp
     337:	53                   	push   %ebx
     338:	e8 95 79 00 00       	call   7cd2 <write_cr3>
     33d:	83 c4 08             	add    $0x8,%esp
     340:	68 98 08 00 00       	push   $0x898
     345:	6a 0e                	push   $0xe
     347:	e8 96 45 00 00       	call   48e2 <set_evec>
     34c:	e8 dd 79 00 00       	call   7d2e <enable_paging>
     351:	be 00 00 00 00       	mov    $0x0,%esi
     356:	83 c4 10             	add    $0x10,%esp
     359:	8d 04 76             	lea    (%esi,%esi,2),%eax
     35c:	c1 e0 04             	shl    $0x4,%eax
     35f:	01 f0                	add    %esi,%eax
     361:	c6 04 85 00 c9 00 00 	movb   $0x2,0xc900(,%eax,4)
     368:	02 
     369:	46                   	inc    %esi
     36a:	83 fe 31             	cmp    $0x31,%esi
     36d:	7e ea                	jle    359 <sysinit+0x103>
     36f:	e8 58 57 00 00       	call   5acc <_mkinit>
     374:	e8 fb 41 00 00       	call   4574 <clkinit>
     379:	e8 16 18 00 00       	call   1b94 <mon_init>
     37e:	be 00 00 00 00       	mov    $0x0,%esi
     383:	83 ec 0c             	sub    $0xc,%esp
     386:	56                   	push   %esi
     387:	e8 60 54 00 00       	call   57ec <init_dev>
     38c:	83 c4 10             	add    $0x10,%esp
     38f:	46                   	inc    %esi
     390:	83 fe 05             	cmp    $0x5,%esi
     393:	7e ee                	jle    383 <sysinit+0x12d>
     395:	b9 00 c9 00 00       	mov    $0xc900,%ecx
     39a:	c6 05 00 c9 00 00 01 	movb   $0x1,0xc900
     3a1:	ba 00 00 00 00       	mov    $0x0,%edx
     3a6:	8a 82 d7 98 00 00    	mov    0x98d7(%edx),%al
     3ac:	88 44 0a 28          	mov    %al,0x28(%edx,%ecx,1)
     3b0:	42                   	inc    %edx
     3b1:	83 fa 06             	cmp    $0x6,%edx
     3b4:	7e f0                	jle    3a6 <sysinit+0x150>
     3b6:	8b 15 c4 75 01 00    	mov    0x175c4,%edx
     3bc:	8d 82 01 f0 ff ff    	lea    0xfffff001(%edx),%eax
     3c2:	89 41 24             	mov    %eax,0x24(%ecx)
     3c5:	8d 42 fd             	lea    0xfffffffd(%edx),%eax
     3c8:	89 41 1c             	mov    %eax,0x1c(%ecx)
     3cb:	8d 42 f9             	lea    0xfffffff9(%edx),%eax
     3ce:	89 41 08             	mov    %eax,0x8(%ecx)
     3d1:	c7 42 fd a9 aa 00 00 	movl   $0xaaa9,0xfffffffd(%edx)
     3d8:	c7 41 3c 4c 01 00 00 	movl   $0x14c,0x3c(%ecx)
     3df:	c7 41 38 00 00 00 00 	movl   $0x0,0x38(%ecx)
     3e6:	c7 41 04 00 00 00 00 	movl   $0x0,0x4(%ecx)
     3ed:	89 99 b0 00 00 00    	mov    %ebx,0xb0(%ecx)
     3f3:	c7 05 e4 c8 00 00 00 	movl   $0x0,0xc8e4
     3fa:	00 00 00 
     3fd:	be 00 00 00 00       	mov    $0x0,%esi
     402:	89 f0                	mov    %esi,%eax
     404:	c1 e0 04             	shl    $0x4,%eax
     407:	8d 98 60 ef 00 00    	lea    0xef60(%eax),%ebx
     40d:	c6 80 60 ef 00 00 01 	movb   $0x1,0xef60(%eax)
     414:	e8 67 58 00 00       	call   5c80 <newqueue>
     419:	89 43 08             	mov    %eax,0x8(%ebx)
     41c:	40                   	inc    %eax
     41d:	89 43 0c             	mov    %eax,0xc(%ebx)
     420:	46                   	inc    %esi
     421:	83 fe 63             	cmp    $0x63,%esi
     424:	7e dc                	jle    402 <sysinit+0x1ac>
     426:	e8 55 58 00 00       	call   5c80 <newqueue>
     42b:	a3 64 7f 01 00       	mov    %eax,0x17f64
     430:	40                   	inc    %eax
     431:	a3 60 7f 01 00       	mov    %eax,0x17f60
     436:	ba 01 00 00 00       	mov    $0x1,%edx
     43b:	89 d0                	mov    %edx,%eax
     43d:	8d 65 f8             	lea    0xfffffff8(%ebp),%esp
     440:	5b                   	pop    %ebx
     441:	5e                   	pop    %esi
     442:	5d                   	pop    %ebp
     443:	c3                   	ret    

00000444 <stop>:
     444:	55                   	push   %ebp
     445:	89 e5                	mov    %esp,%ebp
     447:	83 ec 10             	sub    $0x10,%esp
     44a:	ff 75 08             	pushl  0x8(%ebp)
     44d:	68 81 98 00 00       	push   $0x9881
     452:	e8 11 56 00 00       	call   5a68 <kprintf>
     457:	c7 04 24 de 98 00 00 	movl   $0x98de,(%esp)
     45e:	e8 05 56 00 00       	call   5a68 <kprintf>
     463:	83 c4 10             	add    $0x10,%esp
     466:	eb fe                	jmp    466 <stop+0x22>

00000468 <delay>:
     468:	55                   	push   %ebp
     469:	89 e5                	mov    %esp,%ebp
     46b:	56                   	push   %esi
     46c:	53                   	push   %ebx
     46d:	be 00 00 00 00       	mov    $0x0,%esi
     472:	8b 45 08             	mov    0x8(%ebp),%eax
     475:	89 c3                	mov    %eax,%ebx
     477:	c1 e3 04             	shl    $0x4,%ebx
     47a:	a1 cc b1 00 00       	mov    0xb1cc,%eax
     47f:	89 da                	mov    %ebx,%edx
     481:	88 c1                	mov    %al,%cl
     483:	d3 fa                	sar    %cl,%edx
     485:	4a                   	dec    %edx
     486:	85 d2                	test   %edx,%edx
     488:	7f fb                	jg     485 <delay+0x1d>
     48a:	46                   	inc    %esi
     48b:	83 fe 04             	cmp    $0x4,%esi
     48e:	7e ef                	jle    47f <delay+0x17>
     490:	5b                   	pop    %ebx
     491:	5e                   	pop    %esi
     492:	5d                   	pop    %ebp
     493:	c3                   	ret    

00000494 <sizmem>:
     494:	55                   	push   %ebp
     495:	89 e5                	mov    %esp,%ebp
     497:	b8 00 10 00 00       	mov    $0x1000,%eax
     49c:	5d                   	pop    %ebp
     49d:	c3                   	ret    
     49e:	90                   	nop    
     49f:	90                   	nop    

000004a0 <Xtrap>:
     4a0:	e8 8e 44 00 00       	call   4933 <trap>
     4a5:	b0 20                	mov    $0x20,%al
     4a7:	e6 20                	out    %al,$0x20
     4a9:	58                   	pop    %eax
     4aa:	a9 23 00 00 00       	test   $0x23,%eax
     4af:	72 2f                	jb     4e0 <Xtrap+0x40>
     4b1:	c1 e8 05             	shr    $0x5,%eax
     4b4:	a9 07 00 00 00       	test   $0x7,%eax
     4b9:	77 09                	ja     4c4 <Xtrap+0x24>
     4bb:	0d f0 02 00 00       	or     $0x2f0,%eax
     4c0:	88 18                	mov    %bl,(%eax)
     4c2:	eb 1c                	jmp    4e0 <Xtrap+0x40>
     4c4:	a9 09 00 00 00       	test   $0x9,%eax
     4c9:	74 10                	je     4db <Xtrap+0x3b>
     4cb:	a9 0f 00 00 00       	test   $0xf,%eax
     4d0:	77 0e                	ja     4e0 <Xtrap+0x40>
     4d2:	0d f0 06 00 00       	or     $0x6f0,%eax
     4d7:	88 18                	mov    %bl,(%eax)
     4d9:	eb 05                	jmp    4e0 <Xtrap+0x40>
     4db:	a2 f2 02 00 00       	mov    %al,0x2f2
     4e0:	61                   	popa   
     4e1:	c9                   	leave  
     4e2:	cf                   	iret   

000004e3 <_Xint0>:
     4e3:	55                   	push   %ebp
     4e4:	89 e5                	mov    %esp,%ebp
     4e6:	60                   	pusha  
     4e7:	6a 00                	push   $0x0
     4e9:	eb b5                	jmp    4a0 <Xtrap>

000004eb <_Xint1>:
     4eb:	55                   	push   %ebp
     4ec:	89 e5                	mov    %esp,%ebp
     4ee:	60                   	pusha  
     4ef:	6a 01                	push   $0x1
     4f1:	eb ad                	jmp    4a0 <Xtrap>

000004f3 <_Xint2>:
     4f3:	55                   	push   %ebp
     4f4:	89 e5                	mov    %esp,%ebp
     4f6:	60                   	pusha  
     4f7:	6a 02                	push   $0x2
     4f9:	eb a5                	jmp    4a0 <Xtrap>

000004fb <_Xint3>:
     4fb:	55                   	push   %ebp
     4fc:	89 e5                	mov    %esp,%ebp
     4fe:	60                   	pusha  
     4ff:	6a 03                	push   $0x3
     501:	eb 9d                	jmp    4a0 <Xtrap>

00000503 <_Xint4>:
     503:	55                   	push   %ebp
     504:	89 e5                	mov    %esp,%ebp
     506:	60                   	pusha  
     507:	6a 04                	push   $0x4
     509:	eb 95                	jmp    4a0 <Xtrap>

0000050b <_Xint5>:
     50b:	55                   	push   %ebp
     50c:	89 e5                	mov    %esp,%ebp
     50e:	60                   	pusha  
     50f:	6a 05                	push   $0x5
     511:	eb 8d                	jmp    4a0 <Xtrap>

00000513 <_Xint6>:
     513:	55                   	push   %ebp
     514:	89 e5                	mov    %esp,%ebp
     516:	60                   	pusha  
     517:	6a 06                	push   $0x6
     519:	eb 85                	jmp    4a0 <Xtrap>

0000051b <_Xint7>:
     51b:	55                   	push   %ebp
     51c:	89 e5                	mov    %esp,%ebp
     51e:	60                   	pusha  
     51f:	6a 07                	push   $0x7
     521:	e9 7a ff ff ff       	jmp    4a0 <Xtrap>

00000526 <_Xint8>:
     526:	55                   	push   %ebp
     527:	89 e5                	mov    %esp,%ebp
     529:	60                   	pusha  
     52a:	6a 08                	push   $0x8
     52c:	e9 6f ff ff ff       	jmp    4a0 <Xtrap>

00000531 <_Xint9>:
     531:	55                   	push   %ebp
     532:	89 e5                	mov    %esp,%ebp
     534:	60                   	pusha  
     535:	6a 09                	push   $0x9
     537:	e9 64 ff ff ff       	jmp    4a0 <Xtrap>

0000053c <_Xint10>:
     53c:	55                   	push   %ebp
     53d:	89 e5                	mov    %esp,%ebp
     53f:	60                   	pusha  
     540:	6a 0a                	push   $0xa
     542:	e9 59 ff ff ff       	jmp    4a0 <Xtrap>

00000547 <_Xint11>:
     547:	55                   	push   %ebp
     548:	89 e5                	mov    %esp,%ebp
     54a:	60                   	pusha  
     54b:	6a 0b                	push   $0xb
     54d:	e9 4e ff ff ff       	jmp    4a0 <Xtrap>

00000552 <_Xint12>:
     552:	55                   	push   %ebp
     553:	89 e5                	mov    %esp,%ebp
     555:	60                   	pusha  
     556:	6a 0c                	push   $0xc
     558:	e9 43 ff ff ff       	jmp    4a0 <Xtrap>

0000055d <_Xint13>:
     55d:	55                   	push   %ebp
     55e:	89 e5                	mov    %esp,%ebp
     560:	60                   	pusha  
     561:	6a 0d                	push   $0xd
     563:	e9 38 ff ff ff       	jmp    4a0 <Xtrap>

00000568 <_Xint14>:
     568:	55                   	push   %ebp
     569:	89 e5                	mov    %esp,%ebp
     56b:	60                   	pusha  
     56c:	6a 0e                	push   $0xe
     56e:	e9 2d ff ff ff       	jmp    4a0 <Xtrap>

00000573 <_Xint15>:
     573:	55                   	push   %ebp
     574:	89 e5                	mov    %esp,%ebp
     576:	60                   	pusha  
     577:	6a 0f                	push   $0xf
     579:	e9 22 ff ff ff       	jmp    4a0 <Xtrap>

0000057e <_Xint16>:
     57e:	55                   	push   %ebp
     57f:	89 e5                	mov    %esp,%ebp
     581:	60                   	pusha  
     582:	6a 10                	push   $0x10
     584:	e9 17 ff ff ff       	jmp    4a0 <Xtrap>

00000589 <_Xint17>:
     589:	55                   	push   %ebp
     58a:	89 e5                	mov    %esp,%ebp
     58c:	60                   	pusha  
     58d:	6a 11                	push   $0x11
     58f:	e9 0c ff ff ff       	jmp    4a0 <Xtrap>

00000594 <_Xint18>:
     594:	55                   	push   %ebp
     595:	89 e5                	mov    %esp,%ebp
     597:	60                   	pusha  
     598:	6a 12                	push   $0x12
     59a:	e9 01 ff ff ff       	jmp    4a0 <Xtrap>

0000059f <_Xint19>:
     59f:	55                   	push   %ebp
     5a0:	89 e5                	mov    %esp,%ebp
     5a2:	60                   	pusha  
     5a3:	6a 13                	push   $0x13
     5a5:	e9 f6 fe ff ff       	jmp    4a0 <Xtrap>

000005aa <_Xint20>:
     5aa:	55                   	push   %ebp
     5ab:	89 e5                	mov    %esp,%ebp
     5ad:	60                   	pusha  
     5ae:	6a 01                	push   $0x1
     5b0:	e9 eb fe ff ff       	jmp    4a0 <Xtrap>

000005b5 <_Xint21>:
     5b5:	55                   	push   %ebp
     5b6:	89 e5                	mov    %esp,%ebp
     5b8:	60                   	pusha  
     5b9:	6a 15                	push   $0x15
     5bb:	e9 e0 fe ff ff       	jmp    4a0 <Xtrap>

000005c0 <_Xint22>:
     5c0:	55                   	push   %ebp
     5c1:	89 e5                	mov    %esp,%ebp
     5c3:	60                   	pusha  
     5c4:	6a 16                	push   $0x16
     5c6:	e9 d5 fe ff ff       	jmp    4a0 <Xtrap>

000005cb <_Xint23>:
     5cb:	55                   	push   %ebp
     5cc:	89 e5                	mov    %esp,%ebp
     5ce:	60                   	pusha  
     5cf:	6a 17                	push   $0x17
     5d1:	e9 ca fe ff ff       	jmp    4a0 <Xtrap>

000005d6 <_Xint24>:
     5d6:	55                   	push   %ebp
     5d7:	89 e5                	mov    %esp,%ebp
     5d9:	60                   	pusha  
     5da:	6a 18                	push   $0x18
     5dc:	e9 bf fe ff ff       	jmp    4a0 <Xtrap>

000005e1 <_Xint25>:
     5e1:	55                   	push   %ebp
     5e2:	89 e5                	mov    %esp,%ebp
     5e4:	60                   	pusha  
     5e5:	6a 19                	push   $0x19
     5e7:	e9 b4 fe ff ff       	jmp    4a0 <Xtrap>

000005ec <_Xint26>:
     5ec:	55                   	push   %ebp
     5ed:	89 e5                	mov    %esp,%ebp
     5ef:	60                   	pusha  
     5f0:	6a 1a                	push   $0x1a
     5f2:	e9 a9 fe ff ff       	jmp    4a0 <Xtrap>

000005f7 <_Xint27>:
     5f7:	55                   	push   %ebp
     5f8:	89 e5                	mov    %esp,%ebp
     5fa:	60                   	pusha  
     5fb:	6a 1b                	push   $0x1b
     5fd:	e9 9e fe ff ff       	jmp    4a0 <Xtrap>

00000602 <_Xint28>:
     602:	55                   	push   %ebp
     603:	89 e5                	mov    %esp,%ebp
     605:	60                   	pusha  
     606:	6a 1c                	push   $0x1c
     608:	e9 93 fe ff ff       	jmp    4a0 <Xtrap>

0000060d <_Xint29>:
     60d:	55                   	push   %ebp
     60e:	89 e5                	mov    %esp,%ebp
     610:	60                   	pusha  
     611:	6a 1d                	push   $0x1d
     613:	e9 88 fe ff ff       	jmp    4a0 <Xtrap>

00000618 <_Xint30>:
     618:	55                   	push   %ebp
     619:	89 e5                	mov    %esp,%ebp
     61b:	60                   	pusha  
     61c:	6a 1e                	push   $0x1e
     61e:	e9 7d fe ff ff       	jmp    4a0 <Xtrap>

00000623 <_Xint31>:
     623:	55                   	push   %ebp
     624:	89 e5                	mov    %esp,%ebp
     626:	60                   	pusha  
     627:	6a 1f                	push   $0x1f
     629:	e9 72 fe ff ff       	jmp    4a0 <Xtrap>

0000062e <_Xint32>:
     62e:	55                   	push   %ebp
     62f:	89 e5                	mov    %esp,%ebp
     631:	60                   	pusha  
     632:	6a 20                	push   $0x20
     634:	e9 67 fe ff ff       	jmp    4a0 <Xtrap>

00000639 <_Xint33>:
     639:	55                   	push   %ebp
     63a:	89 e5                	mov    %esp,%ebp
     63c:	60                   	pusha  
     63d:	6a 21                	push   $0x21
     63f:	e9 5c fe ff ff       	jmp    4a0 <Xtrap>

00000644 <_Xint34>:
     644:	55                   	push   %ebp
     645:	89 e5                	mov    %esp,%ebp
     647:	60                   	pusha  
     648:	6a 22                	push   $0x22
     64a:	e9 51 fe ff ff       	jmp    4a0 <Xtrap>

0000064f <_Xint35>:
     64f:	55                   	push   %ebp
     650:	89 e5                	mov    %esp,%ebp
     652:	60                   	pusha  
     653:	6a 23                	push   $0x23
     655:	e9 46 fe ff ff       	jmp    4a0 <Xtrap>

0000065a <_Xint36>:
     65a:	55                   	push   %ebp
     65b:	89 e5                	mov    %esp,%ebp
     65d:	60                   	pusha  
     65e:	6a 24                	push   $0x24
     660:	e9 3b fe ff ff       	jmp    4a0 <Xtrap>

00000665 <_Xint37>:
     665:	55                   	push   %ebp
     666:	89 e5                	mov    %esp,%ebp
     668:	60                   	pusha  
     669:	6a 25                	push   $0x25
     66b:	e9 30 fe ff ff       	jmp    4a0 <Xtrap>

00000670 <_Xint38>:
     670:	55                   	push   %ebp
     671:	89 e5                	mov    %esp,%ebp
     673:	60                   	pusha  
     674:	6a 26                	push   $0x26
     676:	e9 25 fe ff ff       	jmp    4a0 <Xtrap>

0000067b <_Xint39>:
     67b:	55                   	push   %ebp
     67c:	89 e5                	mov    %esp,%ebp
     67e:	60                   	pusha  
     67f:	6a 27                	push   $0x27
     681:	e9 1a fe ff ff       	jmp    4a0 <Xtrap>

00000686 <_Xint40>:
     686:	55                   	push   %ebp
     687:	89 e5                	mov    %esp,%ebp
     689:	60                   	pusha  
     68a:	6a 28                	push   $0x28
     68c:	e9 0f fe ff ff       	jmp    4a0 <Xtrap>

00000691 <_Xint41>:
     691:	55                   	push   %ebp
     692:	89 e5                	mov    %esp,%ebp
     694:	60                   	pusha  
     695:	6a 29                	push   $0x29
     697:	e9 04 fe ff ff       	jmp    4a0 <Xtrap>

0000069c <_Xint42>:
     69c:	55                   	push   %ebp
     69d:	89 e5                	mov    %esp,%ebp
     69f:	60                   	pusha  
     6a0:	6a 2a                	push   $0x2a
     6a2:	e9 f9 fd ff ff       	jmp    4a0 <Xtrap>

000006a7 <_Xint43>:
     6a7:	55                   	push   %ebp
     6a8:	89 e5                	mov    %esp,%ebp
     6aa:	60                   	pusha  
     6ab:	6a 2b                	push   $0x2b
     6ad:	e9 ee fd ff ff       	jmp    4a0 <Xtrap>

000006b2 <_Xint44>:
     6b2:	55                   	push   %ebp
     6b3:	89 e5                	mov    %esp,%ebp
     6b5:	60                   	pusha  
     6b6:	6a 2c                	push   $0x2c
     6b8:	e9 e3 fd ff ff       	jmp    4a0 <Xtrap>

000006bd <_Xint45>:
     6bd:	55                   	push   %ebp
     6be:	89 e5                	mov    %esp,%ebp
     6c0:	60                   	pusha  
     6c1:	6a 2d                	push   $0x2d
     6c3:	e9 d8 fd ff ff       	jmp    4a0 <Xtrap>

000006c8 <_Xint46>:
     6c8:	55                   	push   %ebp
     6c9:	89 e5                	mov    %esp,%ebp
     6cb:	60                   	pusha  
     6cc:	6a 2e                	push   $0x2e
     6ce:	e9 cd fd ff ff       	jmp    4a0 <Xtrap>

000006d3 <_Xint47>:
     6d3:	55                   	push   %ebp
     6d4:	89 e5                	mov    %esp,%ebp
     6d6:	60                   	pusha  
     6d7:	6a 2f                	push   $0x2f
     6d9:	e9 c2 fd ff ff       	jmp    4a0 <Xtrap>

000006de <defevec>:
     6de:	e3 04                	jecxz  6e4 <defevec+0x6>
     6e0:	00 00                	add    %al,(%eax)
     6e2:	eb 04                	jmp    6e8 <defevec+0xa>
     6e4:	00 00                	add    %al,(%eax)
     6e6:	f3 04 00             	repz add $0x0,%al
     6e9:	00 fb                	add    %bh,%bl
     6eb:	04 00                	add    $0x0,%al
     6ed:	00 03                	add    %al,(%ebx)
     6ef:	05 00 00 0b 05       	add    $0x50b0000,%eax
     6f4:	00 00                	add    %al,(%eax)
     6f6:	13 05 00 00 1b 05    	adc    0x51b0000,%eax
     6fc:	00 00                	add    %al,(%eax)
     6fe:	26                   	es
     6ff:	05 00 00 31 05       	add    $0x5310000,%eax
     704:	00 00                	add    %al,(%eax)
     706:	3c 05                	cmp    $0x5,%al
     708:	00 00                	add    %al,(%eax)
     70a:	47                   	inc    %edi
     70b:	05 00 00 52 05       	add    $0x5520000,%eax
     710:	00 00                	add    %al,(%eax)
     712:	5d                   	pop    %ebp
     713:	05 00 00 68 05       	add    $0x5680000,%eax
     718:	00 00                	add    %al,(%eax)
     71a:	73 05                	jae    721 <defevec+0x43>
     71c:	00 00                	add    %al,(%eax)
     71e:	7e 05                	jle    725 <defevec+0x47>
     720:	00 00                	add    %al,(%eax)
     722:	89 05 00 00 94 05    	mov    %eax,0x5940000
     728:	00 00                	add    %al,(%eax)
     72a:	9f                   	lahf   
     72b:	05 00 00 aa 05       	add    $0x5aa0000,%eax
     730:	00 00                	add    %al,(%eax)
     732:	b5 05                	mov    $0x5,%ch
     734:	00 00                	add    %al,(%eax)
     736:	c0 05 00 00 cb 05 00 	rolb   $0x0,0x5cb0000
     73d:	00 d6                	add    %dl,%dh
     73f:	05 00 00 e1 05       	add    $0x5e10000,%eax
     744:	00 00                	add    %al,(%eax)
     746:	ec                   	in     (%dx),%al
     747:	05 00 00 f7 05       	add    $0x5f70000,%eax
     74c:	00 00                	add    %al,(%eax)
     74e:	02 06                	add    (%esi),%al
     750:	00 00                	add    %al,(%eax)
     752:	0d 06 00 00 18       	or     $0x18000006,%eax
     757:	06                   	push   %es
     758:	00 00                	add    %al,(%eax)
     75a:	23 06                	and    (%esi),%eax
     75c:	00 00                	add    %al,(%eax)
     75e:	2e                   	cs
     75f:	06                   	push   %es
     760:	00 00                	add    %al,(%eax)
     762:	39 06                	cmp    %eax,(%esi)
     764:	00 00                	add    %al,(%eax)
     766:	44                   	inc    %esp
     767:	06                   	push   %es
     768:	00 00                	add    %al,(%eax)
     76a:	4f                   	dec    %edi
     76b:	06                   	push   %es
     76c:	00 00                	add    %al,(%eax)
     76e:	5a                   	pop    %edx
     76f:	06                   	push   %es
     770:	00 00                	add    %al,(%eax)
     772:	65                   	gs
     773:	06                   	push   %es
     774:	00 00                	add    %al,(%eax)
     776:	70 06                	jo     77e <defevec+0xa0>
     778:	00 00                	add    %al,(%eax)
     77a:	7b 06                	jnp    782 <defevec+0xa4>
     77c:	00 00                	add    %al,(%eax)
     77e:	86 06                	xchg   %al,(%esi)
     780:	00 00                	add    %al,(%eax)
     782:	91                   	xchg   %eax,%ecx
     783:	06                   	push   %es
     784:	00 00                	add    %al,(%eax)
     786:	9c                   	pushf  
     787:	06                   	push   %es
     788:	00 00                	add    %al,(%eax)
     78a:	a7                   	cmpsl  %es:(%edi),%ds:(%esi)
     78b:	06                   	push   %es
     78c:	00 00                	add    %al,(%eax)
     78e:	b2 06                	mov    $0x6,%dl
     790:	00 00                	add    %al,(%eax)
     792:	bd 06 00 00 c8       	mov    $0xc8000006,%ebp
     797:	06                   	push   %es
     798:	00 00                	add    %al,(%eax)
     79a:	d3 06                	roll   %cl,(%esi)
	...

0000079e <pause>:
     79e:	e8 08 00 00 00       	call   7ab <enable>
     7a3:	f4                   	hlt    
     7a4:	c3                   	ret    

000007a5 <halt>:
     7a5:	e9 fb ff ff ff       	jmp    7a5 <halt>
     7aa:	c3                   	ret    

000007ab <enable>:
     7ab:	fa                   	cli    
     7ac:	66 a1 7c 8f 01 00    	mov    0x18f7c,%ax
     7b2:	e6 21                	out    %al,$0x21
     7b4:	66 c1 e8 08          	shr    $0x8,%ax
     7b8:	e6 a1                	out    %al,$0xa1
     7ba:	fb                   	sti    
     7bb:	c3                   	ret    

000007bc <disable>:
     7bc:	fa                   	cli    
     7bd:	9c                   	pushf  
     7be:	e4 a1                	in     $0xa1,%al
     7c0:	66 c1 e0 08          	shl    $0x8,%ax
     7c4:	e4 21                	in     $0x21,%al
     7c6:	66 f7 d0             	not    %ax
     7c9:	66 0b 05 7c 8f 01 00 	or     0x18f7c,%ax
     7d0:	66 f7 d0             	not    %ax
     7d3:	8b 54 24 08          	mov    0x8(%esp),%edx
     7d7:	66 89 02             	mov    %ax,(%edx)
     7da:	b0 ff                	mov    $0xff,%al
     7dc:	e6 a1                	out    %al,$0xa1
     7de:	b0 ff                	mov    $0xff,%al
     7e0:	e6 21                	out    %al,$0x21
     7e2:	9d                   	popf   
     7e3:	c3                   	ret    

000007e4 <restore>:
     7e4:	fa                   	cli    
     7e5:	9c                   	pushf  
     7e6:	8b 54 24 08          	mov    0x8(%esp),%edx
     7ea:	66 8b 02             	mov    (%edx),%ax
     7ed:	66 0b 05 7c 8f 01 00 	or     0x18f7c,%ax
     7f4:	e6 21                	out    %al,$0x21
     7f6:	66 c1 e8 08          	shr    $0x8,%ax
     7fa:	e6 a1                	out    %al,$0xa1
     7fc:	9d                   	popf   
     7fd:	fb                   	sti    
     7fe:	c3                   	ret    

000007ff <getirmask>:
     7ff:	e4 a1                	in     $0xa1,%al
     801:	66 c1 e0 08          	shl    $0x8,%ax
     805:	e4 21                	in     $0x21,%al
     807:	8b 54 24 04          	mov    0x4(%esp),%edx
     80b:	66 89 02             	mov    %ax,(%edx)
     80e:	c3                   	ret    
     80f:	90                   	nop    

00000810 <count1000>:
     810:	e8 03 fa 60 b0       	call   b0610218 <_end+0xb05f6724>

00000812 <clkint>:
     812:	fa                   	cli    
     813:	60                   	pusha  
     814:	b0 20                	mov    $0x20,%al
     816:	e6 20                	out    %al,$0x20
     818:	ff 05 64 8f 01 00    	incl   0x18f64
     81e:	66 83 2d 10 08 00 00 	subw   $0x1,0x810
     825:	01 
     826:	77 0f                	ja     837 <cl1>
     828:	ff 05 04 ba 00 00    	incl   0xba04
     82e:	66 c7 05 10 08 00 00 	movw   $0x3e8,0x810
     835:	e8 03 

00000837 <cl1>:
     837:	83 3d 68 8f 01 00 00 	cmpl   $0x0,0x18f68
     83e:	74 0e                	je     84e <clpreem>
     840:	a1 54 8f 01 00       	mov    0x18f54,%eax
     845:	ff 08                	decl   (%eax)
     847:	7f 05                	jg     84e <clpreem>
     849:	e8 fe 62 00 00       	call   6b4c <wakeup>

0000084e <clpreem>:
     84e:	ff 0d 60 8f 01 00    	decl   0x18f60
     854:	7f 05                	jg     85b <clret>
     856:	e8 0d 58 00 00       	call   6068 <resched>

0000085b <clret>:
     85b:	61                   	popa   
     85c:	fb                   	sti    
     85d:	cf                   	iret   
     85e:	90                   	nop    
     85f:	90                   	nop    

00000860 <newmask>:
	...

00000862 <ctxsw>:
     862:	55                   	push   %ebp
     863:	89 e5                	mov    %esp,%ebp
     865:	ff 75 0c             	pushl  0xc(%ebp)
     868:	e8 4f ff ff ff       	call   7bc <disable>
     86d:	8b 45 14             	mov    0x14(%ebp),%eax
     870:	66 8b 10             	mov    (%eax),%dx
     873:	66 89 15 60 08 00 00 	mov    %dx,0x860
     87a:	9c                   	pushf  
     87b:	60                   	pusha  
     87c:	8b 45 08             	mov    0x8(%ebp),%eax
     87f:	89 20                	mov    %esp,(%eax)
     881:	8b 45 10             	mov    0x10(%ebp),%eax
     884:	8b 20                	mov    (%eax),%esp
     886:	61                   	popa   
     887:	9d                   	popf   
     888:	68 60 08 00 00       	push   $0x860
     88d:	e8 52 ff ff ff       	call   7e4 <restore>
     892:	c9                   	leave  
     893:	c3                   	ret    

00000894 <pferrcode>:
     894:	00 00                	add    %al,(%eax)
	...

00000898 <pfintr>:
     898:	8f 05 94 08 00 00    	popl   0x894
     89e:	9c                   	pushf  
     89f:	fa                   	cli    
     8a0:	60                   	pusha  
     8a1:	e8 ce 7e 00 00       	call   8774 <pfint>
     8a6:	61                   	popa   
     8a7:	9d                   	popf   
     8a8:	cf                   	iret   
     8a9:	90                   	nop    
     8aa:	90                   	nop    
     8ab:	90                   	nop    

000008ac <comcntl>:
     8ac:	55                   	push   %ebp
     8ad:	89 e5                	mov    %esp,%ebp
     8af:	b8 ff ff ff ff       	mov    $0xffffffff,%eax
     8b4:	5d                   	pop    %ebp
     8b5:	c3                   	ret    
     8b6:	90                   	nop    
     8b7:	90                   	nop    

000008b8 <comgetc>:
     8b8:	55                   	push   %ebp
     8b9:	89 e5                	mov    %esp,%ebp
     8bb:	83 ec 14             	sub    $0x14,%esp
     8be:	68 4e 99 00 00       	push   $0x994e
     8c3:	e8 a0 51 00 00       	call   5a68 <kprintf>
     8c8:	b8 01 00 00 00       	mov    $0x1,%eax
     8cd:	c9                   	leave  
     8ce:	c3                   	ret    

000008cf <comread>:
     8cf:	55                   	push   %ebp
     8d0:	89 e5                	mov    %esp,%ebp
     8d2:	83 ec 14             	sub    $0x14,%esp
     8d5:	68 58 99 00 00       	push   $0x9958
     8da:	e8 89 51 00 00       	call   5a68 <kprintf>
     8df:	b8 01 00 00 00       	mov    $0x1,%eax
     8e4:	c9                   	leave  
     8e5:	c3                   	ret    
     8e6:	90                   	nop    
     8e7:	90                   	nop    

000008e8 <comiin>:
     8e8:	55                   	push   %ebp
     8e9:	89 e5                	mov    %esp,%ebp
     8eb:	83 ec 08             	sub    $0x8,%esp
     8ee:	8a 4d 0c             	mov    0xc(%ebp),%cl
     8f1:	8b 45 08             	mov    0x8(%ebp),%eax
     8f4:	8b 50 28             	mov    0x28(%eax),%edx
     8f7:	b8 01 00 00 00       	mov    $0x1,%eax
     8fc:	83 7a 40 00          	cmpl   $0x0,0x40(%edx)
     900:	74 20                	je     922 <comiin+0x3a>
     902:	8b 52 40             	mov    0x40(%edx),%edx
     905:	b8 01 00 00 00       	mov    $0x1,%eax
     90a:	85 d2                	test   %edx,%edx
     90c:	74 14                	je     922 <comiin+0x3a>
     90e:	83 ec 08             	sub    $0x8,%esp
     911:	b8 00 00 00 00       	mov    $0x0,%eax
     916:	88 c8                	mov    %cl,%al
     918:	50                   	push   %eax
     919:	52                   	push   %edx
     91a:	ff 52 38             	call   *0x38(%edx)
     91d:	b8 01 00 00 00       	mov    $0x1,%eax
     922:	c9                   	leave  
     923:	c3                   	ret    

00000924 <cominit>:
     924:	55                   	push   %ebp
     925:	89 e5                	mov    %esp,%ebp
     927:	57                   	push   %edi
     928:	56                   	push   %esi
     929:	53                   	push   %ebx
     92a:	83 ec 18             	sub    $0x18,%esp
     92d:	8b 75 08             	mov    0x8(%ebp),%esi
     930:	8b 7e 2c             	mov    0x2c(%esi),%edi
     933:	8b 46 44             	mov    0x44(%esi),%eax
     936:	8d 1c 80             	lea    (%eax,%eax,4),%ebx
     939:	8d 1c 58             	lea    (%eax,%ebx,2),%ebx
     93c:	8d 1c 9d 80 8b 01 00 	lea    0x18b80(,%ebx,4),%ebx
     943:	89 73 28             	mov    %esi,0x28(%ebx)
     946:	6a 20                	push   $0x20
     948:	e8 f7 58 00 00       	call   6244 <screate>
     94d:	89 43 24             	mov    %eax,0x24(%ebx)
     950:	83 c4 08             	add    $0x8,%esp
     953:	68 a0 8c 00 00       	push   $0x8ca0
     958:	ff 76 30             	pushl  0x30(%esi)
     95b:	e8 82 3f 00 00       	call   48e2 <set_evec>
     960:	83 c4 08             	add    $0x8,%esp
     963:	68 80 00 00 00       	push   $0x80
     968:	8d 5f 03             	lea    0x3(%edi),%ebx
     96b:	53                   	push   %ebx
     96c:	e8 34 f7 ff ff       	call   a5 <outb>
     971:	c7 04 24 0a 00 00 00 	movl   $0xa,(%esp)
     978:	e8 eb fa ff ff       	call   468 <delay>
     97d:	83 c4 08             	add    $0x8,%esp
     980:	6a 0c                	push   $0xc
     982:	57                   	push   %edi
     983:	e8 1d f7 ff ff       	call   a5 <outb>
     988:	c7 04 24 0a 00 00 00 	movl   $0xa,(%esp)
     98f:	e8 d4 fa ff ff       	call   468 <delay>
     994:	83 c4 08             	add    $0x8,%esp
     997:	6a 00                	push   $0x0
     999:	8d 47 01             	lea    0x1(%edi),%eax
     99c:	89 45 f0             	mov    %eax,0xfffffff0(%ebp)
     99f:	50                   	push   %eax
     9a0:	e8 00 f7 ff ff       	call   a5 <outb>
     9a5:	c7 04 24 0a 00 00 00 	movl   $0xa,(%esp)
     9ac:	e8 b7 fa ff ff       	call   468 <delay>
     9b1:	83 c4 08             	add    $0x8,%esp
     9b4:	6a 03                	push   $0x3
     9b6:	53                   	push   %ebx
     9b7:	e8 e9 f6 ff ff       	call   a5 <outb>
     9bc:	c7 04 24 0a 00 00 00 	movl   $0xa,(%esp)
     9c3:	e8 a0 fa ff ff       	call   468 <delay>
     9c8:	89 3c 24             	mov    %edi,(%esp)
     9cb:	e8 90 00 00 00       	call   a60 <comprobe>
     9d0:	83 c4 08             	add    $0x8,%esp
     9d3:	6a 00                	push   $0x0
     9d5:	8d 77 04             	lea    0x4(%edi),%esi
     9d8:	56                   	push   %esi
     9d9:	e8 c7 f6 ff ff       	call   a5 <outb>
     9de:	c7 04 24 0a 00 00 00 	movl   $0xa,(%esp)
     9e5:	e8 7e fa ff ff       	call   468 <delay>
     9ea:	8d 5f 06             	lea    0x6(%edi),%ebx
     9ed:	89 1c 24             	mov    %ebx,(%esp)
     9f0:	e8 97 f6 ff ff       	call   8c <inb>
     9f5:	83 c4 08             	add    $0x8,%esp
     9f8:	6a 0b                	push   $0xb
     9fa:	56                   	push   %esi
     9fb:	e8 a5 f6 ff ff       	call   a5 <outb>
     a00:	c7 04 24 0a 00 00 00 	movl   $0xa,(%esp)
     a07:	e8 5c fa ff ff       	call   468 <delay>
     a0c:	89 1c 24             	mov    %ebx,(%esp)
     a0f:	e8 78 f6 ff ff       	call   8c <inb>
     a14:	83 c4 08             	add    $0x8,%esp
     a17:	6a 0d                	push   $0xd
     a19:	ff 75 f0             	pushl  0xfffffff0(%ebp)
     a1c:	e8 84 f6 ff ff       	call   a5 <outb>
     a21:	c7 04 24 0a 00 00 00 	movl   $0xa,(%esp)
     a28:	e8 3b fa ff ff       	call   468 <delay>
     a2d:	8d 47 02             	lea    0x2(%edi),%eax
     a30:	89 04 24             	mov    %eax,(%esp)
     a33:	e8 54 f6 ff ff       	call   8c <inb>
     a38:	8d 47 05             	lea    0x5(%edi),%eax
     a3b:	89 04 24             	mov    %eax,(%esp)
     a3e:	e8 49 f6 ff ff       	call   8c <inb>
     a43:	89 1c 24             	mov    %ebx,(%esp)
     a46:	e8 41 f6 ff ff       	call   8c <inb>
     a4b:	89 3c 24             	mov    %edi,(%esp)
     a4e:	e8 39 f6 ff ff       	call   8c <inb>
     a53:	b8 01 00 00 00       	mov    $0x1,%eax
     a58:	8d 65 f4             	lea    0xfffffff4(%ebp),%esp
     a5b:	5b                   	pop    %ebx
     a5c:	5e                   	pop    %esi
     a5d:	5f                   	pop    %edi
     a5e:	5d                   	pop    %ebp
     a5f:	c3                   	ret    

00000a60 <comprobe>:
     a60:	55                   	push   %ebp
     a61:	89 e5                	mov    %esp,%ebp
     a63:	57                   	push   %edi
     a64:	56                   	push   %esi
     a65:	53                   	push   %ebx
     a66:	83 ec 18             	sub    $0x18,%esp
     a69:	8b 75 08             	mov    0x8(%ebp),%esi
     a6c:	83 c6 03             	add    $0x3,%esi
     a6f:	56                   	push   %esi
     a70:	e8 17 f6 ff ff       	call   8c <inb>
     a75:	83 c4 08             	add    $0x8,%esp
     a78:	0f be f8             	movsbl %al,%edi
     a7b:	89 f8                	mov    %edi,%eax
     a7d:	0c 80                	or     $0x80,%al
     a7f:	89 45 f0             	mov    %eax,0xfffffff0(%ebp)
     a82:	50                   	push   %eax
     a83:	56                   	push   %esi
     a84:	e8 1c f6 ff ff       	call   a5 <outb>
     a89:	c7 04 24 0a 00 00 00 	movl   $0xa,(%esp)
     a90:	e8 d3 f9 ff ff       	call   468 <delay>
     a95:	83 c4 08             	add    $0x8,%esp
     a98:	6a 00                	push   $0x0
     a9a:	8b 5d 08             	mov    0x8(%ebp),%ebx
     a9d:	83 c3 02             	add    $0x2,%ebx
     aa0:	53                   	push   %ebx
     aa1:	e8 ff f5 ff ff       	call   a5 <outb>
     aa6:	c7 04 24 0a 00 00 00 	movl   $0xa,(%esp)
     aad:	e8 b6 f9 ff ff       	call   468 <delay>
     ab2:	83 c4 08             	add    $0x8,%esp
     ab5:	57                   	push   %edi
     ab6:	56                   	push   %esi
     ab7:	e8 e9 f5 ff ff       	call   a5 <outb>
     abc:	c7 04 24 0a 00 00 00 	movl   $0xa,(%esp)
     ac3:	e8 a0 f9 ff ff       	call   468 <delay>
     ac8:	83 c4 08             	add    $0x8,%esp
     acb:	6a 01                	push   $0x1
     acd:	53                   	push   %ebx
     ace:	e8 d2 f5 ff ff       	call   a5 <outb>
     ad3:	c7 04 24 0a 00 00 00 	movl   $0xa,(%esp)
     ada:	e8 89 f9 ff ff       	call   468 <delay>
     adf:	c7 04 24 02 00 00 00 	movl   $0x2,(%esp)
     ae6:	e8 a1 f5 ff ff       	call   8c <inb>
     aeb:	c1 e8 06             	shr    $0x6,%eax
     aee:	83 c4 10             	add    $0x10,%esp
     af1:	3c 03                	cmp    $0x3,%al
     af3:	75 39                	jne    b2e <comprobe+0xce>
     af5:	83 ec 08             	sub    $0x8,%esp
     af8:	ff 75 f0             	pushl  0xfffffff0(%ebp)
     afb:	56                   	push   %esi
     afc:	e8 a4 f5 ff ff       	call   a5 <outb>
     b01:	c7 04 24 0a 00 00 00 	movl   $0xa,(%esp)
     b08:	e8 5b f9 ff ff       	call   468 <delay>
     b0d:	89 1c 24             	mov    %ebx,(%esp)
     b10:	e8 77 f5 ff ff       	call   8c <inb>
     b15:	83 c4 08             	add    $0x8,%esp
     b18:	57                   	push   %edi
     b19:	56                   	push   %esi
     b1a:	e8 86 f5 ff ff       	call   a5 <outb>
     b1f:	c7 04 24 0a 00 00 00 	movl   $0xa,(%esp)
     b26:	e8 3d f9 ff ff       	call   468 <delay>
     b2b:	83 c4 10             	add    $0x10,%esp
     b2e:	83 ec 08             	sub    $0x8,%esp
     b31:	6a 00                	push   $0x0
     b33:	8b 45 08             	mov    0x8(%ebp),%eax
     b36:	83 c0 04             	add    $0x4,%eax
     b39:	50                   	push   %eax
     b3a:	e8 66 f5 ff ff       	call   a5 <outb>
     b3f:	c7 04 24 0a 00 00 00 	movl   $0xa,(%esp)
     b46:	e8 1d f9 ff ff       	call   468 <delay>
     b4b:	83 c4 08             	add    $0x8,%esp
     b4e:	6a 06                	push   $0x6
     b50:	8b 45 08             	mov    0x8(%ebp),%eax
     b53:	83 c0 02             	add    $0x2,%eax
     b56:	50                   	push   %eax
     b57:	e8 49 f5 ff ff       	call   a5 <outb>
     b5c:	c7 04 24 0a 00 00 00 	movl   $0xa,(%esp)
     b63:	e8 00 f9 ff ff       	call   468 <delay>
     b68:	83 c4 04             	add    $0x4,%esp
     b6b:	ff 75 08             	pushl  0x8(%ebp)
     b6e:	e8 19 f5 ff ff       	call   8c <inb>
     b73:	b8 01 00 00 00       	mov    $0x1,%eax
     b78:	8d 65 f4             	lea    0xfffffff4(%ebp),%esp
     b7b:	5b                   	pop    %ebx
     b7c:	5e                   	pop    %esi
     b7d:	5f                   	pop    %edi
     b7e:	5d                   	pop    %ebp
     b7f:	c3                   	ret    

00000b80 <comtest>:
     b80:	55                   	push   %ebp
     b81:	89 e5                	mov    %esp,%ebp
     b83:	83 ec 14             	sub    $0x14,%esp
     b86:	68 62 99 00 00       	push   $0x9962
     b8b:	e8 d8 4e 00 00       	call   5a68 <kprintf>
     b90:	b8 01 00 00 00       	mov    $0x1,%eax
     b95:	c9                   	leave  
     b96:	c3                   	ret    

00000b97 <comdump>:
     b97:	55                   	push   %ebp
     b98:	89 e5                	mov    %esp,%ebp
     b9a:	57                   	push   %edi
     b9b:	56                   	push   %esi
     b9c:	53                   	push   %ebx
     b9d:	83 ec 18             	sub    $0x18,%esp
     ba0:	8b 75 08             	mov    0x8(%ebp),%esi
     ba3:	68 6b 99 00 00       	push   $0x996b
     ba8:	e8 bb 4e 00 00       	call   5a68 <kprintf>
     bad:	8d 5e 03             	lea    0x3(%esi),%ebx
     bb0:	89 1c 24             	mov    %ebx,(%esp)
     bb3:	e8 d4 f4 ff ff       	call   8c <inb>
     bb8:	89 c7                	mov    %eax,%edi
     bba:	83 c4 08             	add    $0x8,%esp
     bbd:	83 e0 7f             	and    $0x7f,%eax
     bc0:	50                   	push   %eax
     bc1:	53                   	push   %ebx
     bc2:	e8 de f4 ff ff       	call   a5 <outb>
     bc7:	bb 00 00 00 00       	mov    $0x0,%ebx
     bcc:	83 c4 10             	add    $0x10,%esp
     bcf:	83 ec 0c             	sub    $0xc,%esp
     bd2:	8d 04 1e             	lea    (%esi,%ebx,1),%eax
     bd5:	50                   	push   %eax
     bd6:	e8 b1 f4 ff ff       	call   8c <inb>
     bdb:	83 c4 08             	add    $0x8,%esp
     bde:	50                   	push   %eax
     bdf:	68 7c 99 00 00       	push   $0x997c
     be4:	e8 7f 4e 00 00       	call   5a68 <kprintf>
     be9:	83 c4 10             	add    $0x10,%esp
     bec:	43                   	inc    %ebx
     bed:	83 fb 07             	cmp    $0x7,%ebx
     bf0:	7e dd                	jle    bcf <comdump+0x38>
     bf2:	83 ec 0c             	sub    $0xc,%esp
     bf5:	68 82 99 00 00       	push   $0x9982
     bfa:	e8 69 4e 00 00       	call   5a68 <kprintf>
     bff:	83 c4 08             	add    $0x8,%esp
     c02:	89 f8                	mov    %edi,%eax
     c04:	83 c8 80             	or     $0xffffff80,%eax
     c07:	25 ff 00 00 00       	and    $0xff,%eax
     c0c:	50                   	push   %eax
     c0d:	8d 5e 03             	lea    0x3(%esi),%ebx
     c10:	53                   	push   %ebx
     c11:	e8 8f f4 ff ff       	call   a5 <outb>
     c16:	8d 46 01             	lea    0x1(%esi),%eax
     c19:	89 04 24             	mov    %eax,(%esp)
     c1c:	e8 6b f4 ff ff       	call   8c <inb>
     c21:	83 c4 0c             	add    $0xc,%esp
     c24:	50                   	push   %eax
     c25:	83 ec 04             	sub    $0x4,%esp
     c28:	56                   	push   %esi
     c29:	e8 5e f4 ff ff       	call   8c <inb>
     c2e:	83 c4 08             	add    $0x8,%esp
     c31:	50                   	push   %eax
     c32:	68 8b 99 00 00       	push   $0x998b
     c37:	e8 2c 4e 00 00       	call   5a68 <kprintf>
     c3c:	83 c4 08             	add    $0x8,%esp
     c3f:	89 f8                	mov    %edi,%eax
     c41:	25 ff 00 00 00       	and    $0xff,%eax
     c46:	50                   	push   %eax
     c47:	53                   	push   %ebx
     c48:	e8 58 f4 ff ff       	call   a5 <outb>
     c4d:	b8 01 00 00 00       	mov    $0x1,%eax
     c52:	8d 65 f4             	lea    0xfffffff4(%ebp),%esp
     c55:	5b                   	pop    %ebx
     c56:	5e                   	pop    %esi
     c57:	5f                   	pop    %edi
     c58:	5d                   	pop    %ebp
     c59:	c3                   	ret    
     c5a:	90                   	nop    
     c5b:	90                   	nop    

00000c5c <cominput>:
     c5c:	55                   	push   %ebp
     c5d:	89 e5                	mov    %esp,%ebp
     c5f:	83 ec 14             	sub    $0x14,%esp
     c62:	68 96 99 00 00       	push   $0x9996
     c67:	e8 fc 4d 00 00       	call   5a68 <kprintf>
     c6c:	b8 01 00 00 00       	mov    $0x1,%eax
     c71:	c9                   	leave  
     c72:	c3                   	ret    
     c73:	90                   	nop    

00000c74 <computc>:
     c74:	55                   	push   %ebp
     c75:	89 e5                	mov    %esp,%ebp
     c77:	57                   	push   %edi
     c78:	56                   	push   %esi
     c79:	53                   	push   %ebx
     c7a:	83 ec 18             	sub    $0x18,%esp
     c7d:	0f b6 7d 0c          	movzbl 0xc(%ebp),%edi
     c81:	8b 55 08             	mov    0x8(%ebp),%edx
     c84:	8b 42 44             	mov    0x44(%edx),%eax
     c87:	8d 14 80             	lea    (%eax,%eax,4),%edx
     c8a:	8d 14 50             	lea    (%eax,%edx,2),%edx
     c8d:	8d 34 95 80 8b 01 00 	lea    0x18b80(,%edx,4),%esi
     c94:	bb 00 00 00 00       	mov    $0x0,%ebx
     c99:	8d 45 f2             	lea    0xfffffff2(%ebp),%eax
     c9c:	50                   	push   %eax
     c9d:	e8 1a fb ff ff       	call   7bc <disable>
     ca2:	8b 55 08             	mov    0x8(%ebp),%edx
     ca5:	8b 42 40             	mov    0x40(%edx),%eax
     ca8:	83 c4 10             	add    $0x10,%esp
     cab:	85 c0                	test   %eax,%eax
     cad:	74 03                	je     cb2 <computc+0x3e>
     caf:	8b 58 40             	mov    0x40(%eax),%ebx
     cb2:	85 db                	test   %ebx,%ebx
     cb4:	74 30                	je     ce6 <computc+0x72>
     cb6:	f6 83 2c 01 00 00 02 	testb  $0x2,0x12c(%ebx)
     cbd:	74 27                	je     ce6 <computc+0x72>
     cbf:	83 ec 08             	sub    $0x8,%esp
     cc2:	89 f8                	mov    %edi,%eax
     cc4:	25 ff 00 00 00       	and    $0xff,%eax
     cc9:	50                   	push   %eax
     cca:	ff 75 08             	pushl  0x8(%ebp)
     ccd:	e8 8b 01 00 00       	call   e5d <comsputc>
     cd2:	89 c3                	mov    %eax,%ebx
     cd4:	8d 45 f2             	lea    0xfffffff2(%ebp),%eax
     cd7:	89 04 24             	mov    %eax,(%esp)
     cda:	e8 05 fb ff ff       	call   7e4 <restore>
     cdf:	89 d8                	mov    %ebx,%eax
     ce1:	e9 b1 00 00 00       	jmp    d97 <computc+0x123>
     ce6:	83 ec 0c             	sub    $0xc,%esp
     ce9:	ff 76 24             	pushl  0x24(%esi)
     cec:	e8 a7 5d 00 00       	call   6a98 <wait>
     cf1:	bb 00 00 00 00       	mov    $0x0,%ebx
     cf6:	8a 5e 20             	mov    0x20(%esi),%bl
     cf9:	b8 00 00 00 00       	mov    $0x0,%eax
     cfe:	8a 46 21             	mov    0x21(%esi),%al
     d01:	01 c3                	add    %eax,%ebx
     d03:	83 c4 10             	add    $0x10,%esp
     d06:	89 f8                	mov    %edi,%eax
     d08:	3c 0a                	cmp    $0xa,%al
     d0a:	75 1e                	jne    d2a <computc+0xb6>
     d0c:	83 ec 0c             	sub    $0xc,%esp
     d0f:	ff 76 24             	pushl  0x24(%esi)
     d12:	e8 81 5d 00 00       	call   6a98 <wait>
     d17:	83 c4 10             	add    $0x10,%esp
     d1a:	83 fb 1f             	cmp    $0x1f,%ebx
     d1d:	7e 03                	jle    d22 <computc+0xae>
     d1f:	83 eb 20             	sub    $0x20,%ebx
     d22:	c6 04 1e 0d          	movb   $0xd,(%esi,%ebx,1)
     d26:	fe 46 21             	incb   0x21(%esi)
     d29:	43                   	inc    %ebx
     d2a:	83 fb 1f             	cmp    $0x1f,%ebx
     d2d:	7e 03                	jle    d32 <computc+0xbe>
     d2f:	83 eb 20             	sub    $0x20,%ebx
     d32:	89 fa                	mov    %edi,%edx
     d34:	88 14 1e             	mov    %dl,(%esi,%ebx,1)
     d37:	fe 46 21             	incb   0x21(%esi)
     d3a:	83 ec 08             	sub    $0x8,%esp
     d3d:	6a 0f                	push   $0xf
     d3f:	8b 55 08             	mov    0x8(%ebp),%edx
     d42:	8b 42 2c             	mov    0x2c(%edx),%eax
     d45:	40                   	inc    %eax
     d46:	50                   	push   %eax
     d47:	e8 59 f3 ff ff       	call   a5 <outb>
     d4c:	8b 55 08             	mov    0x8(%ebp),%edx
     d4f:	8b 42 2c             	mov    0x2c(%edx),%eax
     d52:	83 c0 05             	add    $0x5,%eax
     d55:	89 04 24             	mov    %eax,(%esp)
     d58:	e8 2f f3 ff ff       	call   8c <inb>
     d5d:	83 c4 10             	add    $0x10,%esp
     d60:	a8 20                	test   $0x20,%al
     d62:	74 22                	je     d86 <computc+0x112>
     d64:	83 ec 08             	sub    $0x8,%esp
     d67:	8b 45 08             	mov    0x8(%ebp),%eax
     d6a:	ff 70 2c             	pushl  0x2c(%eax)
     d6d:	8b 40 44             	mov    0x44(%eax),%eax
     d70:	8d 14 80             	lea    (%eax,%eax,4),%edx
     d73:	8d 14 50             	lea    (%eax,%edx,2),%edx
     d76:	8d 14 95 80 8b 01 00 	lea    0x18b80(,%edx,4),%edx
     d7d:	52                   	push   %edx
     d7e:	e8 55 03 00 00       	call   10d8 <comwstrt>
     d83:	83 c4 10             	add    $0x10,%esp
     d86:	83 ec 0c             	sub    $0xc,%esp
     d89:	8d 45 f2             	lea    0xfffffff2(%ebp),%eax
     d8c:	50                   	push   %eax
     d8d:	e8 52 fa ff ff       	call   7e4 <restore>
     d92:	b8 01 00 00 00       	mov    $0x1,%eax
     d97:	8d 65 f4             	lea    0xfffffff4(%ebp),%esp
     d9a:	5b                   	pop    %ebx
     d9b:	5e                   	pop    %esi
     d9c:	5f                   	pop    %edi
     d9d:	5d                   	pop    %ebp
     d9e:	c3                   	ret    

00000d9f <comflush>:
     d9f:	55                   	push   %ebp
     da0:	89 e5                	mov    %esp,%ebp
     da2:	57                   	push   %edi
     da3:	56                   	push   %esi
     da4:	53                   	push   %ebx
     da5:	83 ec 18             	sub    $0x18,%esp
     da8:	8b 4d 08             	mov    0x8(%ebp),%ecx
     dab:	8b 41 44             	mov    0x44(%ecx),%eax
     dae:	8d 14 80             	lea    (%eax,%eax,4),%edx
     db1:	8d 14 50             	lea    (%eax,%edx,2),%edx
     db4:	8d 1c 95 80 8b 01 00 	lea    0x18b80(,%edx,4),%ebx
     dbb:	8b 79 2c             	mov    0x2c(%ecx),%edi
     dbe:	8d 47 04             	lea    0x4(%edi),%eax
     dc1:	50                   	push   %eax
     dc2:	e8 c5 f2 ff ff       	call   8c <inb>
     dc7:	83 e0 fd             	and    $0xfffffffd,%eax
     dca:	83 c4 08             	add    $0x8,%esp
     dcd:	50                   	push   %eax
     dce:	8d 47 01             	lea    0x1(%edi),%eax
     dd1:	50                   	push   %eax
     dd2:	e8 ce f2 ff ff       	call   a5 <outb>
     dd7:	83 c4 10             	add    $0x10,%esp
     dda:	8d 77 05             	lea    0x5(%edi),%esi
     ddd:	80 7b 21 00          	cmpb   $0x0,0x21(%ebx)
     de1:	74 51                	je     e34 <comflush+0x95>
     de3:	83 ec 0c             	sub    $0xc,%esp
     de6:	56                   	push   %esi
     de7:	e8 a0 f2 ff ff       	call   8c <inb>
     dec:	83 c4 10             	add    $0x10,%esp
     def:	a8 20                	test   $0x20,%al
     df1:	74 f0                	je     de3 <comflush+0x44>
     df3:	83 ec 08             	sub    $0x8,%esp
     df6:	b8 00 00 00 00       	mov    $0x0,%eax
     dfb:	8a 43 20             	mov    0x20(%ebx),%al
     dfe:	8a 04 03             	mov    (%ebx,%eax,1),%al
     e01:	25 ff 00 00 00       	and    $0xff,%eax
     e06:	50                   	push   %eax
     e07:	57                   	push   %edi
     e08:	e8 98 f2 ff ff       	call   a5 <outb>
     e0d:	fe 43 20             	incb   0x20(%ebx)
     e10:	83 c4 10             	add    $0x10,%esp
     e13:	80 7b 20 1f          	cmpb   $0x1f,0x20(%ebx)
     e17:	76 04                	jbe    e1d <comflush+0x7e>
     e19:	c6 43 20 00          	movb   $0x0,0x20(%ebx)
     e1d:	fe 4b 21             	decb   0x21(%ebx)
     e20:	83 ec 0c             	sub    $0xc,%esp
     e23:	ff 73 24             	pushl  0x24(%ebx)
     e26:	e8 b5 56 00 00       	call   64e0 <signal>
     e2b:	83 c4 10             	add    $0x10,%esp
     e2e:	80 7b 21 00          	cmpb   $0x0,0x21(%ebx)
     e32:	75 af                	jne    de3 <comflush+0x44>
     e34:	83 ec 0c             	sub    $0xc,%esp
     e37:	8d 47 04             	lea    0x4(%edi),%eax
     e3a:	50                   	push   %eax
     e3b:	e8 4c f2 ff ff       	call   8c <inb>
     e40:	83 c8 02             	or     $0x2,%eax
     e43:	83 c4 08             	add    $0x8,%esp
     e46:	50                   	push   %eax
     e47:	8d 47 01             	lea    0x1(%edi),%eax
     e4a:	50                   	push   %eax
     e4b:	e8 55 f2 ff ff       	call   a5 <outb>
     e50:	b8 01 00 00 00       	mov    $0x1,%eax
     e55:	8d 65 f4             	lea    0xfffffff4(%ebp),%esp
     e58:	5b                   	pop    %ebx
     e59:	5e                   	pop    %esi
     e5a:	5f                   	pop    %edi
     e5b:	5d                   	pop    %ebp
     e5c:	c3                   	ret    

00000e5d <comsputc>:
     e5d:	55                   	push   %ebp
     e5e:	89 e5                	mov    %esp,%ebp
     e60:	56                   	push   %esi
     e61:	53                   	push   %ebx
     e62:	83 ec 10             	sub    $0x10,%esp
     e65:	8a 45 0c             	mov    0xc(%ebp),%al
     e68:	88 45 f7             	mov    %al,0xfffffff7(%ebp)
     e6b:	8b 45 08             	mov    0x8(%ebp),%eax
     e6e:	8b 70 2c             	mov    0x2c(%eax),%esi
     e71:	8d 5e 05             	lea    0x5(%esi),%ebx
     e74:	83 ec 0c             	sub    $0xc,%esp
     e77:	53                   	push   %ebx
     e78:	e8 0f f2 ff ff       	call   8c <inb>
     e7d:	83 c4 10             	add    $0x10,%esp
     e80:	a8 20                	test   $0x20,%al
     e82:	74 f0                	je     e74 <comsputc+0x17>
     e84:	83 ec 08             	sub    $0x8,%esp
     e87:	b8 00 00 00 00       	mov    $0x0,%eax
     e8c:	8a 45 f7             	mov    0xfffffff7(%ebp),%al
     e8f:	50                   	push   %eax
     e90:	56                   	push   %esi
     e91:	e8 0f f2 ff ff       	call   a5 <outb>
     e96:	83 c4 10             	add    $0x10,%esp
     e99:	80 7d f7 0a          	cmpb   $0xa,0xfffffff7(%ebp)
     e9d:	75 21                	jne    ec0 <comsputc+0x63>
     e9f:	8d 5e 05             	lea    0x5(%esi),%ebx
     ea2:	83 ec 0c             	sub    $0xc,%esp
     ea5:	53                   	push   %ebx
     ea6:	e8 e1 f1 ff ff       	call   8c <inb>
     eab:	83 c4 10             	add    $0x10,%esp
     eae:	a8 20                	test   $0x20,%al
     eb0:	74 f0                	je     ea2 <comsputc+0x45>
     eb2:	83 ec 08             	sub    $0x8,%esp
     eb5:	6a 0d                	push   $0xd
     eb7:	56                   	push   %esi
     eb8:	e8 e8 f1 ff ff       	call   a5 <outb>
     ebd:	83 c4 10             	add    $0x10,%esp
     ec0:	b8 01 00 00 00       	mov    $0x1,%eax
     ec5:	8d 65 f8             	lea    0xfffffff8(%ebp),%esp
     ec8:	5b                   	pop    %ebx
     ec9:	5e                   	pop    %esi
     eca:	5d                   	pop    %ebp
     ecb:	c3                   	ret    

00000ecc <comwrite>:
     ecc:	55                   	push   %ebp
     ecd:	89 e5                	mov    %esp,%ebp
     ecf:	57                   	push   %edi
     ed0:	56                   	push   %esi
     ed1:	53                   	push   %ebx
     ed2:	83 ec 0c             	sub    $0xc,%esp
     ed5:	8b 7d 08             	mov    0x8(%ebp),%edi
     ed8:	8b 75 0c             	mov    0xc(%ebp),%esi
     edb:	8b 5d 10             	mov    0x10(%ebp),%ebx
     ede:	b8 ff ff ff ff       	mov    $0xffffffff,%eax
     ee3:	85 db                	test   %ebx,%ebx
     ee5:	78 28                	js     f0f <comwrite+0x43>
     ee7:	b8 01 00 00 00       	mov    $0x1,%eax
     eec:	85 db                	test   %ebx,%ebx
     eee:	74 1f                	je     f0f <comwrite+0x43>
     ef0:	85 db                	test   %ebx,%ebx
     ef2:	7e 16                	jle    f0a <comwrite+0x3e>
     ef4:	83 ec 08             	sub    $0x8,%esp
     ef7:	0f be 06             	movsbl (%esi),%eax
     efa:	50                   	push   %eax
     efb:	46                   	inc    %esi
     efc:	57                   	push   %edi
     efd:	e8 72 fd ff ff       	call   c74 <computc>
     f02:	83 c4 10             	add    $0x10,%esp
     f05:	4b                   	dec    %ebx
     f06:	85 db                	test   %ebx,%ebx
     f08:	7f ea                	jg     ef4 <comwrite+0x28>
     f0a:	b8 01 00 00 00       	mov    $0x1,%eax
     f0f:	8d 65 f4             	lea    0xfffffff4(%ebp),%esp
     f12:	5b                   	pop    %ebx
     f13:	5e                   	pop    %esi
     f14:	5f                   	pop    %edi
     f15:	5d                   	pop    %ebp
     f16:	c3                   	ret    
     f17:	90                   	nop    

00000f18 <congetc>:
     f18:	55                   	push   %ebp
     f19:	89 e5                	mov    %esp,%ebp
     f1b:	b8 01 00 00 00       	mov    $0x1,%eax
     f20:	5d                   	pop    %ebp
     f21:	c3                   	ret    

00000f22 <conread>:
     f22:	55                   	push   %ebp
     f23:	89 e5                	mov    %esp,%ebp
     f25:	b8 01 00 00 00       	mov    $0x1,%eax
     f2a:	5d                   	pop    %ebp
     f2b:	c3                   	ret    

00000f2c <comintr>:
     f2c:	55                   	push   %ebp
     f2d:	89 e5                	mov    %esp,%ebp
     f2f:	56                   	push   %esi
     f30:	53                   	push   %ebx
     f31:	83 ec 1c             	sub    $0x1c,%esp
     f34:	8d 45 f6             	lea    0xfffffff6(%ebp),%eax
     f37:	50                   	push   %eax
     f38:	e8 7f f8 ff ff       	call   7bc <disable>
     f3d:	bb 00 00 00 00       	mov    $0x0,%ebx
     f42:	83 c4 10             	add    $0x10,%esp
     f45:	8d 04 9b             	lea    (%ebx,%ebx,4),%eax
     f48:	8d 04 43             	lea    (%ebx,%eax,2),%eax
     f4b:	8b 04 85 a8 8b 01 00 	mov    0x18ba8(,%eax,4),%eax
     f52:	8b 70 2c             	mov    0x2c(%eax),%esi
     f55:	83 ec 0c             	sub    $0xc,%esp
     f58:	8d 46 02             	lea    0x2(%esi),%eax
     f5b:	50                   	push   %eax
     f5c:	e8 2b f1 ff ff       	call   8c <inb>
     f61:	83 c4 10             	add    $0x10,%esp
     f64:	a8 01                	test   $0x1,%al
     f66:	74 06                	je     f6e <comintr+0x42>
     f68:	43                   	inc    %ebx
     f69:	83 fb 01             	cmp    $0x1,%ebx
     f6c:	7e d7                	jle    f45 <comintr+0x19>
     f6e:	83 fb 02             	cmp    $0x2,%ebx
     f71:	75 16                	jne    f89 <comintr+0x5d>
     f73:	83 ec 0c             	sub    $0xc,%esp
     f76:	8d 45 f6             	lea    0xfffffff6(%ebp),%eax
     f79:	50                   	push   %eax
     f7a:	e8 65 f8 ff ff       	call   7e4 <restore>
     f7f:	b8 01 00 00 00       	mov    $0x1,%eax
     f84:	e9 48 01 00 00       	jmp    10d1 <comintr+0x1a5>
     f89:	89 c2                	mov    %eax,%edx
     f8b:	83 e2 06             	and    $0x6,%edx
     f8e:	83 fa 02             	cmp    $0x2,%edx
     f91:	0f 84 da 00 00 00    	je     1071 <comintr+0x145>
     f97:	83 fa 02             	cmp    $0x2,%edx
     f9a:	7f 09                	jg     fa5 <comintr+0x79>
     f9c:	85 d2                	test   %edx,%edx
     f9e:	74 6b                	je     100b <comintr+0xdf>
     fa0:	e9 05 01 00 00       	jmp    10aa <comintr+0x17e>
     fa5:	83 fa 04             	cmp    $0x4,%edx
     fa8:	74 75                	je     101f <comintr+0xf3>
     faa:	83 fa 06             	cmp    $0x6,%edx
     fad:	0f 85 f7 00 00 00    	jne    10aa <comintr+0x17e>
     fb3:	83 ec 0c             	sub    $0xc,%esp
     fb6:	8d 46 05             	lea    0x5(%esi),%eax
     fb9:	50                   	push   %eax
     fba:	e8 cd f0 ff ff       	call   8c <inb>
     fbf:	bb 00 00 00 00       	mov    $0x0,%ebx
     fc4:	88 c3                	mov    %al,%bl
     fc6:	83 c4 10             	add    $0x10,%esp
     fc9:	f6 c3 10             	test   $0x10,%bl
     fcc:	0f 84 ee 00 00 00    	je     10c0 <comintr+0x194>
     fd2:	83 ec 0c             	sub    $0xc,%esp
     fd5:	56                   	push   %esi
     fd6:	e8 b1 f0 ff ff       	call   8c <inb>
     fdb:	83 c4 10             	add    $0x10,%esp
     fde:	f6 c3 02             	test   $0x2,%bl
     fe1:	0f 85 d9 00 00 00    	jne    10c0 <comintr+0x194>
     fe7:	83 ec 0c             	sub    $0xc,%esp
     fea:	68 a0 99 00 00       	push   $0x99a0
     fef:	e8 74 4a 00 00       	call   5a68 <kprintf>
     ff4:	89 f0                	mov    %esi,%eax
     ff6:	25 ff ff 00 00       	and    $0xffff,%eax
     ffb:	89 04 24             	mov    %eax,(%esp)
     ffe:	e8 3d 01 00 00       	call   1140 <monitor>
    1003:	83 c4 10             	add    $0x10,%esp
    1006:	e9 b5 00 00 00       	jmp    10c0 <comintr+0x194>
    100b:	83 ec 0c             	sub    $0xc,%esp
    100e:	8d 46 06             	lea    0x6(%esi),%eax
    1011:	50                   	push   %eax
    1012:	e8 75 f0 ff ff       	call   8c <inb>
    1017:	83 c4 10             	add    $0x10,%esp
    101a:	e9 a1 00 00 00       	jmp    10c0 <comintr+0x194>
    101f:	83 ec 0c             	sub    $0xc,%esp
    1022:	56                   	push   %esi
    1023:	e8 64 f0 ff ff       	call   8c <inb>
    1028:	83 c4 10             	add    $0x10,%esp
    102b:	84 c0                	test   %al,%al
    102d:	75 21                	jne    1050 <comintr+0x124>
    102f:	83 ec 0c             	sub    $0xc,%esp
    1032:	68 bd 99 00 00       	push   $0x99bd
    1037:	e8 2c 4a 00 00       	call   5a68 <kprintf>
    103c:	89 f0                	mov    %esi,%eax
    103e:	25 ff ff 00 00       	and    $0xffff,%eax
    1043:	89 04 24             	mov    %eax,(%esp)
    1046:	e8 f5 00 00 00       	call   1140 <monitor>
    104b:	83 c4 10             	add    $0x10,%esp
    104e:	eb 70                	jmp    10c0 <comintr+0x194>
    1050:	83 ec 08             	sub    $0x8,%esp
    1053:	25 ff 00 00 00       	and    $0xff,%eax
    1058:	50                   	push   %eax
    1059:	8d 04 9b             	lea    (%ebx,%ebx,4),%eax
    105c:	8d 04 43             	lea    (%ebx,%eax,2),%eax
    105f:	8d 04 85 80 8b 01 00 	lea    0x18b80(,%eax,4),%eax
    1066:	50                   	push   %eax
    1067:	e8 7c f8 ff ff       	call   8e8 <comiin>
    106c:	83 c4 10             	add    $0x10,%esp
    106f:	eb 4f                	jmp    10c0 <comintr+0x194>
    1071:	83 ec 0c             	sub    $0xc,%esp
    1074:	8d 46 05             	lea    0x5(%esi),%eax
    1077:	50                   	push   %eax
    1078:	e8 0f f0 ff ff       	call   8c <inb>
    107d:	83 c4 10             	add    $0x10,%esp
    1080:	a8 20                	test   $0x20,%al
    1082:	74 3c                	je     10c0 <comintr+0x194>
    1084:	8d 04 9b             	lea    (%ebx,%ebx,4),%eax
    1087:	8d 04 43             	lea    (%ebx,%eax,2),%eax
    108a:	c1 e0 02             	shl    $0x2,%eax
    108d:	80 b8 a1 8b 01 00 00 	cmpb   $0x0,0x18ba1(%eax)
    1094:	74 2a                	je     10c0 <comintr+0x194>
    1096:	83 ec 08             	sub    $0x8,%esp
    1099:	56                   	push   %esi
    109a:	05 80 8b 01 00       	add    $0x18b80,%eax
    109f:	50                   	push   %eax
    10a0:	e8 33 00 00 00       	call   10d8 <comwstrt>
    10a5:	83 c4 10             	add    $0x10,%esp
    10a8:	eb 16                	jmp    10c0 <comintr+0x194>
    10aa:	83 ec 08             	sub    $0x8,%esp
    10ad:	25 ff 00 00 00       	and    $0xff,%eax
    10b2:	50                   	push   %eax
    10b3:	68 dc 99 00 00       	push   $0x99dc
    10b8:	e8 ab 49 00 00       	call   5a68 <kprintf>
    10bd:	83 c4 10             	add    $0x10,%esp
    10c0:	83 ec 0c             	sub    $0xc,%esp
    10c3:	8d 45 f6             	lea    0xfffffff6(%ebp),%eax
    10c6:	50                   	push   %eax
    10c7:	e8 18 f7 ff ff       	call   7e4 <restore>
    10cc:	b8 01 00 00 00       	mov    $0x1,%eax
    10d1:	8d 65 f8             	lea    0xfffffff8(%ebp),%esp
    10d4:	5b                   	pop    %ebx
    10d5:	5e                   	pop    %esi
    10d6:	5d                   	pop    %ebp
    10d7:	c3                   	ret    

000010d8 <comwstrt>:
    10d8:	55                   	push   %ebp
    10d9:	89 e5                	mov    %esp,%ebp
    10db:	56                   	push   %esi
    10dc:	53                   	push   %ebx
    10dd:	8b 5d 08             	mov    0x8(%ebp),%ebx
    10e0:	8b 75 0c             	mov    0xc(%ebp),%esi
    10e3:	83 ec 08             	sub    $0x8,%esp
    10e6:	b8 00 00 00 00       	mov    $0x0,%eax
    10eb:	8a 43 20             	mov    0x20(%ebx),%al
    10ee:	8a 04 03             	mov    (%ebx,%eax,1),%al
    10f1:	25 ff 00 00 00       	and    $0xff,%eax
    10f6:	50                   	push   %eax
    10f7:	56                   	push   %esi
    10f8:	e8 a8 ef ff ff       	call   a5 <outb>
    10fd:	fe 4b 21             	decb   0x21(%ebx)
    1100:	fe 43 20             	incb   0x20(%ebx)
    1103:	83 c4 10             	add    $0x10,%esp
    1106:	80 7b 21 00          	cmpb   $0x0,0x21(%ebx)
    110a:	75 11                	jne    111d <comwstrt+0x45>
    110c:	83 ec 08             	sub    $0x8,%esp
    110f:	6a 0d                	push   $0xd
    1111:	8d 46 01             	lea    0x1(%esi),%eax
    1114:	50                   	push   %eax
    1115:	e8 8b ef ff ff       	call   a5 <outb>
    111a:	83 c4 10             	add    $0x10,%esp
    111d:	80 7b 20 1f          	cmpb   $0x1f,0x20(%ebx)
    1121:	76 04                	jbe    1127 <comwstrt+0x4f>
    1123:	c6 43 20 00          	movb   $0x0,0x20(%ebx)
    1127:	83 ec 0c             	sub    $0xc,%esp
    112a:	ff 73 24             	pushl  0x24(%ebx)
    112d:	e8 ae 53 00 00       	call   64e0 <signal>
    1132:	b8 01 00 00 00       	mov    $0x1,%eax
    1137:	8d 65 f8             	lea    0xfffffff8(%ebp),%esp
    113a:	5b                   	pop    %ebx
    113b:	5e                   	pop    %esi
    113c:	5d                   	pop    %ebp
    113d:	c3                   	ret    
    113e:	90                   	nop    
    113f:	90                   	nop    

00001140 <monitor>:
    1140:	55                   	push   %ebp
    1141:	89 e5                	mov    %esp,%ebp
    1143:	57                   	push   %edi
    1144:	56                   	push   %esi
    1145:	53                   	push   %ebx
    1146:	83 ec 68             	sub    $0x68,%esp
    1149:	8b 5d 08             	mov    0x8(%ebp),%ebx
    114c:	bf 00 00 00 00       	mov    $0x0,%edi
    1151:	68 00 9a 00 00       	push   $0x9a00
    1156:	e8 0d 49 00 00       	call   5a68 <kprintf>
    115b:	83 c4 08             	add    $0x8,%esp
    115e:	68 e8 9a 00 00       	push   $0x9ae8
    1163:	68 f3 9a 00 00       	push   $0x9af3
    1168:	e8 fb 48 00 00       	call   5a68 <kprintf>
    116d:	83 c4 10             	add    $0x10,%esp
    1170:	89 de                	mov    %ebx,%esi
    1172:	81 e6 ff ff 00 00    	and    $0xffff,%esi
    1178:	83 ec 0c             	sub    $0xc,%esp
    117b:	8d 46 05             	lea    0x5(%esi),%eax
    117e:	50                   	push   %eax
    117f:	e8 08 ef ff ff       	call   8c <inb>
    1184:	83 c4 10             	add    $0x10,%esp
    1187:	a8 10                	test   $0x10,%al
    1189:	74 20                	je     11ab <monitor+0x6b>
    118b:	83 ec 0c             	sub    $0xc,%esp
    118e:	56                   	push   %esi
    118f:	e8 f8 ee ff ff       	call   8c <inb>
    1194:	83 c4 08             	add    $0x8,%esp
    1197:	68 e8 9a 00 00       	push   $0x9ae8
    119c:	68 f3 9a 00 00       	push   $0x9af3
    11a1:	e8 c2 48 00 00       	call   5a68 <kprintf>
    11a6:	83 c4 10             	add    $0x10,%esp
    11a9:	eb cd                	jmp    1178 <monitor+0x38>
    11ab:	a8 01                	test   $0x1,%al
    11ad:	74 c9                	je     1178 <monitor+0x38>
    11af:	83 ec 0c             	sub    $0xc,%esp
    11b2:	56                   	push   %esi
    11b3:	e8 d4 ee ff ff       	call   8c <inb>
    11b8:	88 c3                	mov    %al,%bl
    11ba:	83 c4 10             	add    $0x10,%esp
    11bd:	b8 00 00 00 00       	mov    $0x0,%eax
    11c2:	88 d8                	mov    %bl,%al
    11c4:	83 f8 08             	cmp    $0x8,%eax
    11c7:	0f 84 9b 00 00 00    	je     1268 <monitor+0x128>
    11cd:	83 f8 08             	cmp    $0x8,%eax
    11d0:	7f 09                	jg     11db <monitor+0x9b>
    11d2:	85 c0                	test   %eax,%eax
    11d4:	74 0f                	je     11e5 <monitor+0xa5>
    11d6:	e9 ce 00 00 00       	jmp    12a9 <monitor+0x169>
    11db:	83 f8 0d             	cmp    $0xd,%eax
    11de:	74 1f                	je     11ff <monitor+0xbf>
    11e0:	e9 c4 00 00 00       	jmp    12a9 <monitor+0x169>
    11e5:	83 ec 08             	sub    $0x8,%esp
    11e8:	68 e8 9a 00 00       	push   $0x9ae8
    11ed:	68 f3 9a 00 00       	push   $0x9af3
    11f2:	e8 71 48 00 00       	call   5a68 <kprintf>
    11f7:	83 c4 10             	add    $0x10,%esp
    11fa:	e9 79 ff ff ff       	jmp    1178 <monitor+0x38>
    11ff:	85 ff                	test   %edi,%edi
    1201:	7e 4b                	jle    124e <monitor+0x10e>
    1203:	83 ec 08             	sub    $0x8,%esp
    1206:	b8 00 00 00 00       	mov    $0x0,%eax
    120b:	88 d8                	mov    %bl,%al
    120d:	50                   	push   %eax
    120e:	ff 35 68 7f 01 00    	pushl  0x17f68
    1214:	e8 87 48 00 00       	call   5aa0 <kputc>
    1219:	83 c4 08             	add    $0x8,%esp
    121c:	6a 0a                	push   $0xa
    121e:	ff 35 68 7f 01 00    	pushl  0x17f68
    1224:	e8 77 48 00 00       	call   5aa0 <kputc>
    1229:	c6 44 3d 98 00       	movb   $0x0,0xffffff98(%ebp,%edi,1)
    122e:	8d 45 98             	lea    0xffffff98(%ebp),%eax
    1231:	89 04 24             	mov    %eax,(%esp)
    1234:	e8 a9 00 00 00       	call   12e2 <mon_cmd>
    1239:	83 c4 10             	add    $0x10,%esp
    123c:	85 c0                	test   %eax,%eax
    123e:	0f 85 91 00 00 00    	jne    12d5 <monitor+0x195>
    1244:	bf 00 00 00 00       	mov    $0x0,%edi
    1249:	e9 2a ff ff ff       	jmp    1178 <monitor+0x38>
    124e:	83 ec 08             	sub    $0x8,%esp
    1251:	68 e8 9a 00 00       	push   $0x9ae8
    1256:	68 f2 9a 00 00       	push   $0x9af2
    125b:	e8 08 48 00 00       	call   5a68 <kprintf>
    1260:	83 c4 10             	add    $0x10,%esp
    1263:	e9 10 ff ff ff       	jmp    1178 <monitor+0x38>
    1268:	85 ff                	test   %edi,%edi
    126a:	0f 8e 08 ff ff ff    	jle    1178 <monitor+0x38>
    1270:	83 ec 08             	sub    $0x8,%esp
    1273:	6a 08                	push   $0x8
    1275:	ff 35 68 7f 01 00    	pushl  0x17f68
    127b:	e8 20 48 00 00       	call   5aa0 <kputc>
    1280:	83 c4 08             	add    $0x8,%esp
    1283:	6a 20                	push   $0x20
    1285:	ff 35 68 7f 01 00    	pushl  0x17f68
    128b:	e8 10 48 00 00       	call   5aa0 <kputc>
    1290:	83 c4 08             	add    $0x8,%esp
    1293:	6a 08                	push   $0x8
    1295:	ff 35 68 7f 01 00    	pushl  0x17f68
    129b:	e8 00 48 00 00       	call   5aa0 <kputc>
    12a0:	4f                   	dec    %edi
    12a1:	83 c4 10             	add    $0x10,%esp
    12a4:	e9 cf fe ff ff       	jmp    1178 <monitor+0x38>
    12a9:	83 ec 08             	sub    $0x8,%esp
    12ac:	b8 00 00 00 00       	mov    $0x0,%eax
    12b1:	88 d8                	mov    %bl,%al
    12b3:	50                   	push   %eax
    12b4:	ff 35 68 7f 01 00    	pushl  0x17f68
    12ba:	e8 e1 47 00 00       	call   5aa0 <kputc>
    12bf:	83 c4 10             	add    $0x10,%esp
    12c2:	83 ff 4e             	cmp    $0x4e,%edi
    12c5:	0f 8f ad fe ff ff    	jg     1178 <monitor+0x38>
    12cb:	88 5c 2f 98          	mov    %bl,0xffffff98(%edi,%ebp,1)
    12cf:	47                   	inc    %edi
    12d0:	e9 a3 fe ff ff       	jmp    1178 <monitor+0x38>
    12d5:	b8 01 00 00 00       	mov    $0x1,%eax
    12da:	8d 65 f4             	lea    0xfffffff4(%ebp),%esp
    12dd:	5b                   	pop    %ebx
    12de:	5e                   	pop    %esi
    12df:	5f                   	pop    %edi
    12e0:	5d                   	pop    %ebp
    12e1:	c3                   	ret    

000012e2 <mon_cmd>:
    12e2:	55                   	push   %ebp
    12e3:	89 e5                	mov    %esp,%ebp
    12e5:	53                   	push   %ebx
    12e6:	83 ec 0c             	sub    $0xc,%esp
    12e9:	8b 5d 08             	mov    0x8(%ebp),%ebx
    12ec:	68 f6 9a 00 00       	push   $0x9af6
    12f1:	53                   	push   %ebx
    12f2:	e8 f9 84 00 00       	call   97f0 <strcmp>
    12f7:	83 c4 10             	add    $0x10,%esp
    12fa:	85 c0                	test   %eax,%eax
    12fc:	0f 85 8f 00 00 00    	jne    1391 <mon_cmd+0xaf>
    1302:	66 8b 1d 7c 8f 01 00 	mov    0x18f7c,%bx
    1309:	83 ec 08             	sub    $0x8,%esp
    130c:	6a 20                	push   $0x20
    130e:	68 f2 05 00 00       	push   $0x5f2
    1313:	e8 4c 48 00 00       	call   5b64 <mkpool>
    1318:	a3 d8 8b 01 00       	mov    %eax,0x18bd8
    131d:	e8 12 12 00 00       	call   2534 <mon_ethinit>
    1322:	e8 81 01 00 00       	call   14a8 <mon_arpinit>
    1327:	e8 8e 08 00 00       	call   1bba <mon_netinit>
    132c:	c7 04 24 f8 9a 00 00 	movl   $0x9af8,(%esp)
    1333:	e8 30 47 00 00       	call   5a68 <kprintf>
    1338:	e8 43 20 00 00       	call   3380 <boot_xinu>
    133d:	83 c4 10             	add    $0x10,%esp
    1340:	83 f8 ff             	cmp    $0xffffffff,%eax
    1343:	0f 85 00 01 00 00    	jne    1449 <mon_cmd+0x167>
    1349:	83 ec 0c             	sub    $0xc,%esp
    134c:	8d 45 fa             	lea    0xfffffffa(%ebp),%eax
    134f:	50                   	push   %eax
    1350:	e8 67 f4 ff ff       	call   7bc <disable>
    1355:	83 c4 08             	add    $0x8,%esp
    1358:	68 12 08 00 00       	push   $0x812
    135d:	6a 20                	push   $0x20
    135f:	e8 7e 35 00 00       	call   48e2 <set_evec>
    1364:	66 89 1d 7c 8f 01 00 	mov    %bx,0x18f7c
    136b:	c7 04 24 48 9a 00 00 	movl   $0x9a48,(%esp)
    1372:	e8 f1 46 00 00       	call   5a68 <kprintf>
    1377:	83 c4 08             	add    $0x8,%esp
    137a:	68 e8 9a 00 00       	push   $0x9ae8
    137f:	68 f3 9a 00 00       	push   $0x9af3
    1384:	e8 df 46 00 00       	call   5a68 <kprintf>
    1389:	83 c4 10             	add    $0x10,%esp
    138c:	e9 b8 00 00 00       	jmp    1449 <mon_cmd+0x167>
    1391:	83 ec 08             	sub    $0x8,%esp
    1394:	68 0a 9b 00 00       	push   $0x9b0a
    1399:	53                   	push   %ebx
    139a:	e8 51 84 00 00       	call   97f0 <strcmp>
    139f:	83 c4 10             	add    $0x10,%esp
    13a2:	ba 01 00 00 00       	mov    $0x1,%edx
    13a7:	85 c0                	test   %eax,%eax
    13a9:	0f 84 9f 00 00 00    	je     144e <mon_cmd+0x16c>
    13af:	83 ec 08             	sub    $0x8,%esp
    13b2:	68 b0 a2 00 00       	push   $0xa2b0
    13b7:	53                   	push   %ebx
    13b8:	e8 33 84 00 00       	call   97f0 <strcmp>
    13bd:	83 c4 10             	add    $0x10,%esp
    13c0:	85 c0                	test   %eax,%eax
    13c2:	75 07                	jne    13cb <mon_cmd+0xe9>
    13c4:	e8 54 ec ff ff       	call   1d <start>
    13c9:	eb 7e                	jmp    1449 <mon_cmd+0x167>
    13cb:	83 ec 08             	sub    $0x8,%esp
    13ce:	68 0c 9b 00 00       	push   $0x9b0c
    13d3:	53                   	push   %ebx
    13d4:	e8 17 84 00 00       	call   97f0 <strcmp>
    13d9:	83 c4 10             	add    $0x10,%esp
    13dc:	85 c0                	test   %eax,%eax
    13de:	74 2a                	je     140a <mon_cmd+0x128>
    13e0:	83 ec 08             	sub    $0x8,%esp
    13e3:	68 0e 9b 00 00       	push   $0x9b0e
    13e8:	53                   	push   %ebx
    13e9:	e8 02 84 00 00       	call   97f0 <strcmp>
    13ee:	83 c4 10             	add    $0x10,%esp
    13f1:	85 c0                	test   %eax,%eax
    13f3:	74 15                	je     140a <mon_cmd+0x128>
    13f5:	83 ec 08             	sub    $0x8,%esp
    13f8:	68 10 9b 00 00       	push   $0x9b10
    13fd:	53                   	push   %ebx
    13fe:	e8 ed 83 00 00       	call   97f0 <strcmp>
    1403:	83 c4 10             	add    $0x10,%esp
    1406:	85 c0                	test   %eax,%eax
    1408:	75 1c                	jne    1426 <mon_cmd+0x144>
    140a:	e8 46 00 00 00       	call   1455 <mon_help>
    140f:	83 ec 08             	sub    $0x8,%esp
    1412:	68 e8 9a 00 00       	push   $0x9ae8
    1417:	68 f3 9a 00 00       	push   $0x9af3
    141c:	e8 47 46 00 00       	call   5a68 <kprintf>
    1421:	83 c4 10             	add    $0x10,%esp
    1424:	eb 23                	jmp    1449 <mon_cmd+0x167>
    1426:	83 ec 08             	sub    $0x8,%esp
    1429:	53                   	push   %ebx
    142a:	68 74 9a 00 00       	push   $0x9a74
    142f:	e8 34 46 00 00       	call   5a68 <kprintf>
    1434:	83 c4 08             	add    $0x8,%esp
    1437:	68 e8 9a 00 00       	push   $0x9ae8
    143c:	68 f3 9a 00 00       	push   $0x9af3
    1441:	e8 22 46 00 00       	call   5a68 <kprintf>
    1446:	83 c4 10             	add    $0x10,%esp
    1449:	ba 00 00 00 00       	mov    $0x0,%edx
    144e:	89 d0                	mov    %edx,%eax
    1450:	8b 5d fc             	mov    0xfffffffc(%ebp),%ebx
    1453:	c9                   	leave  
    1454:	c3                   	ret    

00001455 <mon_help>:
    1455:	55                   	push   %ebp
    1456:	89 e5                	mov    %esp,%ebp
    1458:	83 ec 14             	sub    $0x14,%esp
    145b:	68 a0 9a 00 00       	push   $0x9aa0
    1460:	e8 03 46 00 00       	call   5a68 <kprintf>
    1465:	c7 04 24 15 9b 00 00 	movl   $0x9b15,(%esp)
    146c:	e8 f7 45 00 00       	call   5a68 <kprintf>
    1471:	c7 04 24 1f 9b 00 00 	movl   $0x9b1f,(%esp)
    1478:	e8 eb 45 00 00       	call   5a68 <kprintf>
    147d:	c7 04 24 39 9b 00 00 	movl   $0x9b39,(%esp)
    1484:	e8 df 45 00 00       	call   5a68 <kprintf>
    1489:	c7 04 24 4f 9b 00 00 	movl   $0x9b4f,(%esp)
    1490:	e8 d3 45 00 00       	call   5a68 <kprintf>
    1495:	c7 04 24 c4 9a 00 00 	movl   $0x9ac4,(%esp)
    149c:	e8 c7 45 00 00       	call   5a68 <kprintf>
    14a1:	b8 01 00 00 00       	mov    $0x1,%eax
    14a6:	c9                   	leave  
    14a7:	c3                   	ret    

000014a8 <mon_arpinit>:
    14a8:	55                   	push   %ebp
    14a9:	89 e5                	mov    %esp,%ebp
    14ab:	ba 00 00 00 00       	mov    $0x0,%edx
    14b0:	89 d0                	mov    %edx,%eax
    14b2:	c1 e0 04             	shl    $0x4,%eax
    14b5:	66 c7 80 e0 8b 01 00 	movw   $0x0,0x18be0(%eax)
    14bc:	00 00 
    14be:	42                   	inc    %edx
    14bf:	83 fa 02             	cmp    $0x2,%edx
    14c2:	7e ec                	jle    14b0 <mon_arpinit+0x8>
    14c4:	5d                   	pop    %ebp
    14c5:	c3                   	ret    

000014c6 <mon_arp_in>:
    14c6:	55                   	push   %ebp
    14c7:	89 e5                	mov    %esp,%ebp
    14c9:	57                   	push   %edi
    14ca:	56                   	push   %esi
    14cb:	53                   	push   %ebx
    14cc:	83 ec 0c             	sub    $0xc,%esp
    14cf:	8b 7d 0c             	mov    0xc(%ebp),%edi
    14d2:	8d 77 16             	lea    0x16(%edi),%esi
    14d5:	ba 00 00 00 00       	mov    $0x0,%edx
    14da:	8a 57 17             	mov    0x17(%edi),%dl
    14dd:	b8 00 00 00 00       	mov    $0x0,%eax
    14e2:	8a 47 16             	mov    0x16(%edi),%al
    14e5:	c1 e0 08             	shl    $0x8,%eax
    14e8:	09 c2                	or     %eax,%edx
    14ea:	66 89 57 16          	mov    %dx,0x16(%edi)
    14ee:	ba 00 00 00 00       	mov    $0x0,%edx
    14f3:	8a 56 03             	mov    0x3(%esi),%dl
    14f6:	b8 00 00 00 00       	mov    $0x0,%eax
    14fb:	8a 46 02             	mov    0x2(%esi),%al
    14fe:	c1 e0 08             	shl    $0x8,%eax
    1501:	09 c2                	or     %eax,%edx
    1503:	66 89 56 02          	mov    %dx,0x2(%esi)
    1507:	ba 00 00 00 00       	mov    $0x0,%edx
    150c:	8a 56 07             	mov    0x7(%esi),%dl
    150f:	b8 00 00 00 00       	mov    $0x0,%eax
    1514:	8a 46 06             	mov    0x6(%esi),%al
    1517:	c1 e0 08             	shl    $0x8,%eax
    151a:	09 c2                	or     %eax,%edx
    151c:	66 89 56 06          	mov    %dx,0x6(%esi)
    1520:	66 83 7f 16 01       	cmpw   $0x1,0x16(%edi)
    1525:	75 08                	jne    152f <mon_arp_in+0x69>
    1527:	66 81 7e 02 00 08    	cmpw   $0x800,0x2(%esi)
    152d:	74 13                	je     1542 <mon_arp_in+0x7c>
    152f:	83 ec 0c             	sub    $0xc,%esp
    1532:	57                   	push   %edi
    1533:	e8 d4 35 00 00       	call   4b0c <freebuf>
    1538:	b8 01 00 00 00       	mov    $0x1,%eax
    153d:	e9 e7 01 00 00       	jmp    1729 <mon_arp_in+0x263>
    1542:	83 ec 0c             	sub    $0xc,%esp
    1545:	0f be 46 04          	movsbl 0x4(%esi),%eax
    1549:	8d 44 30 08          	lea    0x8(%eax,%esi,1),%eax
    154d:	50                   	push   %eax
    154e:	e8 0f 02 00 00       	call   1762 <mon_arpfind>
    1553:	89 c3                	mov    %eax,%ebx
    1555:	83 c4 10             	add    $0x10,%esp
    1558:	85 c0                	test   %eax,%eax
    155a:	74 15                	je     1571 <mon_arp_in+0xab>
    155c:	83 ec 04             	sub    $0x4,%esp
    155f:	6a 06                	push   $0x6
    1561:	8d 46 08             	lea    0x8(%esi),%eax
    1564:	50                   	push   %eax
    1565:	8d 43 02             	lea    0x2(%ebx),%eax
    1568:	50                   	push   %eax
    1569:	e8 f2 7a 00 00       	call   9060 <blkcopy>
    156e:	83 c4 10             	add    $0x10,%esp
    1571:	83 ec 04             	sub    $0x4,%esp
    1574:	6a 04                	push   $0x4
    1576:	8b 45 08             	mov    0x8(%ebp),%eax
    1579:	83 c0 04             	add    $0x4,%eax
    157c:	50                   	push   %eax
    157d:	0f be 46 04          	movsbl 0x4(%esi),%eax
    1581:	0f be 56 05          	movsbl 0x5(%esi),%edx
    1585:	8d 04 42             	lea    (%edx,%eax,2),%eax
    1588:	8d 44 06 08          	lea    0x8(%esi,%eax,1),%eax
    158c:	50                   	push   %eax
    158d:	e8 47 08 00 00       	call   1dd9 <mon_blkequ>
    1592:	83 c4 10             	add    $0x10,%esp
    1595:	85 c0                	test   %eax,%eax
    1597:	75 13                	jne    15ac <mon_arp_in+0xe6>
    1599:	83 ec 0c             	sub    $0xc,%esp
    159c:	57                   	push   %edi
    159d:	e8 6a 35 00 00       	call   4b0c <freebuf>
    15a2:	b8 01 00 00 00       	mov    $0x1,%eax
    15a7:	e9 7d 01 00 00       	jmp    1729 <mon_arp_in+0x263>
    15ac:	85 db                	test   %ebx,%ebx
    15ae:	75 3f                	jne    15ef <mon_arp_in+0x129>
    15b0:	e8 7c 01 00 00       	call   1731 <mon_arpalloc>
    15b5:	89 c3                	mov    %eax,%ebx
    15b7:	c7 40 0c 00 00 00 00 	movl   $0x0,0xc(%eax)
    15be:	83 ec 04             	sub    $0x4,%esp
    15c1:	6a 06                	push   $0x6
    15c3:	8d 46 08             	lea    0x8(%esi),%eax
    15c6:	50                   	push   %eax
    15c7:	8d 43 02             	lea    0x2(%ebx),%eax
    15ca:	50                   	push   %eax
    15cb:	e8 90 7a 00 00       	call   9060 <blkcopy>
    15d0:	83 c4 0c             	add    $0xc,%esp
    15d3:	6a 04                	push   $0x4
    15d5:	0f be 46 04          	movsbl 0x4(%esi),%eax
    15d9:	8d 44 30 08          	lea    0x8(%eax,%esi,1),%eax
    15dd:	50                   	push   %eax
    15de:	8d 43 08             	lea    0x8(%ebx),%eax
    15e1:	50                   	push   %eax
    15e2:	e8 79 7a 00 00       	call   9060 <blkcopy>
    15e7:	66 c7 03 02 00       	movw   $0x2,(%ebx)
    15ec:	83 c4 10             	add    $0x10,%esp
    15ef:	66 83 3b 01          	cmpw   $0x1,(%ebx)
    15f3:	75 28                	jne    161d <mon_arp_in+0x157>
    15f5:	66 c7 03 02 00       	movw   $0x2,(%ebx)
    15fa:	83 7b 0c 00          	cmpl   $0x0,0xc(%ebx)
    15fe:	74 1d                	je     161d <mon_arp_in+0x157>
    1600:	83 ec 08             	sub    $0x8,%esp
    1603:	8b 43 0c             	mov    0xc(%ebx),%eax
    1606:	0f bf 40 06          	movswl 0x6(%eax),%eax
    160a:	50                   	push   %eax
    160b:	ff 73 0c             	pushl  0xc(%ebx)
    160e:	e8 6a 06 00 00       	call   1c7d <mon_netwrite>
    1613:	c7 43 0c 00 00 00 00 	movl   $0x0,0xc(%ebx)
    161a:	83 c4 10             	add    $0x10,%esp
    161d:	66 83 7e 06 01       	cmpw   $0x1,0x6(%esi)
    1622:	0f 85 f0 00 00 00    	jne    1718 <mon_arp_in+0x252>
    1628:	66 c7 46 06 02 00    	movw   $0x2,0x6(%esi)
    162e:	83 ec 04             	sub    $0x4,%esp
    1631:	0f be 4e 05          	movsbl 0x5(%esi),%ecx
    1635:	51                   	push   %ecx
    1636:	0f be 46 04          	movsbl 0x4(%esi),%eax
    163a:	8d 54 30 08          	lea    0x8(%eax,%esi,1),%edx
    163e:	52                   	push   %edx
    163f:	8d 04 41             	lea    (%ecx,%eax,2),%eax
    1642:	8d 44 06 08          	lea    0x8(%esi,%eax,1),%eax
    1646:	50                   	push   %eax
    1647:	e8 14 7a 00 00       	call   9060 <blkcopy>
    164c:	83 c4 0c             	add    $0xc,%esp
    164f:	0f be 56 04          	movsbl 0x4(%esi),%edx
    1653:	52                   	push   %edx
    1654:	8d 5e 08             	lea    0x8(%esi),%ebx
    1657:	53                   	push   %ebx
    1658:	0f be 46 05          	movsbl 0x5(%esi),%eax
    165c:	01 c2                	add    %eax,%edx
    165e:	8d 44 16 08          	lea    0x8(%esi,%edx,1),%eax
    1662:	50                   	push   %eax
    1663:	e8 f8 79 00 00       	call   9060 <blkcopy>
    1668:	83 c4 0c             	add    $0xc,%esp
    166b:	6a 06                	push   $0x6
    166d:	0f be 46 04          	movsbl 0x4(%esi),%eax
    1671:	0f be 56 05          	movsbl 0x5(%esi),%edx
    1675:	01 d0                	add    %edx,%eax
    1677:	8d 44 06 08          	lea    0x8(%esi,%eax,1),%eax
    167b:	50                   	push   %eax
    167c:	8d 47 08             	lea    0x8(%edi),%eax
    167f:	50                   	push   %eax
    1680:	e8 db 79 00 00       	call   9060 <blkcopy>
    1685:	83 c4 0c             	add    $0xc,%esp
    1688:	6a 06                	push   $0x6
    168a:	8b 45 08             	mov    0x8(%ebp),%eax
    168d:	83 c0 08             	add    $0x8,%eax
    1690:	50                   	push   %eax
    1691:	53                   	push   %ebx
    1692:	e8 c9 79 00 00       	call   9060 <blkcopy>
    1697:	83 c4 0c             	add    $0xc,%esp
    169a:	6a 04                	push   $0x4
    169c:	8b 45 08             	mov    0x8(%ebp),%eax
    169f:	83 c0 04             	add    $0x4,%eax
    16a2:	50                   	push   %eax
    16a3:	0f be 46 04          	movsbl 0x4(%esi),%eax
    16a7:	8d 44 30 08          	lea    0x8(%eax,%esi,1),%eax
    16ab:	50                   	push   %eax
    16ac:	e8 af 79 00 00       	call   9060 <blkcopy>
    16b1:	ba 00 00 00 00       	mov    $0x0,%edx
    16b6:	8a 56 01             	mov    0x1(%esi),%dl
    16b9:	b8 00 00 00 00       	mov    $0x0,%eax
    16be:	8a 06                	mov    (%esi),%al
    16c0:	c1 e0 08             	shl    $0x8,%eax
    16c3:	09 c2                	or     %eax,%edx
    16c5:	66 89 16             	mov    %dx,(%esi)
    16c8:	ba 00 00 00 00       	mov    $0x0,%edx
    16cd:	8a 56 03             	mov    0x3(%esi),%dl
    16d0:	b8 00 00 00 00       	mov    $0x0,%eax
    16d5:	8a 46 02             	mov    0x2(%esi),%al
    16d8:	c1 e0 08             	shl    $0x8,%eax
    16db:	09 c2                	or     %eax,%edx
    16dd:	66 89 56 02          	mov    %dx,0x2(%esi)
    16e1:	ba 00 00 00 00       	mov    $0x0,%edx
    16e6:	8a 56 07             	mov    0x7(%esi),%dl
    16e9:	b8 00 00 00 00       	mov    $0x0,%eax
    16ee:	8a 46 06             	mov    0x6(%esi),%al
    16f1:	c1 e0 08             	shl    $0x8,%eax
    16f4:	09 c2                	or     %eax,%edx
    16f6:	66 89 56 06          	mov    %dx,0x6(%esi)
    16fa:	0f be 46 05          	movsbl 0x5(%esi),%eax
    16fe:	0f be 56 04          	movsbl 0x4(%esi),%edx
    1702:	01 d0                	add    %edx,%eax
    1704:	8d 44 00 08          	lea    0x8(%eax,%eax,1),%eax
    1708:	83 c4 08             	add    $0x8,%esp
    170b:	50                   	push   %eax
    170c:	57                   	push   %edi
    170d:	ff 15 88 8c 01 00    	call   *0x18c88
    1713:	83 c4 10             	add    $0x10,%esp
    1716:	eb 0c                	jmp    1724 <mon_arp_in+0x25e>
    1718:	83 ec 0c             	sub    $0xc,%esp
    171b:	57                   	push   %edi
    171c:	e8 eb 33 00 00       	call   4b0c <freebuf>
    1721:	83 c4 10             	add    $0x10,%esp
    1724:	b8 01 00 00 00       	mov    $0x1,%eax
    1729:	8d 65 f4             	lea    0xfffffff4(%ebp),%esp
    172c:	5b                   	pop    %ebx
    172d:	5e                   	pop    %esi
    172e:	5f                   	pop    %edi
    172f:	5d                   	pop    %ebp
    1730:	c3                   	ret    

00001731 <mon_arpalloc>:
    1731:	55                   	push   %ebp
    1732:	89 e5                	mov    %esp,%ebp
    1734:	ba 00 00 00 00       	mov    $0x0,%edx
    1739:	89 d0                	mov    %edx,%eax
    173b:	c1 e0 04             	shl    $0x4,%eax
    173e:	8d 88 e0 8b 01 00    	lea    0x18be0(%eax),%ecx
    1744:	66 83 b8 e0 8b 01 00 	cmpw   $0x0,0x18be0(%eax)
    174b:	00 
    174c:	74 06                	je     1754 <mon_arpalloc+0x23>
    174e:	42                   	inc    %edx
    174f:	83 fa 02             	cmp    $0x2,%edx
    1752:	7e e5                	jle    1739 <mon_arpalloc+0x8>
    1754:	83 fa 03             	cmp    $0x3,%edx
    1757:	75 05                	jne    175e <mon_arpalloc+0x2d>
    1759:	b9 e0 8b 01 00       	mov    $0x18be0,%ecx
    175e:	89 c8                	mov    %ecx,%eax
    1760:	5d                   	pop    %ebp
    1761:	c3                   	ret    

00001762 <mon_arpfind>:
    1762:	55                   	push   %ebp
    1763:	89 e5                	mov    %esp,%ebp
    1765:	57                   	push   %edi
    1766:	56                   	push   %esi
    1767:	53                   	push   %ebx
    1768:	83 ec 0c             	sub    $0xc,%esp
    176b:	8b 7d 08             	mov    0x8(%ebp),%edi
    176e:	bb 00 00 00 00       	mov    $0x0,%ebx
    1773:	89 d8                	mov    %ebx,%eax
    1775:	c1 e0 04             	shl    $0x4,%eax
    1778:	8d b0 e0 8b 01 00    	lea    0x18be0(%eax),%esi
    177e:	66 83 b8 e0 8b 01 00 	cmpw   $0x0,0x18be0(%eax)
    1785:	00 
    1786:	74 1a                	je     17a2 <mon_arpfind+0x40>
    1788:	83 ec 04             	sub    $0x4,%esp
    178b:	6a 04                	push   $0x4
    178d:	57                   	push   %edi
    178e:	8d 46 08             	lea    0x8(%esi),%eax
    1791:	50                   	push   %eax
    1792:	e8 42 06 00 00       	call   1dd9 <mon_blkequ>
    1797:	83 c4 10             	add    $0x10,%esp
    179a:	85 c0                	test   %eax,%eax
    179c:	74 04                	je     17a2 <mon_arpfind+0x40>
    179e:	89 f0                	mov    %esi,%eax
    17a0:	eb 0b                	jmp    17ad <mon_arpfind+0x4b>
    17a2:	43                   	inc    %ebx
    17a3:	83 fb 02             	cmp    $0x2,%ebx
    17a6:	7e cb                	jle    1773 <mon_arpfind+0x11>
    17a8:	b8 00 00 00 00       	mov    $0x0,%eax
    17ad:	8d 65 f4             	lea    0xfffffff4(%ebp),%esp
    17b0:	5b                   	pop    %ebx
    17b1:	5e                   	pop    %esi
    17b2:	5f                   	pop    %edi
    17b3:	5d                   	pop    %ebp
    17b4:	c3                   	ret    

000017b5 <mon_arpsend>:
    17b5:	55                   	push   %ebp
    17b6:	89 e5                	mov    %esp,%ebp
    17b8:	57                   	push   %edi
    17b9:	56                   	push   %esi
    17ba:	53                   	push   %ebx
    17bb:	83 ec 18             	sub    $0x18,%esp
    17be:	bf 74 8c 01 00       	mov    $0x18c74,%edi
    17c3:	ff 35 70 8c 01 00    	pushl  0x18c70
    17c9:	e8 ce 34 00 00       	call   4c9c <getbuf>
    17ce:	89 c6                	mov    %eax,%esi
    17d0:	83 c4 10             	add    $0x10,%esp
    17d3:	b8 ff ff ff ff       	mov    $0xffffffff,%eax
    17d8:	83 fe ff             	cmp    $0xffffffff,%esi
    17db:	0f 84 b6 00 00 00    	je     1897 <mon_arpsend+0xe2>
    17e1:	83 ec 04             	sub    $0x4,%esp
    17e4:	6a 06                	push   $0x6
    17e6:	8d 47 0e             	lea    0xe(%edi),%eax
    17e9:	50                   	push   %eax
    17ea:	8d 46 08             	lea    0x8(%esi),%eax
    17ed:	50                   	push   %eax
    17ee:	e8 6d 78 00 00       	call   9060 <blkcopy>
    17f3:	66 c7 46 14 06 08    	movw   $0x806,0x14(%esi)
    17f9:	8d 5e 16             	lea    0x16(%esi),%ebx
    17fc:	66 c7 46 16 00 01    	movw   $0x100,0x16(%esi)
    1802:	66 c7 43 02 08 00    	movw   $0x8,0x2(%ebx)
    1808:	c6 43 04 06          	movb   $0x6,0x4(%ebx)
    180c:	c6 43 05 04          	movb   $0x4,0x5(%ebx)
    1810:	66 c7 43 06 00 01    	movw   $0x100,0x6(%ebx)
    1816:	83 c4 0c             	add    $0xc,%esp
    1819:	6a 06                	push   $0x6
    181b:	8d 47 08             	lea    0x8(%edi),%eax
    181e:	50                   	push   %eax
    181f:	8d 46 1e             	lea    0x1e(%esi),%eax
    1822:	50                   	push   %eax
    1823:	e8 38 78 00 00       	call   9060 <blkcopy>
    1828:	83 c4 0c             	add    $0xc,%esp
    182b:	6a 04                	push   $0x4
    182d:	8d 47 04             	lea    0x4(%edi),%eax
    1830:	50                   	push   %eax
    1831:	0f be 43 04          	movsbl 0x4(%ebx),%eax
    1835:	8d 44 18 08          	lea    0x8(%eax,%ebx,1),%eax
    1839:	50                   	push   %eax
    183a:	e8 21 78 00 00       	call   9060 <blkcopy>
    183f:	83 c4 08             	add    $0x8,%esp
    1842:	6a 06                	push   $0x6
    1844:	0f be 43 04          	movsbl 0x4(%ebx),%eax
    1848:	0f be 53 05          	movsbl 0x5(%ebx),%edx
    184c:	01 d0                	add    %edx,%eax
    184e:	8d 44 03 08          	lea    0x8(%ebx,%eax,1),%eax
    1852:	50                   	push   %eax
    1853:	e8 8e e8 ff ff       	call   e6 <bzero>
    1858:	83 c4 0c             	add    $0xc,%esp
    185b:	6a 04                	push   $0x4
    185d:	8b 45 08             	mov    0x8(%ebp),%eax
    1860:	83 c0 08             	add    $0x8,%eax
    1863:	50                   	push   %eax
    1864:	0f be 43 04          	movsbl 0x4(%ebx),%eax
    1868:	0f be 53 05          	movsbl 0x5(%ebx),%edx
    186c:	8d 04 42             	lea    (%edx,%eax,2),%eax
    186f:	8d 44 03 08          	lea    0x8(%ebx,%eax,1),%eax
    1873:	50                   	push   %eax
    1874:	e8 e7 77 00 00       	call   9060 <blkcopy>
    1879:	0f be 43 04          	movsbl 0x4(%ebx),%eax
    187d:	0f be 53 05          	movsbl 0x5(%ebx),%edx
    1881:	01 d0                	add    %edx,%eax
    1883:	83 c4 08             	add    $0x8,%esp
    1886:	8d 44 00 16          	lea    0x16(%eax,%eax,1),%eax
    188a:	50                   	push   %eax
    188b:	56                   	push   %esi
    188c:	ff 15 88 8c 01 00    	call   *0x18c88
    1892:	b8 01 00 00 00       	mov    $0x1,%eax
    1897:	8d 65 f4             	lea    0xfffffff4(%ebp),%esp
    189a:	5b                   	pop    %ebx
    189b:	5e                   	pop    %esi
    189c:	5f                   	pop    %edi
    189d:	5d                   	pop    %ebp
    189e:	c3                   	ret    
    189f:	90                   	nop    

000018a0 <mon_bootp_in>:
    18a0:	55                   	push   %ebp
    18a1:	89 e5                	mov    %esp,%ebp
    18a3:	83 ec 08             	sub    $0x8,%esp
    18a6:	8b 45 08             	mov    0x8(%ebp),%eax
    18a9:	8d 50 08             	lea    0x8(%eax),%edx
    18ac:	80 78 08 02          	cmpb   $0x2,0x8(%eax)
    18b0:	75 16                	jne    18c8 <mon_bootp_in+0x28>
    18b2:	83 ec 0c             	sub    $0xc,%esp
    18b5:	52                   	push   %edx
    18b6:	e8 16 00 00 00       	call   18d1 <mon_bootp_parse>
    18bb:	83 c4 10             	add    $0x10,%esp
    18be:	ba ff ff ff ff       	mov    $0xffffffff,%edx
    18c3:	83 f8 01             	cmp    $0x1,%eax
    18c6:	75 05                	jne    18cd <mon_bootp_in+0x2d>
    18c8:	ba 01 00 00 00       	mov    $0x1,%edx
    18cd:	89 d0                	mov    %edx,%eax
    18cf:	c9                   	leave  
    18d0:	c3                   	ret    

000018d1 <mon_bootp_parse>:
    18d1:	55                   	push   %ebp
    18d2:	89 e5                	mov    %esp,%ebp
    18d4:	53                   	push   %ebx
    18d5:	83 ec 04             	sub    $0x4,%esp
    18d8:	8b 5d 08             	mov    0x8(%ebp),%ebx
    18db:	8b 83 ec 00 00 00    	mov    0xec(%ebx),%eax
    18e1:	89 c1                	mov    %eax,%ecx
    18e3:	c1 e1 18             	shl    $0x18,%ecx
    18e6:	89 c2                	mov    %eax,%edx
    18e8:	c1 ea 18             	shr    $0x18,%edx
    18eb:	09 d1                	or     %edx,%ecx
    18ed:	89 c2                	mov    %eax,%edx
    18ef:	81 e2 00 00 ff 00    	and    $0xff0000,%edx
    18f5:	c1 ea 08             	shr    $0x8,%edx
    18f8:	25 00 ff 00 00       	and    $0xff00,%eax
    18fd:	c1 e0 08             	shl    $0x8,%eax
    1900:	09 c2                	or     %eax,%edx
    1902:	09 d1                	or     %edx,%ecx
    1904:	b8 ff ff ff ff       	mov    $0xffffffff,%eax
    1909:	81 f9 63 53 82 63    	cmp    $0x63825363,%ecx
    190f:	75 29                	jne    193a <mon_bootp_parse+0x69>
    1911:	8b 53 10             	mov    0x10(%ebx),%edx
    1914:	a1 c0 b2 00 00       	mov    0xb2c0,%eax
    1919:	89 50 04             	mov    %edx,0x4(%eax)
    191c:	8b 43 14             	mov    0x14(%ebx),%eax
    191f:	a3 e0 9a 01 00       	mov    %eax,0x19ae0
    1924:	83 ec 08             	sub    $0x8,%esp
    1927:	8d 43 6c             	lea    0x6c(%ebx),%eax
    192a:	50                   	push   %eax
    192b:	68 20 8c 01 00       	push   $0x18c20
    1930:	e8 ef 7e 00 00       	call   9824 <strcpy>
    1935:	b8 01 00 00 00       	mov    $0x1,%eax
    193a:	8b 5d fc             	mov    0xfffffffc(%ebp),%ebx
    193d:	c9                   	leave  
    193e:	c3                   	ret    

0000193f <mon_bootp_request>:
    193f:	55                   	push   %ebp
    1940:	89 e5                	mov    %esp,%ebp
    1942:	57                   	push   %edi
    1943:	56                   	push   %esi
    1944:	53                   	push   %ebx
    1945:	81 ec 58 01 00 00    	sub    $0x158,%esp
    194b:	ff 35 70 8c 01 00    	pushl  0x18c70
    1951:	e8 46 33 00 00       	call   4c9c <getbuf>
    1956:	89 85 b4 fe ff ff    	mov    %eax,0xfffffeb4(%ebp)
    195c:	83 c4 10             	add    $0x10,%esp
    195f:	b8 ff ff ff ff       	mov    $0xffffffff,%eax
    1964:	83 bd b4 fe ff ff 00 	cmpl   $0x0,0xfffffeb4(%ebp)
    196b:	0f 84 d4 00 00 00    	je     1a45 <mon_bootp_request+0x106>
    1971:	8b 9d b4 fe ff ff    	mov    0xfffffeb4(%ebp),%ebx
    1977:	83 c3 16             	add    $0x16,%ebx
    197a:	8b bd b4 fe ff ff    	mov    0xfffffeb4(%ebp),%edi
    1980:	83 c7 2a             	add    $0x2a,%edi
    1983:	83 ec 08             	sub    $0x8,%esp
    1986:	ff 75 08             	pushl  0x8(%ebp)
    1989:	8d b5 b8 fe ff ff    	lea    0xfffffeb8(%ebp),%esi
    198f:	56                   	push   %esi
    1990:	e8 b8 00 00 00       	call   1a4d <make_bootp_packet>
    1995:	83 c4 0c             	add    $0xc,%esp
    1998:	68 2c 01 00 00       	push   $0x12c
    199d:	56                   	push   %esi
    199e:	8b 85 b4 fe ff ff    	mov    0xfffffeb4(%ebp),%eax
    19a4:	83 c0 32             	add    $0x32,%eax
    19a7:	50                   	push   %eax
    19a8:	e8 b3 76 00 00       	call   9060 <blkcopy>
    19ad:	8b 85 b4 fe ff ff    	mov    0xfffffeb4(%ebp),%eax
    19b3:	66 c7 40 2a 00 44    	movw   $0x4400,0x2a(%eax)
    19b9:	66 c7 47 02 00 43    	movw   $0x4300,0x2(%edi)
    19bf:	66 c7 47 04 01 34    	movw   $0x3401,0x4(%edi)
    19c5:	66 c7 47 06 00 00    	movw   $0x0,0x6(%edi)
    19cb:	c6 43 09 11          	movb   $0x11,0x9(%ebx)
    19cf:	c6 40 16 45          	movb   $0x45,0x16(%eax)
    19d3:	c6 43 01 00          	movb   $0x0,0x1(%ebx)
    19d7:	66 c7 43 02 01 48    	movw   $0x4801,0x2(%ebx)
    19dd:	66 c7 43 04 00 00    	movw   $0x0,0x4(%ebx)
    19e3:	66 c7 43 06 00 00    	movw   $0x0,0x6(%ebx)
    19e9:	c6 43 08 ff          	movb   $0xff,0x8(%ebx)
    19ed:	c7 43 0c 00 00 00 00 	movl   $0x0,0xc(%ebx)
    19f4:	a1 ac b2 00 00       	mov    0xb2ac,%eax
    19f9:	89 43 10             	mov    %eax,0x10(%ebx)
    19fc:	66 c7 43 0a 00 00    	movw   $0x0,0xa(%ebx)
    1a02:	83 c4 08             	add    $0x8,%esp
    1a05:	6a 14                	push   $0x14
    1a07:	53                   	push   %ebx
    1a08:	e8 c7 71 00 00       	call   8bd4 <mon_cksum>
    1a0d:	66 89 43 0a          	mov    %ax,0xa(%ebx)
    1a11:	83 c4 0c             	add    $0xc,%esp
    1a14:	6a 06                	push   $0x6
    1a16:	68 5f 9b 00 00       	push   $0x9b5f
    1a1b:	8b 85 b4 fe ff ff    	mov    0xfffffeb4(%ebp),%eax
    1a21:	83 c0 08             	add    $0x8,%eax
    1a24:	50                   	push   %eax
    1a25:	e8 36 76 00 00       	call   9060 <blkcopy>
    1a2a:	8b 85 b4 fe ff ff    	mov    0xfffffeb4(%ebp),%eax
    1a30:	66 c7 40 14 00 08    	movw   $0x800,0x14(%eax)
    1a36:	83 c4 08             	add    $0x8,%esp
    1a39:	68 56 01 00 00       	push   $0x156
    1a3e:	50                   	push   %eax
    1a3f:	ff 15 88 8c 01 00    	call   *0x18c88
    1a45:	8d 65 f4             	lea    0xfffffff4(%ebp),%esp
    1a48:	5b                   	pop    %ebx
    1a49:	5e                   	pop    %esi
    1a4a:	5f                   	pop    %edi
    1a4b:	5d                   	pop    %ebp
    1a4c:	c3                   	ret    

00001a4d <make_bootp_packet>:
    1a4d:	55                   	push   %ebp
    1a4e:	89 e5                	mov    %esp,%ebp
    1a50:	53                   	push   %ebx
    1a51:	83 ec 0c             	sub    $0xc,%esp
    1a54:	8b 5d 08             	mov    0x8(%ebp),%ebx
    1a57:	68 2c 01 00 00       	push   $0x12c
    1a5c:	53                   	push   %ebx
    1a5d:	e8 84 e6 ff ff       	call   e6 <bzero>
    1a62:	c6 03 01             	movb   $0x1,(%ebx)
    1a65:	c6 43 01 01          	movb   $0x1,0x1(%ebx)
    1a69:	c6 43 02 06          	movb   $0x6,0x2(%ebx)
    1a6d:	c7 43 04 2f 00 00 00 	movl   $0x2f,0x4(%ebx)
    1a74:	8b 55 0c             	mov    0xc(%ebp),%edx
    1a77:	0f b6 c6             	movzbl %dh,%eax
    1a7a:	0f b6 55 0c          	movzbl 0xc(%ebp),%edx
    1a7e:	c1 e2 08             	shl    $0x8,%edx
    1a81:	09 d0                	or     %edx,%eax
    1a83:	66 89 43 08          	mov    %ax,0x8(%ebx)
    1a87:	83 c4 0c             	add    $0xc,%esp
    1a8a:	6a 06                	push   $0x6
    1a8c:	68 a0 8c 01 00       	push   $0x18ca0
    1a91:	8d 43 1c             	lea    0x1c(%ebx),%eax
    1a94:	50                   	push   %eax
    1a95:	e8 c6 75 00 00       	call   9060 <blkcopy>
    1a9a:	c7 83 ec 00 00 00 63 	movl   $0x63538263,0xec(%ebx)
    1aa1:	82 53 63 
    1aa4:	c6 83 f1 00 00 00 ff 	movb   $0xff,0xf1(%ebx)
    1aab:	b8 01 00 00 00       	mov    $0x1,%eax
    1ab0:	8b 5d fc             	mov    0xfffffffc(%ebp),%ebx
    1ab3:	c9                   	leave  
    1ab4:	c3                   	ret    
    1ab5:	90                   	nop    
    1ab6:	90                   	nop    
    1ab7:	90                   	nop    

00001ab8 <mon_ip_in>:
    1ab8:	55                   	push   %ebp
    1ab9:	89 e5                	mov    %esp,%ebp
    1abb:	56                   	push   %esi
    1abc:	53                   	push   %ebx
    1abd:	8b 75 0c             	mov    0xc(%ebp),%esi
    1ac0:	8d 5e 16             	lea    0x16(%esi),%ebx
    1ac3:	8a 46 16             	mov    0x16(%esi),%al
    1ac6:	c0 e8 04             	shr    $0x4,%al
    1ac9:	3c 04                	cmp    $0x4,%al
    1acb:	74 13                	je     1ae0 <mon_ip_in+0x28>
    1acd:	83 ec 0c             	sub    $0xc,%esp
    1ad0:	56                   	push   %esi
    1ad1:	e8 36 30 00 00       	call   4b0c <freebuf>
    1ad6:	b8 01 00 00 00       	mov    $0x1,%eax
    1adb:	e9 ad 00 00 00       	jmp    1b8d <mon_ip_in+0xd5>
    1ae0:	8b 43 10             	mov    0x10(%ebx),%eax
    1ae3:	25 f8 00 00 00       	and    $0xf8,%eax
    1ae8:	3d f0 00 00 00       	cmp    $0xf0,%eax
    1aed:	75 13                	jne    1b02 <mon_ip_in+0x4a>
    1aef:	83 ec 0c             	sub    $0xc,%esp
    1af2:	56                   	push   %esi
    1af3:	e8 14 30 00 00       	call   4b0c <freebuf>
    1af8:	b8 01 00 00 00       	mov    $0x1,%eax
    1afd:	e9 8b 00 00 00       	jmp    1b8d <mon_ip_in+0xd5>
    1b02:	83 ec 08             	sub    $0x8,%esp
    1b05:	b8 00 00 00 00       	mov    $0x0,%eax
    1b0a:	8a 03                	mov    (%ebx),%al
    1b0c:	83 e0 0f             	and    $0xf,%eax
    1b0f:	c1 e0 02             	shl    $0x2,%eax
    1b12:	50                   	push   %eax
    1b13:	53                   	push   %ebx
    1b14:	e8 bb 70 00 00       	call   8bd4 <mon_cksum>
    1b19:	83 c4 10             	add    $0x10,%esp
    1b1c:	66 85 c0             	test   %ax,%ax
    1b1f:	74 10                	je     1b31 <mon_ip_in+0x79>
    1b21:	83 ec 0c             	sub    $0xc,%esp
    1b24:	56                   	push   %esi
    1b25:	e8 e2 2f 00 00       	call   4b0c <freebuf>
    1b2a:	b8 01 00 00 00       	mov    $0x1,%eax
    1b2f:	eb 5c                	jmp    1b8d <mon_ip_in+0xd5>
    1b31:	ba 00 00 00 00       	mov    $0x0,%edx
    1b36:	8a 53 03             	mov    0x3(%ebx),%dl
    1b39:	b8 00 00 00 00       	mov    $0x0,%eax
    1b3e:	8a 43 02             	mov    0x2(%ebx),%al
    1b41:	c1 e0 08             	shl    $0x8,%eax
    1b44:	09 c2                	or     %eax,%edx
    1b46:	66 89 53 02          	mov    %dx,0x2(%ebx)
    1b4a:	ba 00 00 00 00       	mov    $0x0,%edx
    1b4f:	8a 53 05             	mov    0x5(%ebx),%dl
    1b52:	b8 00 00 00 00       	mov    $0x0,%eax
    1b57:	8a 43 04             	mov    0x4(%ebx),%al
    1b5a:	c1 e0 08             	shl    $0x8,%eax
    1b5d:	09 c2                	or     %eax,%edx
    1b5f:	66 89 53 04          	mov    %dx,0x4(%ebx)
    1b63:	80 7b 09 11          	cmpb   $0x11,0x9(%ebx)
    1b67:	74 10                	je     1b79 <mon_ip_in+0xc1>
    1b69:	83 ec 0c             	sub    $0xc,%esp
    1b6c:	56                   	push   %esi
    1b6d:	e8 9a 2f 00 00       	call   4b0c <freebuf>
    1b72:	b8 01 00 00 00       	mov    $0x1,%eax
    1b77:	eb 14                	jmp    1b8d <mon_ip_in+0xd5>
    1b79:	83 ec 08             	sub    $0x8,%esp
    1b7c:	56                   	push   %esi
    1b7d:	ff 75 08             	pushl  0x8(%ebp)
    1b80:	e8 83 02 00 00       	call   1e08 <mon_udp_in>
    1b85:	83 c4 10             	add    $0x10,%esp
    1b88:	b8 01 00 00 00       	mov    $0x1,%eax
    1b8d:	8d 65 f8             	lea    0xfffffff8(%ebp),%esp
    1b90:	5b                   	pop    %ebx
    1b91:	5e                   	pop    %esi
    1b92:	5d                   	pop    %ebp
    1b93:	c3                   	ret    

00001b94 <mon_init>:
    1b94:	55                   	push   %ebp
    1b95:	89 e5                	mov    %esp,%ebp
    1b97:	83 ec 08             	sub    $0x8,%esp
    1b9a:	e8 8a 06 00 00       	call   2229 <mon_initq>
    1b9f:	83 ec 08             	sub    $0x8,%esp
    1ba2:	6a 10                	push   $0x10
    1ba4:	68 fa 05 00 00       	push   $0x5fa
    1ba9:	e8 b6 3f 00 00       	call   5b64 <mkpool>
    1bae:	a3 70 8c 01 00       	mov    %eax,0x18c70
    1bb3:	b8 01 00 00 00       	mov    $0x1,%eax
    1bb8:	c9                   	leave  
    1bb9:	c3                   	ret    

00001bba <mon_netinit>:
    1bba:	55                   	push   %ebp
    1bbb:	89 e5                	mov    %esp,%ebp
    1bbd:	83 ec 0c             	sub    $0xc,%esp
    1bc0:	6a 06                	push   $0x6
    1bc2:	68 a0 8c 01 00       	push   $0x18ca0
    1bc7:	68 7c 8c 01 00       	push   $0x18c7c
    1bcc:	e8 8f 74 00 00       	call   9060 <blkcopy>
    1bd1:	83 c4 0c             	add    $0xc,%esp
    1bd4:	6a 06                	push   $0x6
    1bd6:	68 a6 8c 01 00       	push   $0x18ca6
    1bdb:	68 82 8c 01 00       	push   $0x18c82
    1be0:	e8 7b 74 00 00       	call   9060 <blkcopy>
    1be5:	c6 05 74 8c 01 00 01 	movb   $0x1,0x18c74
    1bec:	66 c7 05 7c 8f 01 00 	movw   $0xfffb,0x18f7c
    1bf3:	fb ff 
    1bf5:	83 c4 08             	add    $0x8,%esp
    1bf8:	68 78 8c 00 00       	push   $0x8c78
    1bfd:	6a 20                	push   $0x20
    1bff:	e8 de 2c 00 00       	call   48e2 <set_evec>
    1c04:	66 8b 0d b2 8c 01 00 	mov    0x18cb2,%cx
    1c0b:	b8 fe ff ff ff       	mov    $0xfffffffe,%eax
    1c10:	d3 c0                	rol    %cl,%eax
    1c12:	66 21 05 7c 8f 01 00 	and    %ax,0x18f7c
    1c19:	e8 8d eb ff ff       	call   7ab <enable>
    1c1e:	b8 01 00 00 00       	mov    $0x1,%eax
    1c23:	c9                   	leave  
    1c24:	c3                   	ret    

00001c25 <mon_ni_in>:
    1c25:	55                   	push   %ebp
    1c26:	89 e5                	mov    %esp,%ebp
    1c28:	83 ec 08             	sub    $0x8,%esp
    1c2b:	8b 4d 08             	mov    0x8(%ebp),%ecx
    1c2e:	8b 55 0c             	mov    0xc(%ebp),%edx
    1c31:	66 8b 42 14          	mov    0x14(%edx),%ax
    1c35:	25 ff ff 00 00       	and    $0xffff,%eax
    1c3a:	3d 00 08 00 00       	cmp    $0x800,%eax
    1c3f:	74 16                	je     1c57 <mon_ni_in+0x32>
    1c41:	3d 06 08 00 00       	cmp    $0x806,%eax
    1c46:	75 1e                	jne    1c66 <mon_ni_in+0x41>
    1c48:	83 ec 08             	sub    $0x8,%esp
    1c4b:	52                   	push   %edx
    1c4c:	51                   	push   %ecx
    1c4d:	e8 74 f8 ff ff       	call   14c6 <mon_arp_in>
    1c52:	83 c4 10             	add    $0x10,%esp
    1c55:	eb 1f                	jmp    1c76 <mon_ni_in+0x51>
    1c57:	83 ec 08             	sub    $0x8,%esp
    1c5a:	52                   	push   %edx
    1c5b:	51                   	push   %ecx
    1c5c:	e8 57 fe ff ff       	call   1ab8 <mon_ip_in>
    1c61:	83 c4 10             	add    $0x10,%esp
    1c64:	eb 10                	jmp    1c76 <mon_ni_in+0x51>
    1c66:	83 ec 0c             	sub    $0xc,%esp
    1c69:	52                   	push   %edx
    1c6a:	e8 9d 2e 00 00       	call   4b0c <freebuf>
    1c6f:	b8 01 00 00 00       	mov    $0x1,%eax
    1c74:	eb 05                	jmp    1c7b <mon_ni_in+0x56>
    1c76:	b8 01 00 00 00       	mov    $0x1,%eax
    1c7b:	c9                   	leave  
    1c7c:	c3                   	ret    

00001c7d <mon_netwrite>:
    1c7d:	55                   	push   %ebp
    1c7e:	89 e5                	mov    %esp,%ebp
    1c80:	57                   	push   %edi
    1c81:	56                   	push   %esi
    1c82:	53                   	push   %ebx
    1c83:	83 ec 0c             	sub    $0xc,%esp
    1c86:	8b 75 08             	mov    0x8(%ebp),%esi
    1c89:	8b 7d 0c             	mov    0xc(%ebp),%edi
    1c8c:	80 3d 74 8c 01 00 01 	cmpb   $0x1,0x18c74
    1c93:	74 13                	je     1ca8 <mon_netwrite+0x2b>
    1c95:	83 ec 0c             	sub    $0xc,%esp
    1c98:	56                   	push   %esi
    1c99:	e8 6e 2e 00 00       	call   4b0c <freebuf>
    1c9e:	b8 ff ff ff ff       	mov    $0xffffffff,%eax
    1ca3:	e9 29 01 00 00       	jmp    1dd1 <mon_netwrite+0x154>
    1ca8:	66 89 7e 06          	mov    %di,0x6(%esi)
    1cac:	8b 06                	mov    (%esi),%eax
    1cae:	3b 05 48 b6 00 00    	cmp    0xb648,%eax
    1cb4:	74 08                	je     1cbe <mon_netwrite+0x41>
    1cb6:	3b 05 ac b2 00 00    	cmp    0xb2ac,%eax
    1cbc:	75 2c                	jne    1cea <mon_netwrite+0x6d>
    1cbe:	83 ec 04             	sub    $0x4,%esp
    1cc1:	6a 06                	push   $0x6
    1cc3:	b8 74 8c 01 00       	mov    $0x18c74,%eax
    1cc8:	83 c0 0e             	add    $0xe,%eax
    1ccb:	50                   	push   %eax
    1ccc:	8d 46 08             	lea    0x8(%esi),%eax
    1ccf:	50                   	push   %eax
    1cd0:	e8 8b 73 00 00       	call   9060 <blkcopy>
    1cd5:	83 c4 08             	add    $0x8,%esp
    1cd8:	57                   	push   %edi
    1cd9:	56                   	push   %esi
    1cda:	ff 15 88 8c 01 00    	call   *0x18c88
    1ce0:	b8 01 00 00 00       	mov    $0x1,%eax
    1ce5:	e9 e7 00 00 00       	jmp    1dd1 <mon_netwrite+0x154>
    1cea:	83 ec 0c             	sub    $0xc,%esp
    1ced:	8d 45 f2             	lea    0xfffffff2(%ebp),%eax
    1cf0:	50                   	push   %eax
    1cf1:	e8 c6 ea ff ff       	call   7bc <disable>
    1cf6:	89 34 24             	mov    %esi,(%esp)
    1cf9:	e8 64 fa ff ff       	call   1762 <mon_arpfind>
    1cfe:	89 c3                	mov    %eax,%ebx
    1d00:	83 c4 10             	add    $0x10,%esp
    1d03:	85 c0                	test   %eax,%eax
    1d05:	74 6b                	je     1d72 <mon_netwrite+0xf5>
    1d07:	66 83 38 02          	cmpw   $0x2,(%eax)
    1d0b:	75 2d                	jne    1d3a <mon_netwrite+0xbd>
    1d0d:	83 ec 04             	sub    $0x4,%esp
    1d10:	6a 06                	push   $0x6
    1d12:	8d 40 02             	lea    0x2(%eax),%eax
    1d15:	50                   	push   %eax
    1d16:	8d 46 08             	lea    0x8(%esi),%eax
    1d19:	50                   	push   %eax
    1d1a:	e8 41 73 00 00       	call   9060 <blkcopy>
    1d1f:	8d 45 f2             	lea    0xfffffff2(%ebp),%eax
    1d22:	89 04 24             	mov    %eax,(%esp)
    1d25:	e8 ba ea ff ff       	call   7e4 <restore>
    1d2a:	83 c4 08             	add    $0x8,%esp
    1d2d:	57                   	push   %edi
    1d2e:	56                   	push   %esi
    1d2f:	ff 15 88 8c 01 00    	call   *0x18c88
    1d35:	e9 97 00 00 00       	jmp    1dd1 <mon_netwrite+0x154>
    1d3a:	66 83 38 01          	cmpw   $0x1,(%eax)
    1d3e:	75 32                	jne    1d72 <mon_netwrite+0xf5>
    1d40:	83 78 0c 00          	cmpl   $0x0,0xc(%eax)
    1d44:	74 0e                	je     1d54 <mon_netwrite+0xd7>
    1d46:	83 ec 0c             	sub    $0xc,%esp
    1d49:	ff 70 0c             	pushl  0xc(%eax)
    1d4c:	e8 bb 2d 00 00       	call   4b0c <freebuf>
    1d51:	83 c4 10             	add    $0x10,%esp
    1d54:	89 73 0c             	mov    %esi,0xc(%ebx)
    1d57:	83 ec 0c             	sub    $0xc,%esp
    1d5a:	53                   	push   %ebx
    1d5b:	e8 55 fa ff ff       	call   17b5 <mon_arpsend>
    1d60:	8d 45 f2             	lea    0xfffffff2(%ebp),%eax
    1d63:	89 04 24             	mov    %eax,(%esp)
    1d66:	e8 79 ea ff ff       	call   7e4 <restore>
    1d6b:	b8 01 00 00 00       	mov    $0x1,%eax
    1d70:	eb 5f                	jmp    1dd1 <mon_netwrite+0x154>
    1d72:	8b 06                	mov    (%esi),%eax
    1d74:	25 f0 00 00 00       	and    $0xf0,%eax
    1d79:	3d e0 00 00 00       	cmp    $0xe0,%eax
    1d7e:	75 13                	jne    1d93 <mon_netwrite+0x116>
    1d80:	83 ec 0c             	sub    $0xc,%esp
    1d83:	8d 45 f2             	lea    0xfffffff2(%ebp),%eax
    1d86:	50                   	push   %eax
    1d87:	e8 58 ea ff ff       	call   7e4 <restore>
    1d8c:	b8 ff ff ff ff       	mov    $0xffffffff,%eax
    1d91:	eb 3e                	jmp    1dd1 <mon_netwrite+0x154>
    1d93:	85 db                	test   %ebx,%ebx
    1d95:	75 29                	jne    1dc0 <mon_netwrite+0x143>
    1d97:	e8 95 f9 ff ff       	call   1731 <mon_arpalloc>
    1d9c:	89 c3                	mov    %eax,%ebx
    1d9e:	66 c7 00 01 00       	movw   $0x1,(%eax)
    1da3:	89 70 0c             	mov    %esi,0xc(%eax)
    1da6:	83 ec 04             	sub    $0x4,%esp
    1da9:	6a 04                	push   $0x4
    1dab:	56                   	push   %esi
    1dac:	8d 40 08             	lea    0x8(%eax),%eax
    1daf:	50                   	push   %eax
    1db0:	e8 ab 72 00 00       	call   9060 <blkcopy>
    1db5:	89 1c 24             	mov    %ebx,(%esp)
    1db8:	e8 f8 f9 ff ff       	call   17b5 <mon_arpsend>
    1dbd:	83 c4 10             	add    $0x10,%esp
    1dc0:	83 ec 0c             	sub    $0xc,%esp
    1dc3:	8d 45 f2             	lea    0xfffffff2(%ebp),%eax
    1dc6:	50                   	push   %eax
    1dc7:	e8 18 ea ff ff       	call   7e4 <restore>
    1dcc:	b8 01 00 00 00       	mov    $0x1,%eax
    1dd1:	8d 65 f4             	lea    0xfffffff4(%ebp),%esp
    1dd4:	5b                   	pop    %ebx
    1dd5:	5e                   	pop    %esi
    1dd6:	5f                   	pop    %edi
    1dd7:	5d                   	pop    %ebp
    1dd8:	c3                   	ret    

00001dd9 <mon_blkequ>:
    1dd9:	55                   	push   %ebp
    1dda:	89 e5                	mov    %esp,%ebp
    1ddc:	56                   	push   %esi
    1ddd:	53                   	push   %ebx
    1dde:	8b 75 08             	mov    0x8(%ebp),%esi
    1de1:	8b 5d 0c             	mov    0xc(%ebp),%ebx
    1de4:	8b 4d 10             	mov    0x10(%ebp),%ecx
    1de7:	49                   	dec    %ecx
    1de8:	78 14                	js     1dfe <mon_blkequ+0x25>
    1dea:	8a 13                	mov    (%ebx),%dl
    1dec:	43                   	inc    %ebx
    1ded:	8a 06                	mov    (%esi),%al
    1def:	46                   	inc    %esi
    1df0:	38 d0                	cmp    %dl,%al
    1df2:	74 07                	je     1dfb <mon_blkequ+0x22>
    1df4:	b8 00 00 00 00       	mov    $0x0,%eax
    1df9:	eb 08                	jmp    1e03 <mon_blkequ+0x2a>
    1dfb:	49                   	dec    %ecx
    1dfc:	79 ec                	jns    1dea <mon_blkequ+0x11>
    1dfe:	b8 01 00 00 00       	mov    $0x1,%eax
    1e03:	5b                   	pop    %ebx
    1e04:	5e                   	pop    %esi
    1e05:	5d                   	pop    %ebp
    1e06:	c3                   	ret    
    1e07:	90                   	nop    

00001e08 <mon_udp_in>:
    1e08:	55                   	push   %ebp
    1e09:	89 e5                	mov    %esp,%ebp
    1e0b:	56                   	push   %esi
    1e0c:	53                   	push   %ebx
    1e0d:	8b 75 0c             	mov    0xc(%ebp),%esi
    1e10:	8d 5e 2a             	lea    0x2a(%esi),%ebx
    1e13:	66 83 7b 06 00       	cmpw   $0x0,0x6(%ebx)
    1e18:	74 36                	je     1e50 <mon_udp_in+0x48>
    1e1a:	83 ec 08             	sub    $0x8,%esp
    1e1d:	66 8b 43 04          	mov    0x4(%ebx),%ax
    1e21:	0f b6 d4             	movzbl %ah,%edx
    1e24:	25 ff 00 00 00       	and    $0xff,%eax
    1e29:	c1 e0 08             	shl    $0x8,%eax
    1e2c:	09 c2                	or     %eax,%edx
    1e2e:	52                   	push   %edx
    1e2f:	56                   	push   %esi
    1e30:	e8 13 01 00 00       	call   1f48 <mon_udpcksum>
    1e35:	83 c4 10             	add    $0x10,%esp
    1e38:	66 85 c0             	test   %ax,%ax
    1e3b:	74 13                	je     1e50 <mon_udp_in+0x48>
    1e3d:	83 ec 0c             	sub    $0xc,%esp
    1e40:	56                   	push   %esi
    1e41:	e8 c6 2c 00 00       	call   4b0c <freebuf>
    1e46:	b8 ff ff ff ff       	mov    $0xffffffff,%eax
    1e4b:	e9 f1 00 00 00       	jmp    1f41 <mon_udp_in+0x139>
    1e50:	66 8b 03             	mov    (%ebx),%ax
    1e53:	89 c2                	mov    %eax,%edx
    1e55:	66 c1 ea 08          	shr    $0x8,%dx
    1e59:	25 ff 00 00 00       	and    $0xff,%eax
    1e5e:	c1 e0 08             	shl    $0x8,%eax
    1e61:	09 c2                	or     %eax,%edx
    1e63:	66 89 13             	mov    %dx,(%ebx)
    1e66:	66 8b 43 02          	mov    0x2(%ebx),%ax
    1e6a:	89 c1                	mov    %eax,%ecx
    1e6c:	66 c1 e9 08          	shr    $0x8,%cx
    1e70:	25 ff 00 00 00       	and    $0xff,%eax
    1e75:	c1 e0 08             	shl    $0x8,%eax
    1e78:	09 c1                	or     %eax,%ecx
    1e7a:	66 89 4b 02          	mov    %cx,0x2(%ebx)
    1e7e:	66 8b 43 04          	mov    0x4(%ebx),%ax
    1e82:	89 c2                	mov    %eax,%edx
    1e84:	66 c1 ea 08          	shr    $0x8,%dx
    1e88:	25 ff 00 00 00       	and    $0xff,%eax
    1e8d:	c1 e0 08             	shl    $0x8,%eax
    1e90:	09 c2                	or     %eax,%edx
    1e92:	66 89 53 04          	mov    %dx,0x4(%ebx)
    1e96:	89 c8                	mov    %ecx,%eax
    1e98:	25 ff ff 00 00       	and    $0xffff,%eax
    1e9d:	83 f8 44             	cmp    $0x44,%eax
    1ea0:	74 0c                	je     1eae <mon_udp_in+0xa6>
    1ea2:	3d 6c f3 00 00       	cmp    $0xf36c,%eax
    1ea7:	74 4b                	je     1ef4 <mon_udp_in+0xec>
    1ea9:	e9 85 00 00 00       	jmp    1f33 <mon_udp_in+0x12b>
    1eae:	83 3d c8 8c 01 00 0b 	cmpl   $0xb,0x18cc8
    1eb5:	75 7c                	jne    1f33 <mon_udp_in+0x12b>
    1eb7:	c7 05 e8 b9 00 00 00 	movl   $0x0,0xb9e8
    1ebe:	00 00 00 
    1ec1:	83 ec 0c             	sub    $0xc,%esp
    1ec4:	53                   	push   %ebx
    1ec5:	e8 d6 f9 ff ff       	call   18a0 <mon_bootp_in>
    1eca:	83 c4 10             	add    $0x10,%esp
    1ecd:	83 f8 01             	cmp    $0x1,%eax
    1ed0:	75 16                	jne    1ee8 <mon_udp_in+0xe0>
    1ed2:	c7 05 c8 8c 01 00 0c 	movl   $0xc,0x18cc8
    1ed9:	00 00 00 
    1edc:	c7 05 e0 b9 00 00 00 	movl   $0x0,0xb9e0
    1ee3:	00 00 00 
    1ee6:	eb 4b                	jmp    1f33 <mon_udp_in+0x12b>
    1ee8:	c7 05 c8 8c 01 00 10 	movl   $0x10,0x18cc8
    1eef:	00 00 00 
    1ef2:	eb 3f                	jmp    1f33 <mon_udp_in+0x12b>
    1ef4:	83 3d c8 8c 01 00 0d 	cmpl   $0xd,0x18cc8
    1efb:	75 36                	jne    1f33 <mon_udp_in+0x12b>
    1efd:	c7 05 e8 b9 00 00 00 	movl   $0x0,0xb9e8
    1f04:	00 00 00 
    1f07:	83 ec 0c             	sub    $0xc,%esp
    1f0a:	53                   	push   %ebx
    1f0b:	e8 c0 6d 00 00       	call   8cd0 <mon_tftp_in>
    1f10:	83 c4 10             	add    $0x10,%esp
    1f13:	83 f8 01             	cmp    $0x1,%eax
    1f16:	75 0c                	jne    1f24 <mon_udp_in+0x11c>
    1f18:	c7 05 c8 8c 01 00 0e 	movl   $0xe,0x18cc8
    1f1f:	00 00 00 
    1f22:	eb 0f                	jmp    1f33 <mon_udp_in+0x12b>
    1f24:	83 f8 ff             	cmp    $0xffffffff,%eax
    1f27:	75 0a                	jne    1f33 <mon_udp_in+0x12b>
    1f29:	c7 05 c8 8c 01 00 11 	movl   $0x11,0x18cc8
    1f30:	00 00 00 
    1f33:	83 ec 0c             	sub    $0xc,%esp
    1f36:	56                   	push   %esi
    1f37:	e8 d0 2b 00 00       	call   4b0c <freebuf>
    1f3c:	b8 01 00 00 00       	mov    $0x1,%eax
    1f41:	8d 65 f8             	lea    0xfffffff8(%ebp),%esp
    1f44:	5b                   	pop    %ebx
    1f45:	5e                   	pop    %esi
    1f46:	5d                   	pop    %ebp
    1f47:	c3                   	ret    

00001f48 <mon_udpcksum>:
    1f48:	55                   	push   %ebp
    1f49:	89 e5                	mov    %esp,%ebp
    1f4b:	57                   	push   %edi
    1f4c:	56                   	push   %esi
    1f4d:	53                   	push   %ebx
    1f4e:	8b 45 08             	mov    0x8(%ebp),%eax
    1f51:	8b 5d 0c             	mov    0xc(%ebp),%ebx
    1f54:	8d 78 2a             	lea    0x2a(%eax),%edi
    1f57:	be 00 00 00 00       	mov    $0x0,%esi
    1f5c:	8d 48 22             	lea    0x22(%eax),%ecx
    1f5f:	ba 00 00 00 00       	mov    $0x0,%edx
    1f64:	66 8b 01             	mov    (%ecx),%ax
    1f67:	25 ff ff 00 00       	and    $0xffff,%eax
    1f6c:	01 c6                	add    %eax,%esi
    1f6e:	83 c1 02             	add    $0x2,%ecx
    1f71:	42                   	inc    %edx
    1f72:	83 fa 03             	cmp    $0x3,%edx
    1f75:	7e ed                	jle    1f64 <mon_udpcksum+0x1c>
    1f77:	89 f9                	mov    %edi,%ecx
    1f79:	8d 43 11             	lea    0x11(%ebx),%eax
    1f7c:	0f b6 d4             	movzbl %ah,%edx
    1f7f:	25 ff 00 00 00       	and    $0xff,%eax
    1f84:	c1 e0 08             	shl    $0x8,%eax
    1f87:	09 c2                	or     %eax,%edx
    1f89:	01 d6                	add    %edx,%esi
    1f8b:	f6 c3 01             	test   $0x1,%bl
    1f8e:	74 05                	je     1f95 <mon_udpcksum+0x4d>
    1f90:	c6 04 1f 00          	movb   $0x0,(%edi,%ebx,1)
    1f94:	43                   	inc    %ebx
    1f95:	d1 fb                	sar    %ebx
    1f97:	ba 00 00 00 00       	mov    $0x0,%edx
    1f9c:	39 da                	cmp    %ebx,%edx
    1f9e:	7d 12                	jge    1fb2 <mon_udpcksum+0x6a>
    1fa0:	66 8b 01             	mov    (%ecx),%ax
    1fa3:	25 ff ff 00 00       	and    $0xffff,%eax
    1fa8:	01 c6                	add    %eax,%esi
    1faa:	83 c1 02             	add    $0x2,%ecx
    1fad:	42                   	inc    %edx
    1fae:	39 da                	cmp    %ebx,%edx
    1fb0:	7c ee                	jl     1fa0 <mon_udpcksum+0x58>
    1fb2:	89 f2                	mov    %esi,%edx
    1fb4:	c1 ea 10             	shr    $0x10,%edx
    1fb7:	89 f0                	mov    %esi,%eax
    1fb9:	25 ff ff 00 00       	and    $0xffff,%eax
    1fbe:	8d 34 02             	lea    (%edx,%eax,1),%esi
    1fc1:	89 f0                	mov    %esi,%eax
    1fc3:	c1 e8 10             	shr    $0x10,%eax
    1fc6:	01 c6                	add    %eax,%esi
    1fc8:	89 f0                	mov    %esi,%eax
    1fca:	f7 d0                	not    %eax
    1fcc:	25 ff ff 00 00       	and    $0xffff,%eax
    1fd1:	5b                   	pop    %ebx
    1fd2:	5e                   	pop    %esi
    1fd3:	5f                   	pop    %edi
    1fd4:	5d                   	pop    %ebp
    1fd5:	c3                   	ret    
    1fd6:	90                   	nop    
    1fd7:	90                   	nop    

00001fd8 <mon_enq>:
    1fd8:	55                   	push   %ebp
    1fd9:	89 e5                	mov    %esp,%ebp
    1fdb:	57                   	push   %edi
    1fdc:	56                   	push   %esi
    1fdd:	53                   	push   %ebx
    1fde:	83 ec 0c             	sub    $0xc,%esp
    1fe1:	8b 4d 08             	mov    0x8(%ebp),%ecx
    1fe4:	8b 7d 10             	mov    0x10(%ebp),%edi
    1fe7:	b8 ff ff ff ff       	mov    $0xffffffff,%eax
    1fec:	83 f9 1f             	cmp    $0x1f,%ecx
    1fef:	0f 87 c1 00 00 00    	ja     20b6 <mon_enq+0xde>
    1ff5:	8d 04 cd 00 00 00 00 	lea    0x0(,%ecx,8),%eax
    1ffc:	29 c8                	sub    %ecx,%eax
    1ffe:	8d 14 85 00 00 00 00 	lea    0x0(,%eax,4),%edx
    2005:	80 ba 60 b6 00 00 00 	cmpb   $0x0,0xb660(%edx)
    200c:	74 0e                	je     201c <mon_enq+0x44>
    200e:	8b 82 68 b6 00 00    	mov    0xb668(%edx),%eax
    2014:	3b 82 64 b6 00 00    	cmp    0xb664(%edx),%eax
    201a:	7c 0a                	jl     2026 <mon_enq+0x4e>
    201c:	b8 ff ff ff ff       	mov    $0xffffffff,%eax
    2021:	e9 90 00 00 00       	jmp    20b6 <mon_enq+0xde>
    2026:	8d 04 cd 00 00 00 00 	lea    0x0(,%ecx,8),%eax
    202d:	29 c8                	sub    %ecx,%eax
    202f:	8d 34 85 60 b6 00 00 	lea    0xb660(,%eax,4),%esi
    2036:	83 ec 0c             	sub    $0xc,%esp
    2039:	8d 45 f2             	lea    0xfffffff2(%ebp),%eax
    203c:	50                   	push   %eax
    203d:	e8 7a e7 ff ff       	call   7bc <disable>
    2042:	83 c4 10             	add    $0x10,%esp
    2045:	83 7e 08 00          	cmpl   $0x0,0x8(%esi)
    2049:	79 07                	jns    2052 <mon_enq+0x7a>
    204b:	c7 46 08 00 00 00 00 	movl   $0x0,0x8(%esi)
    2052:	8b 5e 08             	mov    0x8(%esi),%ebx
    2055:	4b                   	dec    %ebx
    2056:	78 12                	js     206a <mon_enq+0x92>
    2058:	8b 46 14             	mov    0x14(%esi),%eax
    205b:	89 c2                	mov    %eax,%edx
    205d:	39 3c 98             	cmp    %edi,(%eax,%ebx,4)
    2060:	7d 08                	jge    206a <mon_enq+0x92>
    2062:	4b                   	dec    %ebx
    2063:	78 05                	js     206a <mon_enq+0x92>
    2065:	39 3c 9a             	cmp    %edi,(%edx,%ebx,4)
    2068:	7c f8                	jl     2062 <mon_enq+0x8a>
    206a:	8b 4e 08             	mov    0x8(%esi),%ecx
    206d:	49                   	dec    %ecx
    206e:	39 d9                	cmp    %ebx,%ecx
    2070:	7e 19                	jle    208b <mon_enq+0xb3>
    2072:	8b 56 14             	mov    0x14(%esi),%edx
    2075:	8b 04 8a             	mov    (%edx,%ecx,4),%eax
    2078:	89 44 8a 04          	mov    %eax,0x4(%edx,%ecx,4)
    207c:	8b 56 18             	mov    0x18(%esi),%edx
    207f:	8b 04 8a             	mov    (%edx,%ecx,4),%eax
    2082:	89 44 8a 04          	mov    %eax,0x4(%edx,%ecx,4)
    2086:	49                   	dec    %ecx
    2087:	39 d9                	cmp    %ebx,%ecx
    2089:	7f e7                	jg     2072 <mon_enq+0x9a>
    208b:	8b 46 14             	mov    0x14(%esi),%eax
    208e:	89 7c 98 04          	mov    %edi,0x4(%eax,%ebx,4)
    2092:	8b 56 18             	mov    0x18(%esi),%edx
    2095:	8b 45 0c             	mov    0xc(%ebp),%eax
    2098:	89 44 9a 04          	mov    %eax,0x4(%edx,%ebx,4)
    209c:	8b 46 08             	mov    0x8(%esi),%eax
    209f:	40                   	inc    %eax
    20a0:	89 46 08             	mov    %eax,0x8(%esi)
    20a3:	8b 5e 04             	mov    0x4(%esi),%ebx
    20a6:	29 c3                	sub    %eax,%ebx
    20a8:	83 ec 0c             	sub    $0xc,%esp
    20ab:	8d 45 f2             	lea    0xfffffff2(%ebp),%eax
    20ae:	50                   	push   %eax
    20af:	e8 30 e7 ff ff       	call   7e4 <restore>
    20b4:	89 d8                	mov    %ebx,%eax
    20b6:	8d 65 f4             	lea    0xfffffff4(%ebp),%esp
    20b9:	5b                   	pop    %ebx
    20ba:	5e                   	pop    %esi
    20bb:	5f                   	pop    %edi
    20bc:	5d                   	pop    %ebp
    20bd:	c3                   	ret    

000020be <mon_deq>:
    20be:	55                   	push   %ebp
    20bf:	89 e5                	mov    %esp,%ebp
    20c1:	56                   	push   %esi
    20c2:	53                   	push   %ebx
    20c3:	83 ec 10             	sub    $0x10,%esp
    20c6:	8b 55 08             	mov    0x8(%ebp),%edx
    20c9:	b8 00 00 00 00       	mov    $0x0,%eax
    20ce:	83 fa 1f             	cmp    $0x1f,%edx
    20d1:	77 7f                	ja     2152 <mon_deq+0x94>
    20d3:	8d 04 d5 00 00 00 00 	lea    0x0(,%edx,8),%eax
    20da:	29 d0                	sub    %edx,%eax
    20dc:	c1 e0 02             	shl    $0x2,%eax
    20df:	80 b8 60 b6 00 00 00 	cmpb   $0x0,0xb660(%eax)
    20e6:	74 09                	je     20f1 <mon_deq+0x33>
    20e8:	83 b8 68 b6 00 00 00 	cmpl   $0x0,0xb668(%eax)
    20ef:	7f 07                	jg     20f8 <mon_deq+0x3a>
    20f1:	b8 00 00 00 00       	mov    $0x0,%eax
    20f6:	eb 5a                	jmp    2152 <mon_deq+0x94>
    20f8:	8d 04 d5 00 00 00 00 	lea    0x0(,%edx,8),%eax
    20ff:	29 d0                	sub    %edx,%eax
    2101:	8d 1c 85 60 b6 00 00 	lea    0xb660(,%eax,4),%ebx
    2108:	83 ec 0c             	sub    $0xc,%esp
    210b:	8d 45 f6             	lea    0xfffffff6(%ebp),%eax
    210e:	50                   	push   %eax
    210f:	e8 a8 e6 ff ff       	call   7bc <disable>
    2114:	8b 43 18             	mov    0x18(%ebx),%eax
    2117:	8b 30                	mov    (%eax),%esi
    2119:	b9 01 00 00 00       	mov    $0x1,%ecx
    211e:	83 c4 10             	add    $0x10,%esp
    2121:	83 7b 08 01          	cmpl   $0x1,0x8(%ebx)
    2125:	7e 1a                	jle    2141 <mon_deq+0x83>
    2127:	8b 53 18             	mov    0x18(%ebx),%edx
    212a:	8b 04 8a             	mov    (%edx,%ecx,4),%eax
    212d:	89 44 8a fc          	mov    %eax,0xfffffffc(%edx,%ecx,4)
    2131:	8b 53 14             	mov    0x14(%ebx),%edx
    2134:	8b 04 8a             	mov    (%edx,%ecx,4),%eax
    2137:	89 44 8a fc          	mov    %eax,0xfffffffc(%edx,%ecx,4)
    213b:	41                   	inc    %ecx
    213c:	39 4b 08             	cmp    %ecx,0x8(%ebx)
    213f:	7f e6                	jg     2127 <mon_deq+0x69>
    2141:	ff 4b 08             	decl   0x8(%ebx)
    2144:	83 ec 0c             	sub    $0xc,%esp
    2147:	8d 45 f6             	lea    0xfffffff6(%ebp),%eax
    214a:	50                   	push   %eax
    214b:	e8 94 e6 ff ff       	call   7e4 <restore>
    2150:	89 f0                	mov    %esi,%eax
    2152:	8d 65 f8             	lea    0xfffffff8(%ebp),%esp
    2155:	5b                   	pop    %ebx
    2156:	5e                   	pop    %esi
    2157:	5d                   	pop    %ebp
    2158:	c3                   	ret    

00002159 <mon_newq>:
    2159:	55                   	push   %ebp
    215a:	89 e5                	mov    %esp,%ebp
    215c:	57                   	push   %edi
    215d:	56                   	push   %esi
    215e:	53                   	push   %ebx
    215f:	83 ec 0c             	sub    $0xc,%esp
    2162:	8b 55 08             	mov    0x8(%ebp),%edx
    2165:	be 00 00 00 00       	mov    $0x0,%esi
    216a:	8d 04 f5 00 00 00 00 	lea    0x0(,%esi,8),%eax
    2171:	29 f0                	sub    %esi,%eax
    2173:	80 3c 85 60 b6 00 00 	cmpb   $0x0,0xb660(,%eax,4)
    217a:	00 
    217b:	74 06                	je     2183 <mon_newq+0x2a>
    217d:	46                   	inc    %esi
    217e:	83 fe 1f             	cmp    $0x1f,%esi
    2181:	7e e7                	jle    216a <mon_newq+0x11>
    2183:	b8 ff ff ff ff       	mov    $0xffffffff,%eax
    2188:	83 fe 20             	cmp    $0x20,%esi
    218b:	74 5d                	je     21ea <mon_newq+0x91>
    218d:	8d 04 f5 00 00 00 00 	lea    0x0(,%esi,8),%eax
    2194:	29 f0                	sub    %esi,%eax
    2196:	c1 e0 02             	shl    $0x2,%eax
    2199:	8d b8 60 b6 00 00    	lea    0xb660(%eax),%edi
    219f:	c6 80 60 b6 00 00 01 	movb   $0x1,0xb660(%eax)
    21a6:	89 57 04             	mov    %edx,0x4(%edi)
    21a9:	c7 47 08 00 00 00 00 	movl   $0x0,0x8(%edi)
    21b0:	c7 47 0c ff ff ff ff 	movl   $0xffffffff,0xc(%edi)
    21b7:	83 ec 0c             	sub    $0xc,%esp
    21ba:	8d 1c 95 00 00 00 00 	lea    0x0(,%edx,4),%ebx
    21c1:	53                   	push   %ebx
    21c2:	e8 05 2d 00 00       	call   4ecc <getmem>
    21c7:	89 47 18             	mov    %eax,0x18(%edi)
    21ca:	89 1c 24             	mov    %ebx,(%esp)
    21cd:	e8 fa 2c 00 00       	call   4ecc <getmem>
    21d2:	89 47 14             	mov    %eax,0x14(%edi)
    21d5:	83 c4 10             	add    $0x10,%esp
    21d8:	83 f8 ff             	cmp    $0xffffffff,%eax
    21db:	74 08                	je     21e5 <mon_newq+0x8c>
    21dd:	89 f0                	mov    %esi,%eax
    21df:	83 7f 18 ff          	cmpl   $0xffffffff,0x18(%edi)
    21e3:	75 05                	jne    21ea <mon_newq+0x91>
    21e5:	b8 ff ff ff ff       	mov    $0xffffffff,%eax
    21ea:	8d 65 f4             	lea    0xfffffff4(%ebp),%esp
    21ed:	5b                   	pop    %ebx
    21ee:	5e                   	pop    %esi
    21ef:	5f                   	pop    %edi
    21f0:	5d                   	pop    %ebp
    21f1:	c3                   	ret    

000021f2 <mon_lenq>:
    21f2:	55                   	push   %ebp
    21f3:	89 e5                	mov    %esp,%ebp
    21f5:	8b 55 08             	mov    0x8(%ebp),%edx
    21f8:	83 fa 1f             	cmp    $0x1f,%edx
    21fb:	77 13                	ja     2210 <mon_lenq+0x1e>
    21fd:	8d 04 d5 00 00 00 00 	lea    0x0(,%edx,8),%eax
    2204:	29 d0                	sub    %edx,%eax
    2206:	80 3c 85 60 b6 00 00 	cmpb   $0x0,0xb660(,%eax,4)
    220d:	00 
    220e:	75 07                	jne    2217 <mon_lenq+0x25>
    2210:	b8 ff ff ff ff       	mov    $0xffffffff,%eax
    2215:	eb 10                	jmp    2227 <mon_lenq+0x35>
    2217:	8d 04 d5 00 00 00 00 	lea    0x0(,%edx,8),%eax
    221e:	29 d0                	sub    %edx,%eax
    2220:	8b 04 85 68 b6 00 00 	mov    0xb668(,%eax,4),%eax
    2227:	5d                   	pop    %ebp
    2228:	c3                   	ret    

00002229 <mon_initq>:
    2229:	55                   	push   %ebp
    222a:	89 e5                	mov    %esp,%ebp
    222c:	ba 00 00 00 00       	mov    $0x0,%edx
    2231:	8d 04 d5 00 00 00 00 	lea    0x0(,%edx,8),%eax
    2238:	29 d0                	sub    %edx,%eax
    223a:	c6 04 85 60 b6 00 00 	movb   $0x0,0xb660(,%eax,4)
    2241:	00 
    2242:	42                   	inc    %edx
    2243:	83 fa 1f             	cmp    $0x1f,%edx
    2246:	7e e9                	jle    2231 <mon_initq+0x8>
    2248:	b8 01 00 00 00       	mov    $0x1,%eax
    224d:	5d                   	pop    %ebp
    224e:	c3                   	ret    

0000224f <mon_headq>:
    224f:	55                   	push   %ebp
    2250:	89 e5                	mov    %esp,%ebp
    2252:	53                   	push   %ebx
    2253:	83 ec 04             	sub    $0x4,%esp
    2256:	8b 55 08             	mov    0x8(%ebp),%edx
    2259:	b8 00 00 00 00       	mov    $0x0,%eax
    225e:	83 fa 1f             	cmp    $0x1f,%edx
    2261:	77 53                	ja     22b6 <mon_headq+0x67>
    2263:	8d 04 d5 00 00 00 00 	lea    0x0(,%edx,8),%eax
    226a:	29 d0                	sub    %edx,%eax
    226c:	c1 e0 02             	shl    $0x2,%eax
    226f:	80 b8 60 b6 00 00 00 	cmpb   $0x0,0xb660(%eax)
    2276:	74 09                	je     2281 <mon_headq+0x32>
    2278:	83 b8 68 b6 00 00 00 	cmpl   $0x0,0xb668(%eax)
    227f:	75 07                	jne    2288 <mon_headq+0x39>
    2281:	b8 00 00 00 00       	mov    $0x0,%eax
    2286:	eb 2e                	jmp    22b6 <mon_headq+0x67>
    2288:	8d 1c d5 00 00 00 00 	lea    0x0(,%edx,8),%ebx
    228f:	29 d3                	sub    %edx,%ebx
    2291:	8d 1c 9d 60 b6 00 00 	lea    0xb660(,%ebx,4),%ebx
    2298:	83 ec 0c             	sub    $0xc,%esp
    229b:	8d 45 fa             	lea    0xfffffffa(%ebp),%eax
    229e:	50                   	push   %eax
    229f:	e8 18 e5 ff ff       	call   7bc <disable>
    22a4:	8b 43 18             	mov    0x18(%ebx),%eax
    22a7:	8b 18                	mov    (%eax),%ebx
    22a9:	8d 45 fa             	lea    0xfffffffa(%ebp),%eax
    22ac:	89 04 24             	mov    %eax,(%esp)
    22af:	e8 30 e5 ff ff       	call   7e4 <restore>
    22b4:	89 d8                	mov    %ebx,%eax
    22b6:	8b 5d fc             	mov    0xfffffffc(%ebp),%ebx
    22b9:	c9                   	leave  
    22ba:	c3                   	ret    
    22bb:	90                   	nop    

000022bc <mon_ethintr>:
    22bc:	55                   	push   %ebp
    22bd:	89 e5                	mov    %esp,%ebp
    22bf:	57                   	push   %edi
    22c0:	56                   	push   %esi
    22c1:	53                   	push   %ebx
    22c2:	83 ec 18             	sub    $0x18,%esp
    22c5:	8d 45 f2             	lea    0xfffffff2(%ebp),%eax
    22c8:	50                   	push   %eax
    22c9:	e8 ee e4 ff ff       	call   7bc <disable>
    22ce:	83 c4 10             	add    $0x10,%esp
    22d1:	66 a1 b0 8c 01 00    	mov    0x18cb0,%ax
    22d7:	89 c7                	mov    %eax,%edi
    22d9:	81 e7 ff ff 00 00    	and    $0xffff,%edi
    22df:	8d 77 01             	lea    0x1(%edi),%esi
    22e2:	83 ec 0c             	sub    $0xc,%esp
    22e5:	56                   	push   %esi
    22e6:	e8 a1 dd ff ff       	call   8c <inb>
    22eb:	83 c4 10             	add    $0x10,%esp
    22ee:	89 c3                	mov    %eax,%ebx
    22f0:	83 e3 0f             	and    $0xf,%ebx
    22f3:	74 57                	je     234c <mon_ethintr+0x90>
    22f5:	f6 c3 08             	test   $0x8,%bl
    22f8:	74 0e                	je     2308 <mon_ethintr+0x4c>
    22fa:	83 ec 08             	sub    $0x8,%esp
    22fd:	6a 08                	push   $0x8
    22ff:	56                   	push   %esi
    2300:	e8 a0 dd ff ff       	call   a5 <outb>
    2305:	83 c4 10             	add    $0x10,%esp
    2308:	f6 c3 04             	test   $0x4,%bl
    230b:	74 1c                	je     2329 <mon_ethintr+0x6d>
    230d:	83 ec 08             	sub    $0x8,%esp
    2310:	6a 04                	push   $0x4
    2312:	56                   	push   %esi
    2313:	e8 8d dd ff ff       	call   a5 <outb>
    2318:	83 c4 08             	add    $0x8,%esp
    231b:	57                   	push   %edi
    231c:	68 a0 8c 01 00       	push   $0x18ca0
    2321:	e8 3f 00 00 00       	call   2365 <eep_xintr>
    2326:	83 c4 10             	add    $0x10,%esp
    2329:	f6 c3 03             	test   $0x3,%bl
    232c:	74 b4                	je     22e2 <mon_ethintr+0x26>
    232e:	83 ec 08             	sub    $0x8,%esp
    2331:	6a 03                	push   $0x3
    2333:	56                   	push   %esi
    2334:	e8 6c dd ff ff       	call   a5 <outb>
    2339:	83 c4 08             	add    $0x8,%esp
    233c:	57                   	push   %edi
    233d:	68 a0 8c 01 00       	push   $0x18ca0
    2342:	e8 dd 0a 00 00       	call   2e24 <mon_ethdemux>
    2347:	83 c4 10             	add    $0x10,%esp
    234a:	eb 96                	jmp    22e2 <mon_ethintr+0x26>
    234c:	83 ec 0c             	sub    $0xc,%esp
    234f:	8d 45 f2             	lea    0xfffffff2(%ebp),%eax
    2352:	50                   	push   %eax
    2353:	e8 8c e4 ff ff       	call   7e4 <restore>
    2358:	b8 01 00 00 00       	mov    $0x1,%eax
    235d:	8d 65 f4             	lea    0xfffffff4(%ebp),%esp
    2360:	5b                   	pop    %ebx
    2361:	5e                   	pop    %esi
    2362:	5f                   	pop    %edi
    2363:	5d                   	pop    %ebp
    2364:	c3                   	ret    

00002365 <eep_xintr>:
    2365:	55                   	push   %ebp
    2366:	89 e5                	mov    %esp,%ebp
    2368:	57                   	push   %edi
    2369:	56                   	push   %esi
    236a:	53                   	push   %ebx
    236b:	83 ec 0c             	sub    $0xc,%esp
    236e:	8b 75 08             	mov    0x8(%ebp),%esi
    2371:	8b 55 0c             	mov    0xc(%ebp),%edx
    2374:	bf 00 00 00 00       	mov    $0x0,%edi
    2379:	8d 42 0c             	lea    0xc(%edx),%eax
    237c:	66 89 45 f2          	mov    %ax,0xfffffff2(%ebp)
    2380:	8d 4a 0e             	lea    0xe(%edx),%ecx
    2383:	66 8b 46 16          	mov    0x16(%esi),%ax
    2387:	66 3b 46 18          	cmp    0x18(%esi),%ax
    238b:	0f 84 ab 00 00 00    	je     243c <eep_xintr+0xd7>
    2391:	89 cb                	mov    %ecx,%ebx
    2393:	81 e3 ff ff 00 00    	and    $0xffff,%ebx
    2399:	81 e2 ff ff 00 00    	and    $0xffff,%edx
    239f:	89 55 ec             	mov    %edx,0xffffffec(%ebp)
    23a2:	83 ec 08             	sub    $0x8,%esp
    23a5:	66 8b 46 16          	mov    0x16(%esi),%ax
    23a9:	25 ff ff 00 00       	and    $0xffff,%eax
    23ae:	50                   	push   %eax
    23af:	66 8b 45 f2          	mov    0xfffffff2(%ebp),%ax
    23b3:	25 ff ff 00 00       	and    $0xffff,%eax
    23b8:	50                   	push   %eax
    23b9:	e8 f1 dc ff ff       	call   af <outw>
    23be:	89 1c 24             	mov    %ebx,(%esp)
    23c1:	e8 ce dc ff ff       	call   94 <inw>
    23c6:	83 c4 10             	add    $0x10,%esp
    23c9:	84 c0                	test   %al,%al
    23cb:	79 6f                	jns    243c <eep_xintr+0xd7>
    23cd:	83 ec 0c             	sub    $0xc,%esp
    23d0:	53                   	push   %ebx
    23d1:	e8 be dc ff ff       	call   94 <inw>
    23d6:	83 c4 10             	add    $0x10,%esp
    23d9:	f6 c4 20             	test   $0x20,%ah
    23dc:	75 05                	jne    23e3 <eep_xintr+0x7e>
    23de:	bf 01 00 00 00       	mov    $0x1,%edi
    23e3:	83 ec 0c             	sub    $0xc,%esp
    23e6:	53                   	push   %ebx
    23e7:	e8 a8 dc ff ff       	call   94 <inw>
    23ec:	66 89 46 16          	mov    %ax,0x16(%esi)
    23f0:	83 c4 10             	add    $0x10,%esp
    23f3:	89 fa                	mov    %edi,%edx
    23f5:	84 d2                	test   %dl,%dl
    23f7:	74 35                	je     242e <eep_xintr+0xc9>
    23f9:	83 ec 08             	sub    $0x8,%esp
    23fc:	25 ff ff 00 00       	and    $0xffff,%eax
    2401:	50                   	push   %eax
    2402:	8b 7d ec             	mov    0xffffffec(%ebp),%edi
    2405:	8d 47 0a             	lea    0xa(%edi),%eax
    2408:	50                   	push   %eax
    2409:	e8 a1 dc ff ff       	call   af <outw>
    240e:	83 c4 10             	add    $0x10,%esp
    2411:	66 8b 46 16          	mov    0x16(%esi),%ax
    2415:	66 3b 46 18          	cmp    0x18(%esi),%ax
    2419:	74 0e                	je     2429 <eep_xintr+0xc4>
    241b:	83 ec 08             	sub    $0x8,%esp
    241e:	6a 04                	push   $0x4
    2420:	57                   	push   %edi
    2421:	e8 7f dc ff ff       	call   a5 <outb>
    2426:	83 c4 10             	add    $0x10,%esp
    2429:	bf 00 00 00 00       	mov    $0x0,%edi
    242e:	66 8b 46 16          	mov    0x16(%esi),%ax
    2432:	66 3b 46 18          	cmp    0x18(%esi),%ax
    2436:	0f 85 66 ff ff ff    	jne    23a2 <eep_xintr+0x3d>
    243c:	83 ec 0c             	sub    $0xc,%esp
    243f:	ff 76 0c             	pushl  0xc(%esi)
    2442:	e8 ab fd ff ff       	call   21f2 <mon_lenq>
    2447:	83 c4 10             	add    $0x10,%esp
    244a:	85 c0                	test   %eax,%eax
    244c:	74 0c                	je     245a <eep_xintr+0xf5>
    244e:	83 ec 0c             	sub    $0xc,%esp
    2451:	56                   	push   %esi
    2452:	e8 41 0b 00 00       	call   2f98 <mon_ethwstrt>
    2457:	83 c4 10             	add    $0x10,%esp
    245a:	b8 01 00 00 00       	mov    $0x1,%eax
    245f:	8d 65 f4             	lea    0xfffffff4(%ebp),%esp
    2462:	5b                   	pop    %ebx
    2463:	5e                   	pop    %esi
    2464:	5f                   	pop    %edi
    2465:	5d                   	pop    %ebp
    2466:	c3                   	ret    
    2467:	90                   	nop    

00002468 <mon_ethwrite>:
    2468:	55                   	push   %ebp
    2469:	89 e5                	mov    %esp,%ebp
    246b:	57                   	push   %edi
    246c:	56                   	push   %esi
    246d:	53                   	push   %ebx
    246e:	83 ec 0c             	sub    $0xc,%esp
    2471:	8b 75 08             	mov    0x8(%ebp),%esi
    2474:	8b 5d 0c             	mov    0xc(%ebp),%ebx
    2477:	bf a0 8c 01 00       	mov    $0x18ca0,%edi
    247c:	81 fb ea 05 00 00    	cmp    $0x5ea,%ebx
    2482:	7e 13                	jle    2497 <mon_ethwrite+0x2f>
    2484:	83 ec 0c             	sub    $0xc,%esp
    2487:	56                   	push   %esi
    2488:	e8 7f 26 00 00       	call   4b0c <freebuf>
    248d:	b8 ff ff ff ff       	mov    $0xffffffff,%eax
    2492:	e9 92 00 00 00       	jmp    2529 <mon_ethwrite+0xc1>
    2497:	83 fb 3b             	cmp    $0x3b,%ebx
    249a:	7f 05                	jg     24a1 <mon_ethwrite+0x39>
    249c:	bb 3c 00 00 00       	mov    $0x3c,%ebx
    24a1:	83 ec 04             	sub    $0x4,%esp
    24a4:	6a 06                	push   $0x6
    24a6:	57                   	push   %edi
    24a7:	8d 46 0e             	lea    0xe(%esi),%eax
    24aa:	50                   	push   %eax
    24ab:	e8 b0 6b 00 00       	call   9060 <blkcopy>
    24b0:	66 89 5e 06          	mov    %bx,0x6(%esi)
    24b4:	66 8b 46 14          	mov    0x14(%esi),%ax
    24b8:	89 c2                	mov    %eax,%edx
    24ba:	66 c1 ea 08          	shr    $0x8,%dx
    24be:	25 ff 00 00 00       	and    $0xff,%eax
    24c3:	c1 e0 08             	shl    $0x8,%eax
    24c6:	09 c2                	or     %eax,%edx
    24c8:	66 89 56 14          	mov    %dx,0x14(%esi)
    24cc:	83 c4 0c             	add    $0xc,%esp
    24cf:	6a 00                	push   $0x0
    24d1:	56                   	push   %esi
    24d2:	ff 77 0c             	pushl  0xc(%edi)
    24d5:	e8 fe fa ff ff       	call   1fd8 <mon_enq>
    24da:	83 c4 10             	add    $0x10,%esp
    24dd:	85 c0                	test   %eax,%eax
    24df:	79 24                	jns    2505 <mon_ethwrite+0x9d>
    24e1:	83 ec 0c             	sub    $0xc,%esp
    24e4:	ff 77 0c             	pushl  0xc(%edi)
    24e7:	e8 06 fd ff ff       	call   21f2 <mon_lenq>
    24ec:	83 c4 08             	add    $0x8,%esp
    24ef:	50                   	push   %eax
    24f0:	68 68 9b 00 00       	push   $0x9b68
    24f5:	e8 6e 35 00 00       	call   5a68 <kprintf>
    24fa:	89 34 24             	mov    %esi,(%esp)
    24fd:	e8 0a 26 00 00       	call   4b0c <freebuf>
    2502:	83 c4 10             	add    $0x10,%esp
    2505:	83 ec 0c             	sub    $0xc,%esp
    2508:	8d 45 f2             	lea    0xfffffff2(%ebp),%eax
    250b:	50                   	push   %eax
    250c:	e8 ab e2 ff ff       	call   7bc <disable>
    2511:	89 3c 24             	mov    %edi,(%esp)
    2514:	e8 7f 0a 00 00       	call   2f98 <mon_ethwstrt>
    2519:	8d 45 f2             	lea    0xfffffff2(%ebp),%eax
    251c:	89 04 24             	mov    %eax,(%esp)
    251f:	e8 c0 e2 ff ff       	call   7e4 <restore>
    2524:	b8 01 00 00 00       	mov    $0x1,%eax
    2529:	8d 65 f4             	lea    0xfffffff4(%ebp),%esp
    252c:	5b                   	pop    %ebx
    252d:	5e                   	pop    %esi
    252e:	5f                   	pop    %edi
    252f:	5d                   	pop    %ebp
    2530:	c3                   	ret    
    2531:	90                   	nop    
    2532:	90                   	nop    
    2533:	90                   	nop    

00002534 <mon_ethinit>:
    2534:	55                   	push   %ebp
    2535:	89 e5                	mov    %esp,%ebp
    2537:	56                   	push   %esi
    2538:	53                   	push   %ebx
    2539:	be a0 8c 01 00       	mov    $0x18ca0,%esi
    253e:	83 ec 0c             	sub    $0xc,%esp
    2541:	6a 10                	push   $0x10
    2543:	e8 11 fc ff ff       	call   2159 <mon_newq>
    2548:	a3 ac 8c 01 00       	mov    %eax,0x18cac
    254d:	66 c7 05 b0 8c 01 00 	movw   $0x0,0x18cb0
    2554:	00 00 
    2556:	e8 65 11 00 00       	call   36c0 <mon_pci_init>
    255b:	83 c4 10             	add    $0x10,%esp
    255e:	83 f8 01             	cmp    $0x1,%eax
    2561:	0f 85 83 00 00 00    	jne    25ea <mon_ethinit+0xb6>
    2567:	83 ec 0c             	sub    $0xc,%esp
    256a:	68 87 9b 00 00       	push   $0x9b87
    256f:	e8 f4 34 00 00       	call   5a68 <kprintf>
    2574:	83 c4 0c             	add    $0xc,%esp
    2577:	6a 00                	push   $0x0
    2579:	68 b7 10 00 00       	push   $0x10b7
    257e:	68 00 92 00 00       	push   $0x9200
    2583:	e8 a7 13 00 00       	call   392f <mon_find_pci_device>
    2588:	83 c4 10             	add    $0x10,%esp
    258b:	83 f8 01             	cmp    $0x1,%eax
    258e:	75 1c                	jne    25ac <mon_ethinit+0x78>
    2590:	83 ec 0c             	sub    $0xc,%esp
    2593:	68 a0 9b 00 00       	push   $0x9ba0
    2598:	e8 cb 34 00 00       	call   5a68 <kprintf>
    259d:	e8 20 15 00 00       	call   3ac2 <mon_3c905_ethinit>
    25a2:	b8 01 00 00 00       	mov    $0x1,%eax
    25a7:	e9 8c 00 00 00       	jmp    2638 <mon_ethinit+0x104>
    25ac:	83 ec 04             	sub    $0x4,%esp
    25af:	6a 00                	push   $0x0
    25b1:	68 86 80 00 00       	push   $0x8086
    25b6:	68 29 12 00 00       	push   $0x1229
    25bb:	e8 6f 13 00 00       	call   392f <mon_find_pci_device>
    25c0:	83 c4 10             	add    $0x10,%esp
    25c3:	83 f8 01             	cmp    $0x1,%eax
    25c6:	75 12                	jne    25da <mon_ethinit+0xa6>
    25c8:	83 ec 0c             	sub    $0xc,%esp
    25cb:	68 d0 9b 00 00       	push   $0x9bd0
    25d0:	e8 93 34 00 00       	call   5a68 <kprintf>
    25d5:	83 c4 10             	add    $0x10,%esp
    25d8:	eb 10                	jmp    25ea <mon_ethinit+0xb6>
    25da:	83 ec 0c             	sub    $0xc,%esp
    25dd:	68 04 9c 00 00       	push   $0x9c04
    25e2:	e8 81 34 00 00       	call   5a68 <kprintf>
    25e7:	83 c4 10             	add    $0x10,%esp
    25ea:	83 ec 08             	sub    $0x8,%esp
    25ed:	bb 00 00 00 00       	mov    $0x0,%ebx
    25f2:	53                   	push   %ebx
    25f3:	56                   	push   %esi
    25f4:	e8 46 00 00 00       	call   263f <eep_probe>
    25f9:	83 c4 10             	add    $0x10,%esp
    25fc:	83 f8 ff             	cmp    $0xffffffff,%eax
    25ff:	75 15                	jne    2616 <mon_ethinit+0xe2>
    2601:	83 ec 08             	sub    $0x8,%esp
    2604:	53                   	push   %ebx
    2605:	68 38 9c 00 00       	push   $0x9c38
    260a:	e8 59 34 00 00       	call   5a68 <kprintf>
    260f:	b8 ff ff ff ff       	mov    $0xffffffff,%eax
    2614:	eb 22                	jmp    2638 <mon_ethinit+0x104>
    2616:	83 ec 08             	sub    $0x8,%esp
    2619:	66 8b 46 10          	mov    0x10(%esi),%ax
    261d:	25 ff ff 00 00       	and    $0xffff,%eax
    2622:	50                   	push   %eax
    2623:	56                   	push   %esi
    2624:	e8 57 04 00 00       	call   2a80 <i82595_init>
    2629:	c7 05 88 8c 01 00 68 	movl   $0x2468,0x18c88
    2630:	24 00 00 
    2633:	b8 01 00 00 00       	mov    $0x1,%eax
    2638:	8d 65 f8             	lea    0xfffffff8(%ebp),%esp
    263b:	5b                   	pop    %ebx
    263c:	5e                   	pop    %esi
    263d:	5d                   	pop    %ebp
    263e:	c3                   	ret    

0000263f <eep_probe>:
    263f:	55                   	push   %ebp
    2640:	89 e5                	mov    %esp,%ebp
    2642:	57                   	push   %edi
    2643:	56                   	push   %esi
    2644:	53                   	push   %ebx
    2645:	83 ec 18             	sub    $0x18,%esp
    2648:	8b 75 08             	mov    0x8(%ebp),%esi
    264b:	8b 7d 0c             	mov    0xc(%ebp),%edi
    264e:	89 f8                	mov    %edi,%eax
    2650:	25 ff ff 00 00       	and    $0xffff,%eax
    2655:	50                   	push   %eax
    2656:	e8 6f 01 00 00       	call   27ca <search_eepro>
    265b:	83 c4 10             	add    $0x10,%esp
    265e:	b9 ff ff ff ff       	mov    $0xffffffff,%ecx
    2663:	66 85 c0             	test   %ax,%ax
    2666:	0f 84 54 01 00 00    	je     27c0 <eep_probe+0x181>
    266c:	66 39 f8             	cmp    %di,%ax
    266f:	74 06                	je     2677 <eep_probe+0x38>
    2671:	89 c7                	mov    %eax,%edi
    2673:	66 89 46 10          	mov    %ax,0x10(%esi)
    2677:	83 ec 08             	sub    $0x8,%esp
    267a:	6a 04                	push   $0x4
    267c:	0f bf df             	movswl %di,%ebx
    267f:	53                   	push   %ebx
    2680:	e8 03 0b 00 00       	call   3188 <mon_ethromread>
    2685:	89 c2                	mov    %eax,%edx
    2687:	66 c1 e8 08          	shr    $0x8,%ax
    268b:	88 06                	mov    %al,(%esi)
    268d:	88 56 01             	mov    %dl,0x1(%esi)
    2690:	83 c4 08             	add    $0x8,%esp
    2693:	6a 03                	push   $0x3
    2695:	53                   	push   %ebx
    2696:	e8 ed 0a 00 00       	call   3188 <mon_ethromread>
    269b:	89 c2                	mov    %eax,%edx
    269d:	66 c1 e8 08          	shr    $0x8,%ax
    26a1:	88 46 02             	mov    %al,0x2(%esi)
    26a4:	88 56 03             	mov    %dl,0x3(%esi)
    26a7:	83 c4 08             	add    $0x8,%esp
    26aa:	6a 02                	push   $0x2
    26ac:	53                   	push   %ebx
    26ad:	e8 d6 0a 00 00       	call   3188 <mon_ethromread>
    26b2:	89 c2                	mov    %eax,%edx
    26b4:	66 c1 e8 08          	shr    $0x8,%ax
    26b8:	88 46 04             	mov    %al,0x4(%esi)
    26bb:	88 56 05             	mov    %dl,0x5(%esi)
    26be:	8b 06                	mov    (%esi),%eax
    26c0:	25 ff ff ff 00       	and    $0xffffff,%eax
    26c5:	83 c4 10             	add    $0x10,%esp
    26c8:	b9 ff ff ff ff       	mov    $0xffffffff,%ecx
    26cd:	3d 00 aa 00 00       	cmp    $0xaa00,%eax
    26d2:	0f 85 e8 00 00 00    	jne    27c0 <eep_probe+0x181>
    26d8:	ba 00 00 00 00       	mov    $0x0,%edx
    26dd:	89 d0                	mov    %edx,%eax
    26df:	25 ff ff 00 00       	and    $0xffff,%eax
    26e4:	c6 44 06 06 ff       	movb   $0xff,0x6(%esi,%eax,1)
    26e9:	42                   	inc    %edx
    26ea:	66 83 fa 05          	cmp    $0x5,%dx
    26ee:	76 ed                	jbe    26dd <eep_probe+0x9e>
    26f0:	83 ec 08             	sub    $0x8,%esp
    26f3:	6a 01                	push   $0x1
    26f5:	0f bf c7             	movswl %di,%eax
    26f8:	50                   	push   %eax
    26f9:	e8 8a 0a 00 00       	call   3188 <mon_ethromread>
    26fe:	89 c2                	mov    %eax,%edx
    2700:	83 c4 10             	add    $0x10,%esp
    2703:	89 d0                	mov    %edx,%eax
    2705:	83 e0 07             	and    $0x7,%eax
    2708:	83 f8 04             	cmp    $0x4,%eax
    270b:	77 2a                	ja     2737 <eep_probe+0xf8>
    270d:	ff 24 85 c8 9c 00 00 	jmp    *0x9cc8(,%eax,4)
    2714:	b8 09 00 00 00       	mov    $0x9,%eax
    2719:	eb 30                	jmp    274b <eep_probe+0x10c>
    271b:	b8 03 00 00 00       	mov    $0x3,%eax
    2720:	eb 29                	jmp    274b <eep_probe+0x10c>
    2722:	b8 05 00 00 00       	mov    $0x5,%eax
    2727:	eb 22                	jmp    274b <eep_probe+0x10c>
    2729:	b8 0a 00 00 00       	mov    $0xa,%eax
    272e:	eb 1b                	jmp    274b <eep_probe+0x10c>
    2730:	b8 0b 00 00 00       	mov    $0xb,%eax
    2735:	eb 14                	jmp    274b <eep_probe+0x10c>
    2737:	83 ec 0c             	sub    $0xc,%esp
    273a:	68 64 9c 00 00       	push   $0x9c64
    273f:	e8 24 33 00 00       	call   5a68 <kprintf>
    2744:	b9 ff ff ff ff       	mov    $0xffffffff,%ecx
    2749:	eb 75                	jmp    27c0 <eep_probe+0x181>
    274b:	66 89 46 12          	mov    %ax,0x12(%esi)
    274f:	83 ec 08             	sub    $0x8,%esp
    2752:	68 b0 8c 00 00       	push   $0x8cb0
    2757:	83 c0 20             	add    $0x20,%eax
    275a:	50                   	push   %eax
    275b:	e8 82 21 00 00       	call   48e2 <set_evec>
    2760:	89 f8                	mov    %edi,%eax
    2762:	25 ff ff 00 00       	and    $0xffff,%eax
    2767:	89 04 24             	mov    %eax,(%esp)
    276a:	e8 72 01 00 00       	call   28e1 <check_mem_size>
    276f:	83 c4 10             	add    $0x10,%esp
    2772:	83 f8 20             	cmp    $0x20,%eax
    2775:	74 07                	je     277e <eep_probe+0x13f>
    2777:	83 f8 40             	cmp    $0x40,%eax
    277a:	74 11                	je     278d <eep_probe+0x14e>
    277c:	eb 1e                	jmp    279c <eep_probe+0x15d>
    277e:	c7 46 20 00 80 00 00 	movl   $0x8000,0x20(%esi)
    2785:	66 c7 46 24 00 18    	movw   $0x1800,0x24(%esi)
    278b:	eb 23                	jmp    27b0 <eep_probe+0x171>
    278d:	c7 46 20 00 00 01 00 	movl   $0x10000,0x20(%esi)
    2794:	66 c7 46 24 00 30    	movw   $0x3000,0x24(%esi)
    279a:	eb 14                	jmp    27b0 <eep_probe+0x171>
    279c:	83 ec 0c             	sub    $0xc,%esp
    279f:	68 9c 9c 00 00       	push   $0x9c9c
    27a4:	e8 bf 32 00 00       	call   5a68 <kprintf>
    27a9:	b9 ff ff ff ff       	mov    $0xffffffff,%ecx
    27ae:	eb 10                	jmp    27c0 <eep_probe+0x181>
    27b0:	8b 46 20             	mov    0x20(%esi),%eax
    27b3:	66 2b 46 24          	sub    0x24(%esi),%ax
    27b7:	66 89 46 26          	mov    %ax,0x26(%esi)
    27bb:	b9 01 00 00 00       	mov    $0x1,%ecx
    27c0:	89 c8                	mov    %ecx,%eax
    27c2:	8d 65 f4             	lea    0xfffffff4(%ebp),%esp
    27c5:	5b                   	pop    %ebx
    27c6:	5e                   	pop    %esi
    27c7:	5f                   	pop    %edi
    27c8:	5d                   	pop    %ebp
    27c9:	c3                   	ret    

000027ca <search_eepro>:
    27ca:	55                   	push   %ebp
    27cb:	89 e5                	mov    %esp,%ebp
    27cd:	56                   	push   %esi
    27ce:	53                   	push   %ebx
    27cf:	8b 5d 08             	mov    0x8(%ebp),%ebx
    27d2:	83 ec 0c             	sub    $0xc,%esp
    27d5:	89 d8                	mov    %ebx,%eax
    27d7:	25 ff ff 00 00       	and    $0xffff,%eax
    27dc:	50                   	push   %eax
    27dd:	e8 78 00 00 00       	call   285a <check_board>
    27e2:	83 c4 10             	add    $0x10,%esp
    27e5:	89 c2                	mov    %eax,%edx
    27e7:	83 f8 ff             	cmp    $0xffffffff,%eax
    27ea:	75 65                	jne    2851 <search_eepro+0x87>
    27ec:	eb 08                	jmp    27f6 <search_eepro+0x2c>
    27ee:	89 c2                	mov    %eax,%edx
    27f0:	eb 5f                	jmp    2851 <search_eepro+0x87>
    27f2:	89 c2                	mov    %eax,%edx
    27f4:	eb 5b                	jmp    2851 <search_eepro+0x87>
    27f6:	bb 00 02 00 00       	mov    $0x200,%ebx
    27fb:	be 00 00 00 00       	mov    $0x0,%esi
    2800:	83 ec 0c             	sub    $0xc,%esp
    2803:	89 d8                	mov    %ebx,%eax
    2805:	25 ff ff 00 00       	and    $0xffff,%eax
    280a:	50                   	push   %eax
    280b:	e8 4a 00 00 00       	call   285a <check_board>
    2810:	83 c4 10             	add    $0x10,%esp
    2813:	83 f8 ff             	cmp    $0xffffffff,%eax
    2816:	75 d6                	jne    27ee <search_eepro+0x24>
    2818:	83 c3 10             	add    $0x10,%ebx
    281b:	46                   	inc    %esi
    281c:	83 fe 07             	cmp    $0x7,%esi
    281f:	7e df                	jle    2800 <search_eepro+0x36>
    2821:	bb 00 03 00 00       	mov    $0x300,%ebx
    2826:	be 00 00 00 00       	mov    $0x0,%esi
    282b:	83 ec 0c             	sub    $0xc,%esp
    282e:	89 d8                	mov    %ebx,%eax
    2830:	25 ff ff 00 00       	and    $0xffff,%eax
    2835:	50                   	push   %eax
    2836:	e8 1f 00 00 00       	call   285a <check_board>
    283b:	83 c4 10             	add    $0x10,%esp
    283e:	83 f8 ff             	cmp    $0xffffffff,%eax
    2841:	75 af                	jne    27f2 <search_eepro+0x28>
    2843:	83 c3 10             	add    $0x10,%ebx
    2846:	46                   	inc    %esi
    2847:	83 fe 07             	cmp    $0x7,%esi
    284a:	7e df                	jle    282b <search_eepro+0x61>
    284c:	ba 00 00 00 00       	mov    $0x0,%edx
    2851:	89 d0                	mov    %edx,%eax
    2853:	8d 65 f8             	lea    0xfffffff8(%ebp),%esp
    2856:	5b                   	pop    %ebx
    2857:	5e                   	pop    %esi
    2858:	5d                   	pop    %ebp
    2859:	c3                   	ret    

0000285a <check_board>:
    285a:	55                   	push   %ebp
    285b:	89 e5                	mov    %esp,%ebp
    285d:	57                   	push   %edi
    285e:	56                   	push   %esi
    285f:	53                   	push   %ebx
    2860:	83 ec 0c             	sub    $0xc,%esp
    2863:	8b 45 08             	mov    0x8(%ebp),%eax
    2866:	66 89 45 f2          	mov    %ax,0xfffffff2(%ebp)
    286a:	b3 00                	mov    $0x0,%bl
    286c:	25 ff ff 00 00       	and    $0xffff,%eax
    2871:	8d 70 02             	lea    0x2(%eax),%esi
    2874:	83 ec 0c             	sub    $0xc,%esp
    2877:	56                   	push   %esi
    2878:	e8 0f d8 ff ff       	call   8c <inb>
    287d:	83 e0 ec             	and    $0xffffffec,%eax
    2880:	83 c4 10             	add    $0x10,%esp
    2883:	3c 24                	cmp    $0x24,%al
    2885:	74 06                	je     288d <check_board+0x33>
    2887:	43                   	inc    %ebx
    2888:	80 fb 03             	cmp    $0x3,%bl
    288b:	76 e7                	jbe    2874 <check_board+0x1a>
    288d:	be 40 00 00 00       	mov    $0x40,%esi
    2892:	b3 00                	mov    $0x0,%bl
    2894:	66 8b 45 f2          	mov    0xfffffff2(%ebp),%ax
    2898:	25 ff ff 00 00       	and    $0xffff,%eax
    289d:	8d 78 02             	lea    0x2(%eax),%edi
    28a0:	83 ec 0c             	sub    $0xc,%esp
    28a3:	57                   	push   %edi
    28a4:	e8 e3 d7 ff ff       	call   8c <inb>
    28a9:	25 ec 00 00 00       	and    $0xec,%eax
    28ae:	89 f2                	mov    %esi,%edx
    28b0:	81 e2 ff 00 00 00    	and    $0xff,%edx
    28b6:	83 c2 24             	add    $0x24,%edx
    28b9:	83 c4 10             	add    $0x10,%esp
    28bc:	39 d0                	cmp    %edx,%eax
    28be:	74 07                	je     28c7 <check_board+0x6d>
    28c0:	b8 ff ff ff ff       	mov    $0xffffffff,%eax
    28c5:	eb 12                	jmp    28d9 <check_board+0x7f>
    28c7:	83 c6 40             	add    $0x40,%esi
    28ca:	43                   	inc    %ebx
    28cb:	80 fb 02             	cmp    $0x2,%bl
    28ce:	76 d0                	jbe    28a0 <check_board+0x46>
    28d0:	66 8b 45 f2          	mov    0xfffffff2(%ebp),%ax
    28d4:	25 ff ff 00 00       	and    $0xffff,%eax
    28d9:	8d 65 f4             	lea    0xfffffff4(%ebp),%esp
    28dc:	5b                   	pop    %ebx
    28dd:	5e                   	pop    %esi
    28de:	5f                   	pop    %edi
    28df:	5d                   	pop    %ebp
    28e0:	c3                   	ret    

000028e1 <check_mem_size>:
    28e1:	55                   	push   %ebp
    28e2:	89 e5                	mov    %esp,%ebp
    28e4:	57                   	push   %edi
    28e5:	56                   	push   %esi
    28e6:	53                   	push   %ebx
    28e7:	83 ec 14             	sub    $0x14,%esp
    28ea:	8b 45 08             	mov    0x8(%ebp),%eax
    28ed:	8d 50 0e             	lea    0xe(%eax),%edx
    28f0:	66 89 55 f2          	mov    %dx,0xfffffff2(%ebp)
    28f4:	8d 50 0c             	lea    0xc(%eax),%edx
    28f7:	66 89 55 f0          	mov    %dx,0xfffffff0(%ebp)
    28fb:	6a 00                	push   $0x0
    28fd:	25 ff ff 00 00       	and    $0xffff,%eax
    2902:	50                   	push   %eax
    2903:	e8 9d d7 ff ff       	call   a5 <outb>
    2908:	83 c4 08             	add    $0x8,%esp
    290b:	6a 00                	push   $0x0
    290d:	8b 45 f0             	mov    0xfffffff0(%ebp),%eax
    2910:	25 ff ff 00 00       	and    $0xffff,%eax
    2915:	50                   	push   %eax
    2916:	e8 94 d7 ff ff       	call   af <outw>
    291b:	be 03 00 00 00       	mov    $0x3,%esi
    2920:	bb 00 00 00 00       	mov    $0x0,%ebx
    2925:	83 c4 10             	add    $0x10,%esp
    2928:	66 8b 7d f2          	mov    0xfffffff2(%ebp),%di
    292c:	81 e7 ff ff 00 00    	and    $0xffff,%edi
    2932:	83 ec 08             	sub    $0x8,%esp
    2935:	89 f0                	mov    %esi,%eax
    2937:	25 ff ff 00 00       	and    $0xffff,%eax
    293c:	50                   	push   %eax
    293d:	57                   	push   %edi
    293e:	e8 6c d7 ff ff       	call   af <outw>
    2943:	83 c6 03             	add    $0x3,%esi
    2946:	83 c4 10             	add    $0x10,%esp
    2949:	43                   	inc    %ebx
    294a:	66 83 fb 0f          	cmp    $0xf,%bx
    294e:	76 e2                	jbe    2932 <check_mem_size+0x51>
    2950:	83 ec 08             	sub    $0x8,%esp
    2953:	6a 00                	push   $0x0
    2955:	8b 45 f0             	mov    0xfffffff0(%ebp),%eax
    2958:	25 ff ff 00 00       	and    $0xffff,%eax
    295d:	50                   	push   %eax
    295e:	e8 4c d7 ff ff       	call   af <outw>
    2963:	be 03 00 00 00       	mov    $0x3,%esi
    2968:	bb 00 00 00 00       	mov    $0x0,%ebx
    296d:	83 c4 10             	add    $0x10,%esp
    2970:	66 8b 7d f2          	mov    0xfffffff2(%ebp),%di
    2974:	81 e7 ff ff 00 00    	and    $0xffff,%edi
    297a:	83 ec 0c             	sub    $0xc,%esp
    297d:	57                   	push   %edi
    297e:	e8 11 d7 ff ff       	call   94 <inw>
    2983:	83 c4 10             	add    $0x10,%esp
    2986:	66 39 c6             	cmp    %ax,%si
    2989:	74 0a                	je     2995 <check_mem_size+0xb4>
    298b:	b8 ff ff ff ff       	mov    $0xffffffff,%eax
    2990:	e9 e3 00 00 00       	jmp    2a78 <check_mem_size+0x197>
    2995:	83 c6 03             	add    $0x3,%esi
    2998:	43                   	inc    %ebx
    2999:	66 83 fb 0f          	cmp    $0xf,%bx
    299d:	76 db                	jbe    297a <check_mem_size+0x99>
    299f:	83 ec 08             	sub    $0x8,%esp
    29a2:	68 00 80 00 00       	push   $0x8000
    29a7:	8b 45 f0             	mov    0xfffffff0(%ebp),%eax
    29aa:	25 ff ff 00 00       	and    $0xffff,%eax
    29af:	50                   	push   %eax
    29b0:	e8 fa d6 ff ff       	call   af <outw>
    29b5:	be 09 00 00 00       	mov    $0x9,%esi
    29ba:	bb 00 00 00 00       	mov    $0x0,%ebx
    29bf:	83 c4 10             	add    $0x10,%esp
    29c2:	66 8b 7d f2          	mov    0xfffffff2(%ebp),%di
    29c6:	81 e7 ff ff 00 00    	and    $0xffff,%edi
    29cc:	83 ec 08             	sub    $0x8,%esp
    29cf:	89 f0                	mov    %esi,%eax
    29d1:	25 ff ff 00 00       	and    $0xffff,%eax
    29d6:	50                   	push   %eax
    29d7:	57                   	push   %edi
    29d8:	e8 d2 d6 ff ff       	call   af <outw>
    29dd:	83 c6 03             	add    $0x3,%esi
    29e0:	83 c4 10             	add    $0x10,%esp
    29e3:	43                   	inc    %ebx
    29e4:	66 83 fb 0f          	cmp    $0xf,%bx
    29e8:	76 e2                	jbe    29cc <check_mem_size+0xeb>
    29ea:	83 ec 08             	sub    $0x8,%esp
    29ed:	6a 00                	push   $0x0
    29ef:	8b 45 f0             	mov    0xfffffff0(%ebp),%eax
    29f2:	25 ff ff 00 00       	and    $0xffff,%eax
    29f7:	50                   	push   %eax
    29f8:	e8 b2 d6 ff ff       	call   af <outw>
    29fd:	bb 00 00 00 00       	mov    $0x0,%ebx
    2a02:	83 c4 10             	add    $0x10,%esp
    2a05:	66 8b 75 f2          	mov    0xfffffff2(%ebp),%si
    2a09:	81 e6 ff ff 00 00    	and    $0xffff,%esi
    2a0f:	83 ec 08             	sub    $0x8,%esp
    2a12:	6a 00                	push   $0x0
    2a14:	56                   	push   %esi
    2a15:	e8 95 d6 ff ff       	call   af <outw>
    2a1a:	83 c4 10             	add    $0x10,%esp
    2a1d:	43                   	inc    %ebx
    2a1e:	66 83 fb 0f          	cmp    $0xf,%bx
    2a22:	76 eb                	jbe    2a0f <check_mem_size+0x12e>
    2a24:	83 ec 08             	sub    $0x8,%esp
    2a27:	68 00 80 00 00       	push   $0x8000
    2a2c:	8b 45 f0             	mov    0xfffffff0(%ebp),%eax
    2a2f:	25 ff ff 00 00       	and    $0xffff,%eax
    2a34:	50                   	push   %eax
    2a35:	e8 75 d6 ff ff       	call   af <outw>
    2a3a:	be 09 00 00 00       	mov    $0x9,%esi
    2a3f:	bb 00 00 00 00       	mov    $0x0,%ebx
    2a44:	83 c4 10             	add    $0x10,%esp
    2a47:	66 8b 7d f2          	mov    0xfffffff2(%ebp),%di
    2a4b:	81 e7 ff ff 00 00    	and    $0xffff,%edi
    2a51:	83 ec 0c             	sub    $0xc,%esp
    2a54:	57                   	push   %edi
    2a55:	e8 3a d6 ff ff       	call   94 <inw>
    2a5a:	83 c4 10             	add    $0x10,%esp
    2a5d:	66 39 c6             	cmp    %ax,%si
    2a60:	74 07                	je     2a69 <check_mem_size+0x188>
    2a62:	b8 20 00 00 00       	mov    $0x20,%eax
    2a67:	eb 0f                	jmp    2a78 <check_mem_size+0x197>
    2a69:	83 c6 03             	add    $0x3,%esi
    2a6c:	43                   	inc    %ebx
    2a6d:	66 83 fb 0f          	cmp    $0xf,%bx
    2a71:	76 de                	jbe    2a51 <check_mem_size+0x170>
    2a73:	b8 40 00 00 00       	mov    $0x40,%eax
    2a78:	8d 65 f4             	lea    0xfffffff4(%ebp),%esp
    2a7b:	5b                   	pop    %ebx
    2a7c:	5e                   	pop    %esi
    2a7d:	5f                   	pop    %edi
    2a7e:	5d                   	pop    %ebp
    2a7f:	c3                   	ret    

00002a80 <i82595_init>:
    2a80:	55                   	push   %ebp
    2a81:	89 e5                	mov    %esp,%ebp
    2a83:	57                   	push   %edi
    2a84:	56                   	push   %esi
    2a85:	53                   	push   %ebx
    2a86:	83 ec 10             	sub    $0x10,%esp
    2a89:	8b 45 0c             	mov    0xc(%ebp),%eax
    2a8c:	66 89 45 f2          	mov    %ax,0xfffffff2(%ebp)
    2a90:	6a 0e                	push   $0xe
    2a92:	6a 0e                	push   $0xe
    2a94:	25 ff ff 00 00       	and    $0xffff,%eax
    2a99:	50                   	push   %eax
    2a9a:	e8 f9 0a 00 00       	call   3598 <mon_ethcmd>
    2a9f:	83 c4 10             	add    $0x10,%esp
    2aa2:	ba ff ff ff ff       	mov    $0xffffffff,%edx
    2aa7:	83 f8 ff             	cmp    $0xffffffff,%eax
    2aaa:	0f 84 63 02 00 00    	je     2d13 <i82595_init+0x293>
    2ab0:	83 ec 08             	sub    $0x8,%esp
    2ab3:	6a 40                	push   $0x40
    2ab5:	66 8b 75 f2          	mov    0xfffffff2(%ebp),%si
    2ab9:	81 e6 ff ff 00 00    	and    $0xffff,%esi
    2abf:	56                   	push   %esi
    2ac0:	e8 e0 d5 ff ff       	call   a5 <outb>
    2ac5:	8d 5e 01             	lea    0x1(%esi),%ebx
    2ac8:	89 1c 24             	mov    %ebx,(%esp)
    2acb:	e8 bc d5 ff ff       	call   8c <inb>
    2ad0:	83 c4 08             	add    $0x8,%esp
    2ad3:	83 c8 80             	or     $0xffffff80,%eax
    2ad6:	25 ff 00 00 00       	and    $0xff,%eax
    2adb:	50                   	push   %eax
    2adc:	53                   	push   %ebx
    2add:	e8 c3 d5 ff ff       	call   a5 <outb>
    2ae2:	8d 7e 02             	lea    0x2(%esi),%edi
    2ae5:	89 3c 24             	mov    %edi,(%esp)
    2ae8:	e8 9f d5 ff ff       	call   8c <inb>
    2aed:	83 c4 08             	add    $0x8,%esp
    2af0:	25 f8 00 00 00       	and    $0xf8,%eax
    2af5:	8b 4d 08             	mov    0x8(%ebp),%ecx
    2af8:	66 8b 51 12          	mov    0x12(%ecx),%dx
    2afc:	81 e2 ff ff 00 00    	and    $0xffff,%edx
    2b02:	0f be 92 b0 b2 00 00 	movsbl 0xb2b0(%edx),%edx
    2b09:	09 d0                	or     %edx,%eax
    2b0b:	50                   	push   %eax
    2b0c:	57                   	push   %edi
    2b0d:	e8 93 d5 ff ff       	call   a5 <outb>
    2b12:	89 1c 24             	mov    %ebx,(%esp)
    2b15:	e8 72 d5 ff ff       	call   8c <inb>
    2b1a:	83 c4 08             	add    $0x8,%esp
    2b1d:	83 c8 80             	or     $0xffffff80,%eax
    2b20:	25 ff 00 00 00       	and    $0xff,%eax
    2b25:	50                   	push   %eax
    2b26:	53                   	push   %ebx
    2b27:	e8 79 d5 ff ff       	call   a5 <outb>
    2b2c:	83 c4 08             	add    $0x8,%esp
    2b2f:	6a 00                	push   $0x0
    2b31:	8d 46 0a             	lea    0xa(%esi),%eax
    2b34:	50                   	push   %eax
    2b35:	e8 6b d5 ff ff       	call   a5 <outb>
    2b3a:	83 c4 08             	add    $0x8,%esp
    2b3d:	8b 55 08             	mov    0x8(%ebp),%edx
    2b40:	b8 00 00 00 00       	mov    $0x0,%eax
    2b45:	8a 42 25             	mov    0x25(%edx),%al
    2b48:	48                   	dec    %eax
    2b49:	50                   	push   %eax
    2b4a:	8d 46 0b             	lea    0xb(%esi),%eax
    2b4d:	50                   	push   %eax
    2b4e:	e8 52 d5 ff ff       	call   a5 <outb>
    2b53:	83 c4 08             	add    $0x8,%esp
    2b56:	8b 4d 08             	mov    0x8(%ebp),%ecx
    2b59:	b8 00 00 00 00       	mov    $0x0,%eax
    2b5e:	8a 41 25             	mov    0x25(%ecx),%al
    2b61:	50                   	push   %eax
    2b62:	8d 46 08             	lea    0x8(%esi),%eax
    2b65:	50                   	push   %eax
    2b66:	e8 3a d5 ff ff       	call   a5 <outb>
    2b6b:	83 c4 08             	add    $0x8,%esp
    2b6e:	8b 55 08             	mov    0x8(%ebp),%edx
    2b71:	8b 42 20             	mov    0x20(%edx),%eax
    2b74:	c1 e8 08             	shr    $0x8,%eax
    2b77:	48                   	dec    %eax
    2b78:	50                   	push   %eax
    2b79:	8d 46 09             	lea    0x9(%esi),%eax
    2b7c:	50                   	push   %eax
    2b7d:	e8 23 d5 ff ff       	call   a5 <outb>
    2b82:	83 c4 08             	add    $0x8,%esp
    2b85:	68 80 00 00 00       	push   $0x80
    2b8a:	56                   	push   %esi
    2b8b:	e8 15 d5 ff ff       	call   a5 <outb>
    2b90:	89 1c 24             	mov    %ebx,(%esp)
    2b93:	e8 f4 d4 ff ff       	call   8c <inb>
    2b98:	83 c4 08             	add    $0x8,%esp
    2b9b:	83 c8 a0             	or     $0xffffffa0,%eax
    2b9e:	25 ff 00 00 00       	and    $0xff,%eax
    2ba3:	50                   	push   %eax
    2ba4:	53                   	push   %ebx
    2ba5:	e8 fb d4 ff ff       	call   a5 <outb>
    2baa:	83 c4 08             	add    $0x8,%esp
    2bad:	6a 14                	push   $0x14
    2baf:	57                   	push   %edi
    2bb0:	e8 f0 d4 ff ff       	call   a5 <outb>
    2bb5:	8d 5e 03             	lea    0x3(%esi),%ebx
    2bb8:	89 1c 24             	mov    %ebx,(%esp)
    2bbb:	e8 cc d4 ff ff       	call   8c <inb>
    2bc0:	83 c4 08             	add    $0x8,%esp
    2bc3:	83 e0 2f             	and    $0x2f,%eax
    2bc6:	50                   	push   %eax
    2bc7:	53                   	push   %ebx
    2bc8:	e8 d8 d4 ff ff       	call   a5 <outb>
    2bcd:	83 c4 08             	add    $0x8,%esp
    2bd0:	6a 00                	push   $0x0
    2bd2:	56                   	push   %esi
    2bd3:	e8 cd d4 ff ff       	call   a5 <outb>
    2bd8:	83 c4 08             	add    $0x8,%esp
    2bdb:	6a 1e                	push   $0x1e
    2bdd:	56                   	push   %esi
    2bde:	e8 c2 d4 ff ff       	call   a5 <outb>
    2be3:	ba 00 00 00 00       	mov    $0x0,%edx
    2be8:	83 c4 10             	add    $0x10,%esp
    2beb:	8b 0d cc b1 00 00    	mov    0xb1cc,%ecx
    2bf1:	bb 40 06 00 00       	mov    $0x640,%ebx
    2bf6:	89 d8                	mov    %ebx,%eax
    2bf8:	d3 f8                	sar    %cl,%eax
    2bfa:	48                   	dec    %eax
    2bfb:	85 c0                	test   %eax,%eax
    2bfd:	7f fb                	jg     2bfa <i82595_init+0x17a>
    2bff:	42                   	inc    %edx
    2c00:	83 fa 04             	cmp    $0x4,%edx
    2c03:	7e f1                	jle    2bf6 <i82595_init+0x176>
    2c05:	83 ec 08             	sub    $0x8,%esp
    2c08:	6a 00                	push   $0x0
    2c0a:	66 8b 5d f2          	mov    0xfffffff2(%ebp),%bx
    2c0e:	81 e3 ff ff 00 00    	and    $0xffff,%ebx
    2c14:	8d 43 0a             	lea    0xa(%ebx),%eax
    2c17:	50                   	push   %eax
    2c18:	e8 92 d4 ff ff       	call   af <outw>
    2c1d:	8b 4d 08             	mov    0x8(%ebp),%ecx
    2c20:	66 c7 41 18 00 00    	movw   $0x0,0x18(%ecx)
    2c26:	66 c7 41 16 00 00    	movw   $0x0,0x16(%ecx)
    2c2c:	83 c4 08             	add    $0x8,%esp
    2c2f:	66 8b 41 24          	mov    0x24(%ecx),%ax
    2c33:	25 ff ff 00 00       	and    $0xffff,%eax
    2c38:	50                   	push   %eax
    2c39:	8d 43 04             	lea    0x4(%ebx),%eax
    2c3c:	50                   	push   %eax
    2c3d:	e8 6d d4 ff ff       	call   af <outw>
    2c42:	83 c4 08             	add    $0x8,%esp
    2c45:	8b 55 08             	mov    0x8(%ebp),%edx
    2c48:	8b 42 20             	mov    0x20(%edx),%eax
    2c4b:	48                   	dec    %eax
    2c4c:	50                   	push   %eax
    2c4d:	8d 43 06             	lea    0x6(%ebx),%eax
    2c50:	50                   	push   %eax
    2c51:	e8 59 d4 ff ff       	call   af <outw>
    2c56:	8b 4d 08             	mov    0x8(%ebp),%ecx
    2c59:	66 8b 41 24          	mov    0x24(%ecx),%ax
    2c5d:	66 89 41 14          	mov    %ax,0x14(%ecx)
    2c61:	89 1c 24             	mov    %ebx,(%esp)
    2c64:	e8 b4 00 00 00       	call   2d1d <config_593>
    2c69:	83 c4 0c             	add    $0xc,%esp
    2c6c:	6a 07                	push   $0x7
    2c6e:	6a 07                	push   $0x7
    2c70:	53                   	push   %ebx
    2c71:	e8 22 09 00 00       	call   3598 <mon_ethcmd>
    2c76:	83 c4 10             	add    $0x10,%esp
    2c79:	ba ff ff ff ff       	mov    $0xffffffff,%edx
    2c7e:	83 f8 ff             	cmp    $0xffffffff,%eax
    2c81:	0f 84 8c 00 00 00    	je     2d13 <i82595_init+0x293>
    2c87:	83 ec 08             	sub    $0x8,%esp
    2c8a:	68 80 00 00 00       	push   $0x80
    2c8f:	66 8b 45 f2          	mov    0xfffffff2(%ebp),%ax
    2c93:	25 ff ff 00 00       	and    $0xffff,%eax
    2c98:	50                   	push   %eax
    2c99:	e8 07 d4 ff ff       	call   a5 <outb>
    2c9e:	bb 00 00 00 00       	mov    $0x0,%ebx
    2ca3:	83 c4 10             	add    $0x10,%esp
    2ca6:	66 8b 75 f2          	mov    0xfffffff2(%ebp),%si
    2caa:	81 e6 ff ff 00 00    	and    $0xffff,%esi
    2cb0:	83 ec 08             	sub    $0x8,%esp
    2cb3:	8b 55 08             	mov    0x8(%ebp),%edx
    2cb6:	b8 00 00 00 00       	mov    $0x0,%eax
    2cbb:	8a 04 1a             	mov    (%edx,%ebx,1),%al
    2cbe:	50                   	push   %eax
    2cbf:	8d 44 1e 04          	lea    0x4(%esi,%ebx,1),%eax
    2cc3:	50                   	push   %eax
    2cc4:	e8 dc d3 ff ff       	call   a5 <outb>
    2cc9:	83 c4 10             	add    $0x10,%esp
    2ccc:	43                   	inc    %ebx
    2ccd:	83 fb 05             	cmp    $0x5,%ebx
    2cd0:	7e de                	jle    2cb0 <i82595_init+0x230>
    2cd2:	83 ec 08             	sub    $0x8,%esp
    2cd5:	6a 00                	push   $0x0
    2cd7:	66 8b 5d f2          	mov    0xfffffff2(%ebp),%bx
    2cdb:	81 e3 ff ff 00 00    	and    $0xffff,%ebx
    2ce1:	53                   	push   %ebx
    2ce2:	e8 be d3 ff ff       	call   a5 <outb>
    2ce7:	83 c4 08             	add    $0x8,%esp
    2cea:	6a 09                	push   $0x9
    2cec:	8d 43 03             	lea    0x3(%ebx),%eax
    2cef:	50                   	push   %eax
    2cf0:	e8 b0 d3 ff ff       	call   a5 <outb>
    2cf5:	83 c4 08             	add    $0x8,%esp
    2cf8:	6a 0f                	push   $0xf
    2cfa:	8d 43 01             	lea    0x1(%ebx),%eax
    2cfd:	50                   	push   %eax
    2cfe:	e8 a2 d3 ff ff       	call   a5 <outb>
    2d03:	83 c4 08             	add    $0x8,%esp
    2d06:	6a 08                	push   $0x8
    2d08:	53                   	push   %ebx
    2d09:	e8 97 d3 ff ff       	call   a5 <outb>
    2d0e:	ba 01 00 00 00       	mov    $0x1,%edx
    2d13:	89 d0                	mov    %edx,%eax
    2d15:	8d 65 f4             	lea    0xfffffff4(%ebp),%esp
    2d18:	5b                   	pop    %ebx
    2d19:	5e                   	pop    %esi
    2d1a:	5f                   	pop    %edi
    2d1b:	5d                   	pop    %ebp
    2d1c:	c3                   	ret    

00002d1d <config_593>:
    2d1d:	55                   	push   %ebp
    2d1e:	89 e5                	mov    %esp,%ebp
    2d20:	57                   	push   %edi
    2d21:	56                   	push   %esi
    2d22:	53                   	push   %ebx
    2d23:	83 ec 14             	sub    $0x14,%esp
    2d26:	8b 7d 08             	mov    0x8(%ebp),%edi
    2d29:	6a 00                	push   $0x0
    2d2b:	89 fe                	mov    %edi,%esi
    2d2d:	81 e6 ff ff 00 00    	and    $0xffff,%esi
    2d33:	8d 46 0a             	lea    0xa(%esi),%eax
    2d36:	50                   	push   %eax
    2d37:	e8 73 d3 ff ff       	call   af <outw>
    2d3c:	83 c4 08             	add    $0x8,%esp
    2d3f:	6a 00                	push   $0x0
    2d41:	8d 46 0c             	lea    0xc(%esi),%eax
    2d44:	50                   	push   %eax
    2d45:	e8 65 d3 ff ff       	call   af <outw>
    2d4a:	83 c4 08             	add    $0x8,%esp
    2d4d:	6a 02                	push   $0x2
    2d4f:	8d 5e 0e             	lea    0xe(%esi),%ebx
    2d52:	53                   	push   %ebx
    2d53:	e8 57 d3 ff ff       	call   af <outw>
    2d58:	83 c4 08             	add    $0x8,%esp
    2d5b:	6a 00                	push   $0x0
    2d5d:	53                   	push   %ebx
    2d5e:	e8 4c d3 ff ff       	call   af <outw>
    2d63:	83 c4 08             	add    $0x8,%esp
    2d66:	6a 00                	push   $0x0
    2d68:	53                   	push   %ebx
    2d69:	e8 41 d3 ff ff       	call   af <outw>
    2d6e:	83 c4 08             	add    $0x8,%esp
    2d71:	6a 0a                	push   $0xa
    2d73:	53                   	push   %ebx
    2d74:	e8 36 d3 ff ff       	call   af <outw>
    2d79:	83 c4 08             	add    $0x8,%esp
    2d7c:	6a 2e                	push   $0x2e
    2d7e:	53                   	push   %ebx
    2d7f:	e8 2b d3 ff ff       	call   af <outw>
    2d84:	83 c4 08             	add    $0x8,%esp
    2d87:	6a 60                	push   $0x60
    2d89:	53                   	push   %ebx
    2d8a:	e8 20 d3 ff ff       	call   af <outw>
    2d8f:	83 c4 08             	add    $0x8,%esp
    2d92:	68 f2 08 00 00       	push   $0x8f2
    2d97:	53                   	push   %ebx
    2d98:	e8 12 d3 ff ff       	call   af <outw>
    2d9d:	83 c4 08             	add    $0x8,%esp
    2da0:	68 00 40 00 00       	push   $0x4000
    2da5:	53                   	push   %ebx
    2da6:	e8 04 d3 ff ff       	call   af <outw>
    2dab:	83 c4 08             	add    $0x8,%esp
    2dae:	68 b6 00 00 00       	push   $0xb6
    2db3:	53                   	push   %ebx
    2db4:	e8 f6 d2 ff ff       	call   af <outw>
    2db9:	83 c4 08             	add    $0x8,%esp
    2dbc:	6a 02                	push   $0x2
    2dbe:	56                   	push   %esi
    2dbf:	e8 e1 d2 ff ff       	call   a5 <outb>
    2dc4:	ba 00 00 00 00       	mov    $0x0,%edx
    2dc9:	83 c4 10             	add    $0x10,%esp
    2dcc:	8b 0d cc b1 00 00    	mov    0xb1cc,%ecx
    2dd2:	bb 80 3e 00 00       	mov    $0x3e80,%ebx
    2dd7:	89 d8                	mov    %ebx,%eax
    2dd9:	d3 f8                	sar    %cl,%eax
    2ddb:	48                   	dec    %eax
    2ddc:	85 c0                	test   %eax,%eax
    2dde:	7f fb                	jg     2ddb <config_593+0xbe>
    2de0:	42                   	inc    %edx
    2de1:	83 fa 04             	cmp    $0x4,%edx
    2de4:	7e f1                	jle    2dd7 <config_593+0xba>
    2de6:	83 ec 08             	sub    $0x8,%esp
    2de9:	6a 00                	push   $0x0
    2deb:	89 fb                	mov    %edi,%ebx
    2ded:	81 e3 ff ff 00 00    	and    $0xffff,%ebx
    2df3:	8d 43 0a             	lea    0xa(%ebx),%eax
    2df6:	50                   	push   %eax
    2df7:	e8 b3 d2 ff ff       	call   af <outw>
    2dfc:	83 c4 08             	add    $0x8,%esp
    2dff:	6a 00                	push   $0x0
    2e01:	8d 43 0c             	lea    0xc(%ebx),%eax
    2e04:	50                   	push   %eax
    2e05:	e8 a5 d2 ff ff       	call   af <outw>
    2e0a:	83 c4 08             	add    $0x8,%esp
    2e0d:	6a 08                	push   $0x8
    2e0f:	43                   	inc    %ebx
    2e10:	53                   	push   %ebx
    2e11:	e8 8f d2 ff ff       	call   a5 <outb>
    2e16:	b8 01 00 00 00       	mov    $0x1,%eax
    2e1b:	8d 65 f4             	lea    0xfffffff4(%ebp),%esp
    2e1e:	5b                   	pop    %ebx
    2e1f:	5e                   	pop    %esi
    2e20:	5f                   	pop    %edi
    2e21:	5d                   	pop    %ebp
    2e22:	c3                   	ret    
    2e23:	90                   	nop    

00002e24 <mon_ethdemux>:
    2e24:	55                   	push   %ebp
    2e25:	89 e5                	mov    %esp,%ebp
    2e27:	57                   	push   %edi
    2e28:	56                   	push   %esi
    2e29:	53                   	push   %ebx
    2e2a:	83 ec 0c             	sub    $0xc,%esp
    2e2d:	8b 7d 08             	mov    0x8(%ebp),%edi
    2e30:	8b 45 0c             	mov    0xc(%ebp),%eax
    2e33:	8d 50 0e             	lea    0xe(%eax),%edx
    2e36:	c7 45 f0 0a 00 00 00 	movl   $0xa,0xfffffff0(%ebp)
    2e3d:	25 ff ff 00 00       	and    $0xffff,%eax
    2e42:	8d 48 0c             	lea    0xc(%eax),%ecx
    2e45:	89 4d ec             	mov    %ecx,0xffffffec(%ebp)
    2e48:	89 d6                	mov    %edx,%esi
    2e4a:	81 e6 ff ff 00 00    	and    $0xffff,%esi
    2e50:	83 c0 06             	add    $0x6,%eax
    2e53:	89 45 e8             	mov    %eax,0xffffffe8(%ebp)
    2e56:	83 ec 08             	sub    $0x8,%esp
    2e59:	66 8b 47 14          	mov    0x14(%edi),%ax
    2e5d:	25 ff ff 00 00       	and    $0xffff,%eax
    2e62:	50                   	push   %eax
    2e63:	ff 75 ec             	pushl  0xffffffec(%ebp)
    2e66:	e8 44 d2 ff ff       	call   af <outw>
    2e6b:	89 34 24             	mov    %esi,(%esp)
    2e6e:	e8 21 d2 ff ff       	call   94 <inw>
    2e73:	89 c3                	mov    %eax,%ebx
    2e75:	89 34 24             	mov    %esi,(%esp)
    2e78:	e8 17 d2 ff ff       	call   94 <inw>
    2e7d:	83 c4 10             	add    $0x10,%esp
    2e80:	f6 c4 20             	test   $0x20,%ah
    2e83:	74 66                	je     2eeb <mon_ethdemux+0xc7>
    2e85:	f6 c3 08             	test   $0x8,%bl
    2e88:	74 61                	je     2eeb <mon_ethdemux+0xc7>
    2e8a:	83 ec 0c             	sub    $0xc,%esp
    2e8d:	56                   	push   %esi
    2e8e:	e8 01 d2 ff ff       	call   94 <inw>
    2e93:	89 c3                	mov    %eax,%ebx
    2e95:	89 34 24             	mov    %esi,(%esp)
    2e98:	e8 f7 d1 ff ff       	call   94 <inw>
    2e9d:	66 89 5f 14          	mov    %bx,0x14(%edi)
    2ea1:	83 c4 10             	add    $0x10,%esp
    2ea4:	66 3d ea 05          	cmp    $0x5ea,%ax
    2ea8:	77 13                	ja     2ebd <mon_ethdemux+0x99>
    2eaa:	83 ec 04             	sub    $0x4,%esp
    2ead:	25 ff ff 00 00       	and    $0xffff,%eax
    2eb2:	50                   	push   %eax
    2eb3:	56                   	push   %esi
    2eb4:	57                   	push   %edi
    2eb5:	e8 3e 00 00 00       	call   2ef8 <rcv_frame>
    2eba:	83 c4 10             	add    $0x10,%esp
    2ebd:	66 8b 47 14          	mov    0x14(%edi),%ax
    2ec1:	83 e8 02             	sub    $0x2,%eax
    2ec4:	66 39 47 24          	cmp    %ax,0x24(%edi)
    2ec8:	76 04                	jbe    2ece <mon_ethdemux+0xaa>
    2eca:	66 03 47 26          	add    0x26(%edi),%ax
    2ece:	83 ec 08             	sub    $0x8,%esp
    2ed1:	25 ff ff 00 00       	and    $0xffff,%eax
    2ed6:	50                   	push   %eax
    2ed7:	ff 75 e8             	pushl  0xffffffe8(%ebp)
    2eda:	e8 d0 d1 ff ff       	call   af <outw>
    2edf:	83 c4 10             	add    $0x10,%esp
    2ee2:	ff 4d f0             	decl   0xfffffff0(%ebp)
    2ee5:	0f 85 6b ff ff ff    	jne    2e56 <mon_ethdemux+0x32>
    2eeb:	b8 01 00 00 00       	mov    $0x1,%eax
    2ef0:	8d 65 f4             	lea    0xfffffff4(%ebp),%esp
    2ef3:	5b                   	pop    %ebx
    2ef4:	5e                   	pop    %esi
    2ef5:	5f                   	pop    %edi
    2ef6:	5d                   	pop    %ebp
    2ef7:	c3                   	ret    

00002ef8 <rcv_frame>:
    2ef8:	55                   	push   %ebp
    2ef9:	89 e5                	mov    %esp,%ebp
    2efb:	57                   	push   %edi
    2efc:	56                   	push   %esi
    2efd:	53                   	push   %ebx
    2efe:	83 ec 18             	sub    $0x18,%esp
    2f01:	8b 7d 0c             	mov    0xc(%ebp),%edi
    2f04:	8b 75 10             	mov    0x10(%ebp),%esi
    2f07:	ff 35 70 8c 01 00    	pushl  0x18c70
    2f0d:	e8 4d 1e 00 00       	call   4d5f <nbgetbuf>
    2f12:	89 c3                	mov    %eax,%ebx
    2f14:	83 c4 10             	add    $0x10,%esp
    2f17:	b8 01 00 00 00       	mov    $0x1,%eax
    2f1c:	85 db                	test   %ebx,%ebx
    2f1e:	74 70                	je     2f90 <rcv_frame+0x98>
    2f20:	66 89 73 06          	mov    %si,0x6(%ebx)
    2f24:	83 ec 04             	sub    $0x4,%esp
    2f27:	89 f0                	mov    %esi,%eax
    2f29:	25 ff ff 00 00       	and    $0xffff,%eax
    2f2e:	40                   	inc    %eax
    2f2f:	d1 f8                	sar    %eax
    2f31:	50                   	push   %eax
    2f32:	8d 43 08             	lea    0x8(%ebx),%eax
    2f35:	50                   	push   %eax
    2f36:	89 f8                	mov    %edi,%eax
    2f38:	25 ff ff 00 00       	and    $0xffff,%eax
    2f3d:	50                   	push   %eax
    2f3e:	e8 c7 d1 ff ff       	call   10a <insw>
    2f43:	66 8b 43 14          	mov    0x14(%ebx),%ax
    2f47:	89 c2                	mov    %eax,%edx
    2f49:	66 c1 ea 08          	shr    $0x8,%dx
    2f4d:	25 ff 00 00 00       	and    $0xff,%eax
    2f52:	c1 e0 08             	shl    $0x8,%eax
    2f55:	09 c2                	or     %eax,%edx
    2f57:	66 89 53 14          	mov    %dx,0x14(%ebx)
    2f5b:	83 c4 10             	add    $0x10,%esp
    2f5e:	80 3d 74 8c 01 00 02 	cmpb   $0x2,0x18c74
    2f65:	75 0e                	jne    2f75 <rcv_frame+0x7d>
    2f67:	83 ec 0c             	sub    $0xc,%esp
    2f6a:	53                   	push   %ebx
    2f6b:	e8 9c 1b 00 00       	call   4b0c <freebuf>
    2f70:	83 c4 10             	add    $0x10,%esp
    2f73:	eb 16                	jmp    2f8b <rcv_frame+0x93>
    2f75:	83 ec 04             	sub    $0x4,%esp
    2f78:	0f bf 43 06          	movswl 0x6(%ebx),%eax
    2f7c:	50                   	push   %eax
    2f7d:	53                   	push   %ebx
    2f7e:	68 74 8c 01 00       	push   $0x18c74
    2f83:	e8 9d ec ff ff       	call   1c25 <mon_ni_in>
    2f88:	83 c4 10             	add    $0x10,%esp
    2f8b:	b8 01 00 00 00       	mov    $0x1,%eax
    2f90:	8d 65 f4             	lea    0xfffffff4(%ebp),%esp
    2f93:	5b                   	pop    %ebx
    2f94:	5e                   	pop    %esi
    2f95:	5f                   	pop    %edi
    2f96:	5d                   	pop    %ebp
    2f97:	c3                   	ret    

00002f98 <mon_ethwstrt>:
    2f98:	55                   	push   %ebp
    2f99:	89 e5                	mov    %esp,%ebp
    2f9b:	57                   	push   %edi
    2f9c:	56                   	push   %esi
    2f9d:	53                   	push   %ebx
    2f9e:	83 ec 0c             	sub    $0xc,%esp
    2fa1:	8b 75 08             	mov    0x8(%ebp),%esi
    2fa4:	66 8b 46 10          	mov    0x10(%esi),%ax
    2fa8:	8d 50 0e             	lea    0xe(%eax),%edx
    2fab:	8d 48 0c             	lea    0xc(%eax),%ecx
    2fae:	66 89 4d f2          	mov    %cx,0xfffffff2(%ebp)
    2fb2:	81 e2 ff ff 00 00    	and    $0xffff,%edx
    2fb8:	89 55 ec             	mov    %edx,0xffffffec(%ebp)
    2fbb:	25 ff ff 00 00       	and    $0xffff,%eax
    2fc0:	89 45 e8             	mov    %eax,0xffffffe8(%ebp)
    2fc3:	66 8b 46 18          	mov    0x18(%esi),%ax
    2fc7:	66 2b 46 16          	sub    0x16(%esi),%ax
    2fcb:	66 8b 56 24          	mov    0x24(%esi),%dx
    2fcf:	89 d3                	mov    %edx,%ebx
    2fd1:	66 29 c3             	sub    %ax,%bx
    2fd4:	66 39 da             	cmp    %bx,%dx
    2fd7:	73 03                	jae    2fdc <mon_ethwstrt+0x44>
    2fd9:	66 29 d3             	sub    %dx,%bx
    2fdc:	83 ec 0c             	sub    $0xc,%esp
    2fdf:	ff 76 0c             	pushl  0xc(%esi)
    2fe2:	e8 68 f2 ff ff       	call   224f <mon_headq>
    2fe7:	83 c4 10             	add    $0x10,%esp
    2fea:	85 c0                	test   %eax,%eax
    2fec:	75 0a                	jne    2ff8 <mon_ethwstrt+0x60>
    2fee:	b8 01 00 00 00       	mov    $0x1,%eax
    2ff3:	e9 85 01 00 00       	jmp    317d <mon_ethwstrt+0x1e5>
    2ff8:	0f bf 40 06          	movswl 0x6(%eax),%eax
    2ffc:	40                   	inc    %eax
    2ffd:	83 e0 fe             	and    $0xfffffffe,%eax
    3000:	83 c0 08             	add    $0x8,%eax
    3003:	66 89 45 f0          	mov    %ax,0xfffffff0(%ebp)
    3007:	66 39 d8             	cmp    %bx,%ax
    300a:	76 0a                	jbe    3016 <mon_ethwstrt+0x7e>
    300c:	b8 01 00 00 00       	mov    $0x1,%eax
    3011:	e9 67 01 00 00       	jmp    317d <mon_ethwstrt+0x1e5>
    3016:	8b 5d f0             	mov    0xfffffff0(%ebp),%ebx
    3019:	66 03 5e 18          	add    0x18(%esi),%bx
    301d:	89 d8                	mov    %ebx,%eax
    301f:	25 ff ff 00 00       	and    $0xffff,%eax
    3024:	83 c0 08             	add    $0x8,%eax
    3027:	66 8b 4e 24          	mov    0x24(%esi),%cx
    302b:	89 ca                	mov    %ecx,%edx
    302d:	81 e2 ff ff 00 00    	and    $0xffff,%edx
    3033:	39 d0                	cmp    %edx,%eax
    3035:	7c 06                	jl     303d <mon_ethwstrt+0xa5>
    3037:	66 29 cb             	sub    %cx,%bx
    303a:	83 c3 08             	add    $0x8,%ebx
    303d:	83 ec 0c             	sub    $0xc,%esp
    3040:	ff 76 0c             	pushl  0xc(%esi)
    3043:	e8 76 f0 ff ff       	call   20be <mon_deq>
    3048:	89 c7                	mov    %eax,%edi
    304a:	83 c4 08             	add    $0x8,%esp
    304d:	66 8b 46 18          	mov    0x18(%esi),%ax
    3051:	25 ff ff 00 00       	and    $0xffff,%eax
    3056:	50                   	push   %eax
    3057:	66 8b 45 f2          	mov    0xfffffff2(%ebp),%ax
    305b:	25 ff ff 00 00       	and    $0xffff,%eax
    3060:	50                   	push   %eax
    3061:	e8 49 d0 ff ff       	call   af <outw>
    3066:	83 c4 08             	add    $0x8,%esp
    3069:	6a 04                	push   $0x4
    306b:	ff 75 ec             	pushl  0xffffffec(%ebp)
    306e:	e8 3c d0 ff ff       	call   af <outw>
    3073:	83 c4 08             	add    $0x8,%esp
    3076:	6a 00                	push   $0x0
    3078:	ff 75 ec             	pushl  0xffffffec(%ebp)
    307b:	e8 2f d0 ff ff       	call   af <outw>
    3080:	83 c4 08             	add    $0x8,%esp
    3083:	89 d8                	mov    %ebx,%eax
    3085:	25 ff ff 00 00       	and    $0xffff,%eax
    308a:	50                   	push   %eax
    308b:	ff 75 ec             	pushl  0xffffffec(%ebp)
    308e:	e8 1c d0 ff ff       	call   af <outw>
    3093:	83 c4 08             	add    $0x8,%esp
    3096:	0f bf 47 06          	movswl 0x6(%edi),%eax
    309a:	50                   	push   %eax
    309b:	ff 75 ec             	pushl  0xffffffec(%ebp)
    309e:	e8 0c d0 ff ff       	call   af <outw>
    30a3:	83 c4 0c             	add    $0xc,%esp
    30a6:	8b 45 f0             	mov    0xfffffff0(%ebp),%eax
    30a9:	66 d1 e8             	shr    %ax
    30ac:	25 ff ff 00 00       	and    $0xffff,%eax
    30b1:	50                   	push   %eax
    30b2:	8d 47 08             	lea    0x8(%edi),%eax
    30b5:	50                   	push   %eax
    30b6:	ff 75 ec             	pushl  0xffffffec(%ebp)
    30b9:	e8 62 d0 ff ff       	call   120 <outsw>
    30be:	83 c4 10             	add    $0x10,%esp
    30c1:	66 8b 46 16          	mov    0x16(%esi),%ax
    30c5:	66 3b 46 18          	cmp    0x18(%esi),%ax
    30c9:	75 27                	jne    30f2 <mon_ethwstrt+0x15a>
    30cb:	83 ec 08             	sub    $0x8,%esp
    30ce:	25 ff ff 00 00       	and    $0xffff,%eax
    30d3:	50                   	push   %eax
    30d4:	8b 45 e8             	mov    0xffffffe8(%ebp),%eax
    30d7:	83 c0 0a             	add    $0xa,%eax
    30da:	50                   	push   %eax
    30db:	e8 cf cf ff ff       	call   af <outw>
    30e0:	83 c4 08             	add    $0x8,%esp
    30e3:	6a 04                	push   $0x4
    30e5:	ff 75 e8             	pushl  0xffffffe8(%ebp)
    30e8:	e8 b8 cf ff ff       	call   a5 <outb>
    30ed:	83 c4 10             	add    $0x10,%esp
    30f0:	eb 55                	jmp    3147 <mon_ethwstrt+0x1af>
    30f2:	83 ec 08             	sub    $0x8,%esp
    30f5:	66 8b 46 1a          	mov    0x1a(%esi),%ax
    30f9:	25 ff ff 00 00       	and    $0xffff,%eax
    30fe:	50                   	push   %eax
    30ff:	66 8b 45 f2          	mov    0xfffffff2(%ebp),%ax
    3103:	25 ff ff 00 00       	and    $0xffff,%eax
    3108:	50                   	push   %eax
    3109:	e8 a1 cf ff ff       	call   af <outw>
    310e:	83 c4 08             	add    $0x8,%esp
    3111:	66 8b 46 1c          	mov    0x1c(%esi),%ax
    3115:	0d 00 80 ff ff       	or     $0xffff8000,%eax
    311a:	25 ff ff 00 00       	and    $0xffff,%eax
    311f:	50                   	push   %eax
    3120:	ff 75 ec             	pushl  0xffffffec(%ebp)
    3123:	e8 87 cf ff ff       	call   af <outw>
    3128:	83 c4 08             	add    $0x8,%esp
    312b:	6a 04                	push   $0x4
    312d:	8b 45 e8             	mov    0xffffffe8(%ebp),%eax
    3130:	40                   	inc    %eax
    3131:	50                   	push   %eax
    3132:	e8 6e cf ff ff       	call   a5 <outb>
    3137:	83 c4 08             	add    $0x8,%esp
    313a:	6a 1c                	push   $0x1c
    313c:	ff 75 e8             	pushl  0xffffffe8(%ebp)
    313f:	e8 61 cf ff ff       	call   a5 <outb>
    3144:	83 c4 10             	add    $0x10,%esp
    3147:	66 8b 46 18          	mov    0x18(%esi),%ax
    314b:	83 c0 06             	add    $0x6,%eax
    314e:	66 89 46 1a          	mov    %ax,0x1a(%esi)
    3152:	66 3b 46 24          	cmp    0x24(%esi),%ax
    3156:	72 08                	jb     3160 <mon_ethwstrt+0x1c8>
    3158:	66 2b 46 24          	sub    0x24(%esi),%ax
    315c:	66 89 46 1a          	mov    %ax,0x1a(%esi)
    3160:	66 8b 47 06          	mov    0x6(%edi),%ax
    3164:	66 89 46 1c          	mov    %ax,0x1c(%esi)
    3168:	66 89 5e 18          	mov    %bx,0x18(%esi)
    316c:	83 ec 0c             	sub    $0xc,%esp
    316f:	57                   	push   %edi
    3170:	e8 97 19 00 00       	call   4b0c <freebuf>
    3175:	83 c4 10             	add    $0x10,%esp
    3178:	e9 46 fe ff ff       	jmp    2fc3 <mon_ethwstrt+0x2b>
    317d:	8d 65 f4             	lea    0xfffffff4(%ebp),%esp
    3180:	5b                   	pop    %ebx
    3181:	5e                   	pop    %esi
    3182:	5f                   	pop    %edi
    3183:	5d                   	pop    %ebp
    3184:	c3                   	ret    
    3185:	90                   	nop    
    3186:	90                   	nop    
    3187:	90                   	nop    

00003188 <mon_ethromread>:
    3188:	55                   	push   %ebp
    3189:	89 e5                	mov    %esp,%ebp
    318b:	57                   	push   %edi
    318c:	56                   	push   %esi
    318d:	53                   	push   %ebx
    318e:	83 ec 24             	sub    $0x24,%esp
    3191:	8b 45 08             	mov    0x8(%ebp),%eax
    3194:	66 89 45 f2          	mov    %ax,0xfffffff2(%ebp)
    3198:	83 c0 0a             	add    $0xa,%eax
    319b:	66 89 45 f0          	mov    %ax,0xfffffff0(%ebp)
    319f:	8b 45 0c             	mov    0xc(%ebp),%eax
    31a2:	0d 80 01 00 00       	or     $0x180,%eax
    31a7:	98                   	cwtl   
    31a8:	89 45 ec             	mov    %eax,0xffffffec(%ebp)
    31ab:	66 c7 45 ea 00 00    	movw   $0x0,0xffffffea(%ebp)
    31b1:	68 80 00 00 00       	push   $0x80
    31b6:	0f bf 45 f2          	movswl 0xfffffff2(%ebp),%eax
    31ba:	50                   	push   %eax
    31bb:	e8 e5 ce ff ff       	call   a5 <outb>
    31c0:	83 c4 08             	add    $0x8,%esp
    31c3:	6a 02                	push   $0x2
    31c5:	0f bf 45 f0          	movswl 0xfffffff0(%ebp),%eax
    31c9:	50                   	push   %eax
    31ca:	e8 d6 ce ff ff       	call   a5 <outb>
    31cf:	bf 08 00 00 00       	mov    $0x8,%edi
    31d4:	83 c4 10             	add    $0x10,%esp
    31d7:	0f bf 4d f0          	movswl 0xfffffff0(%ebp),%ecx
    31db:	89 4d e4             	mov    %ecx,0xffffffe4(%ebp)
    31de:	8b 45 ec             	mov    0xffffffec(%ebp),%eax
    31e1:	89 f9                	mov    %edi,%ecx
    31e3:	d3 f8                	sar    %cl,%eax
    31e5:	be 06 00 00 00       	mov    $0x6,%esi
    31ea:	a8 01                	test   $0x1,%al
    31ec:	75 05                	jne    31f3 <mon_ethromread+0x6b>
    31ee:	be 02 00 00 00       	mov    $0x2,%esi
    31f3:	83 ec 08             	sub    $0x8,%esp
    31f6:	0f bf c6             	movswl %si,%eax
    31f9:	50                   	push   %eax
    31fa:	ff 75 e4             	pushl  0xffffffe4(%ebp)
    31fd:	e8 a3 ce ff ff       	call   a5 <outb>
    3202:	83 c4 08             	add    $0x8,%esp
    3205:	89 f0                	mov    %esi,%eax
    3207:	83 c8 01             	or     $0x1,%eax
    320a:	98                   	cwtl   
    320b:	50                   	push   %eax
    320c:	ff 75 e4             	pushl  0xffffffe4(%ebp)
    320f:	e8 91 ce ff ff       	call   a5 <outb>
    3214:	ba 00 00 00 00       	mov    $0x0,%edx
    3219:	83 c4 10             	add    $0x10,%esp
    321c:	8b 0d cc b1 00 00    	mov    0xb1cc,%ecx
    3222:	bb 10 00 00 00       	mov    $0x10,%ebx
    3227:	89 d8                	mov    %ebx,%eax
    3229:	d3 f8                	sar    %cl,%eax
    322b:	48                   	dec    %eax
    322c:	85 c0                	test   %eax,%eax
    322e:	7f fb                	jg     322b <mon_ethromread+0xa3>
    3230:	42                   	inc    %edx
    3231:	83 fa 04             	cmp    $0x4,%edx
    3234:	7e f1                	jle    3227 <mon_ethromread+0x9f>
    3236:	83 ec 08             	sub    $0x8,%esp
    3239:	0f bf c6             	movswl %si,%eax
    323c:	50                   	push   %eax
    323d:	ff 75 e4             	pushl  0xffffffe4(%ebp)
    3240:	e8 60 ce ff ff       	call   a5 <outb>
    3245:	ba 00 00 00 00       	mov    $0x0,%edx
    324a:	83 c4 10             	add    $0x10,%esp
    324d:	8b 0d cc b1 00 00    	mov    0xb1cc,%ecx
    3253:	bb 10 00 00 00       	mov    $0x10,%ebx
    3258:	89 d8                	mov    %ebx,%eax
    325a:	d3 f8                	sar    %cl,%eax
    325c:	48                   	dec    %eax
    325d:	85 c0                	test   %eax,%eax
    325f:	7f fb                	jg     325c <mon_ethromread+0xd4>
    3261:	42                   	inc    %edx
    3262:	83 fa 04             	cmp    $0x4,%edx
    3265:	7e f1                	jle    3258 <mon_ethromread+0xd0>
    3267:	4f                   	dec    %edi
    3268:	0f 89 70 ff ff ff    	jns    31de <mon_ethromread+0x56>
    326e:	83 ec 08             	sub    $0x8,%esp
    3271:	6a 02                	push   $0x2
    3273:	0f bf 45 f0          	movswl 0xfffffff0(%ebp),%eax
    3277:	50                   	push   %eax
    3278:	e8 28 ce ff ff       	call   a5 <outb>
    327d:	bf 10 00 00 00       	mov    $0x10,%edi
    3282:	83 c4 10             	add    $0x10,%esp
    3285:	0f bf 75 f0          	movswl 0xfffffff0(%ebp),%esi
    3289:	83 ec 08             	sub    $0x8,%esp
    328c:	6a 03                	push   $0x3
    328e:	56                   	push   %esi
    328f:	e8 11 ce ff ff       	call   a5 <outb>
    3294:	ba 00 00 00 00       	mov    $0x0,%edx
    3299:	83 c4 10             	add    $0x10,%esp
    329c:	8b 0d cc b1 00 00    	mov    0xb1cc,%ecx
    32a2:	b8 10 00 00 00       	mov    $0x10,%eax
    32a7:	d3 f8                	sar    %cl,%eax
    32a9:	48                   	dec    %eax
    32aa:	85 c0                	test   %eax,%eax
    32ac:	7f fb                	jg     32a9 <mon_ethromread+0x121>
    32ae:	42                   	inc    %edx
    32af:	83 fa 04             	cmp    $0x4,%edx
    32b2:	7e ee                	jle    32a2 <mon_ethromread+0x11a>
    32b4:	66 d1 65 ea          	shlw   0xffffffea(%ebp)
    32b8:	83 ec 0c             	sub    $0xc,%esp
    32bb:	56                   	push   %esi
    32bc:	e8 cb cd ff ff       	call   8c <inb>
    32c1:	c1 e8 03             	shr    $0x3,%eax
    32c4:	83 e0 01             	and    $0x1,%eax
    32c7:	66 09 45 ea          	or     %ax,0xffffffea(%ebp)
    32cb:	83 c4 08             	add    $0x8,%esp
    32ce:	6a 02                	push   $0x2
    32d0:	56                   	push   %esi
    32d1:	e8 cf cd ff ff       	call   a5 <outb>
    32d6:	ba 00 00 00 00       	mov    $0x0,%edx
    32db:	83 c4 10             	add    $0x10,%esp
    32de:	8b 0d cc b1 00 00    	mov    0xb1cc,%ecx
    32e4:	bb 10 00 00 00       	mov    $0x10,%ebx
    32e9:	89 d8                	mov    %ebx,%eax
    32eb:	d3 f8                	sar    %cl,%eax
    32ed:	48                   	dec    %eax
    32ee:	85 c0                	test   %eax,%eax
    32f0:	7f fb                	jg     32ed <mon_ethromread+0x165>
    32f2:	42                   	inc    %edx
    32f3:	83 fa 04             	cmp    $0x4,%edx
    32f6:	7e f1                	jle    32e9 <mon_ethromread+0x161>
    32f8:	4f                   	dec    %edi
    32f9:	85 ff                	test   %edi,%edi
    32fb:	7f 8c                	jg     3289 <mon_ethromread+0x101>
    32fd:	83 ec 08             	sub    $0x8,%esp
    3300:	6a 01                	push   $0x1
    3302:	0f bf 45 f0          	movswl 0xfffffff0(%ebp),%eax
    3306:	50                   	push   %eax
    3307:	e8 99 cd ff ff       	call   a5 <outb>
    330c:	ba 00 00 00 00       	mov    $0x0,%edx
    3311:	83 c4 10             	add    $0x10,%esp
    3314:	8b 0d cc b1 00 00    	mov    0xb1cc,%ecx
    331a:	bb 10 00 00 00       	mov    $0x10,%ebx
    331f:	89 d8                	mov    %ebx,%eax
    3321:	d3 f8                	sar    %cl,%eax
    3323:	48                   	dec    %eax
    3324:	85 c0                	test   %eax,%eax
    3326:	7f fb                	jg     3323 <mon_ethromread+0x19b>
    3328:	42                   	inc    %edx
    3329:	83 fa 04             	cmp    $0x4,%edx
    332c:	7e f1                	jle    331f <mon_ethromread+0x197>
    332e:	83 ec 08             	sub    $0x8,%esp
    3331:	6a 00                	push   $0x0
    3333:	0f bf 45 f0          	movswl 0xfffffff0(%ebp),%eax
    3337:	50                   	push   %eax
    3338:	e8 68 cd ff ff       	call   a5 <outb>
    333d:	ba 00 00 00 00       	mov    $0x0,%edx
    3342:	83 c4 10             	add    $0x10,%esp
    3345:	8b 0d cc b1 00 00    	mov    0xb1cc,%ecx
    334b:	bb 10 00 00 00       	mov    $0x10,%ebx
    3350:	89 d8                	mov    %ebx,%eax
    3352:	d3 f8                	sar    %cl,%eax
    3354:	48                   	dec    %eax
    3355:	85 c0                	test   %eax,%eax
    3357:	7f fb                	jg     3354 <mon_ethromread+0x1cc>
    3359:	42                   	inc    %edx
    335a:	83 fa 04             	cmp    $0x4,%edx
    335d:	7e f1                	jle    3350 <mon_ethromread+0x1c8>
    335f:	83 ec 08             	sub    $0x8,%esp
    3362:	6a 00                	push   $0x0
    3364:	0f bf 45 f2          	movswl 0xfffffff2(%ebp),%eax
    3368:	50                   	push   %eax
    3369:	e8 37 cd ff ff       	call   a5 <outb>
    336e:	66 8b 45 ea          	mov    0xffffffea(%ebp),%ax
    3372:	25 ff ff 00 00       	and    $0xffff,%eax
    3377:	8d 65 f4             	lea    0xfffffff4(%ebp),%esp
    337a:	5b                   	pop    %ebx
    337b:	5e                   	pop    %esi
    337c:	5f                   	pop    %edi
    337d:	5d                   	pop    %ebp
    337e:	c3                   	ret    
    337f:	90                   	nop    

00003380 <boot_xinu>:
    3380:	55                   	push   %ebp
    3381:	89 e5                	mov    %esp,%ebp
    3383:	83 ec 08             	sub    $0x8,%esp
    3386:	c7 05 e8 b9 00 00 00 	movl   $0x0,0xb9e8
    338d:	00 00 00 
    3390:	c7 05 e0 b9 00 00 00 	movl   $0x0,0xb9e0
    3397:	00 00 00 
    339a:	c7 05 c8 8c 01 00 0a 	movl   $0xa,0x18cc8
    33a1:	00 00 00 
    33a4:	a1 c8 8c 01 00       	mov    0x18cc8,%eax
    33a9:	83 e8 0a             	sub    $0xa,%eax
    33ac:	83 f8 07             	cmp    $0x7,%eax
    33af:	0f 87 24 01 00 00    	ja     34d9 <boot_xinu+0x159>
    33b5:	ff 24 85 70 9d 00 00 	jmp    *0x9d70(,%eax,4)
    33bc:	ff 05 e0 b9 00 00    	incl   0xb9e0
    33c2:	83 3d e0 b9 00 00 03 	cmpl   $0x3,0xb9e0
    33c9:	7e 17                	jle    33e2 <boot_xinu+0x62>
    33cb:	83 ec 0c             	sub    $0xc,%esp
    33ce:	68 dc 9c 00 00       	push   $0x9cdc
    33d3:	e8 90 26 00 00       	call   5a68 <kprintf>
    33d8:	b8 ff ff ff ff       	mov    $0xffffffff,%eax
    33dd:	e9 12 01 00 00       	jmp    34f4 <boot_xinu+0x174>
    33e2:	c7 05 c8 8c 01 00 0b 	movl   $0xb,0x18cc8
    33e9:	00 00 00 
    33ec:	83 ec 0c             	sub    $0xc,%esp
    33ef:	68 22 9d 00 00       	push   $0x9d22
    33f4:	e8 6f 26 00 00       	call   5a68 <kprintf>
    33f9:	83 c4 10             	add    $0x10,%esp
    33fc:	83 3d ec b9 00 00 00 	cmpl   $0x0,0xb9ec
    3403:	75 0a                	jne    340f <boot_xinu+0x8f>
    3405:	a1 e4 b9 00 00       	mov    0xb9e4,%eax
    340a:	a3 ec b9 00 00       	mov    %eax,0xb9ec
    340f:	83 ec 0c             	sub    $0xc,%esp
    3412:	a1 e4 b9 00 00       	mov    0xb9e4,%eax
    3417:	2b 05 ec b9 00 00    	sub    0xb9ec,%eax
    341d:	50                   	push   %eax
    341e:	e8 1c e5 ff ff       	call   193f <mon_bootp_request>
    3423:	a1 e4 b9 00 00       	mov    0xb9e4,%eax
    3428:	03 05 e0 b9 00 00    	add    0xb9e0,%eax
    342e:	83 c0 02             	add    $0x2,%eax
    3431:	a3 e8 b9 00 00       	mov    %eax,0xb9e8
    3436:	83 c4 10             	add    $0x10,%esp
    3439:	e9 66 ff ff ff       	jmp    33a4 <boot_xinu+0x24>
    343e:	ff 05 e0 b9 00 00    	incl   0xb9e0
    3444:	83 3d e0 b9 00 00 03 	cmpl   $0x3,0xb9e0
    344b:	7e 17                	jle    3464 <boot_xinu+0xe4>
    344d:	83 ec 0c             	sub    $0xc,%esp
    3450:	68 00 9d 00 00       	push   $0x9d00
    3455:	e8 0e 26 00 00       	call   5a68 <kprintf>
    345a:	b8 ff ff ff ff       	mov    $0xffffffff,%eax
    345f:	e9 90 00 00 00       	jmp    34f4 <boot_xinu+0x174>
    3464:	83 ec 0c             	sub    $0xc,%esp
    3467:	68 3a 9d 00 00       	push   $0x9d3a
    346c:	e8 f7 25 00 00       	call   5a68 <kprintf>
    3471:	e8 82 59 00 00       	call   8df8 <mon_tftp_req>
    3476:	c7 05 c8 8c 01 00 0d 	movl   $0xd,0x18cc8
    347d:	00 00 00 
    3480:	a1 e4 b9 00 00       	mov    0xb9e4,%eax
    3485:	03 05 e0 b9 00 00    	add    0xb9e0,%eax
    348b:	83 c0 02             	add    $0x2,%eax
    348e:	a3 e8 b9 00 00       	mov    %eax,0xb9e8
    3493:	c7 05 e4 9a 01 00 01 	movl   $0x1,0x19ae4
    349a:	00 00 00 
    349d:	c7 05 dc 9a 01 00 00 	movl   $0x0,0x19adc
    34a4:	00 00 00 
    34a7:	c7 05 e8 9a 01 00 00 	movl   $0x0,0x19ae8
    34ae:	00 00 00 
    34b1:	83 c4 10             	add    $0x10,%esp
    34b4:	e9 eb fe ff ff       	jmp    33a4 <boot_xinu+0x24>
    34b9:	83 ec 0c             	sub    $0xc,%esp
    34bc:	8d 45 fe             	lea    0xfffffffe(%ebp),%eax
    34bf:	50                   	push   %eax
    34c0:	e8 f7 d2 ff ff       	call   7bc <disable>
    34c5:	e8 7b cc ff ff       	call   145 <jumptobootcode>
    34ca:	83 c4 10             	add    $0x10,%esp
    34cd:	e9 d2 fe ff ff       	jmp    33a4 <boot_xinu+0x24>
    34d2:	b8 ff ff ff ff       	mov    $0xffffffff,%eax
    34d7:	eb 1b                	jmp    34f4 <boot_xinu+0x174>
    34d9:	83 ec 08             	sub    $0x8,%esp
    34dc:	ff 35 c8 8c 01 00    	pushl  0x18cc8
    34e2:	68 51 9d 00 00       	push   $0x9d51
    34e7:	e8 7c 25 00 00       	call   5a68 <kprintf>
    34ec:	83 c4 10             	add    $0x10,%esp
    34ef:	e9 b0 fe ff ff       	jmp    33a4 <boot_xinu+0x24>
    34f4:	c9                   	leave  
    34f5:	c3                   	ret    
    34f6:	90                   	nop    
    34f7:	90                   	nop    

000034f8 <mon_timer>:
    34f8:	55                   	push   %ebp
    34f9:	89 e5                	mov    %esp,%ebp
    34fb:	83 ec 08             	sub    $0x8,%esp
    34fe:	83 3d e8 b9 00 00 00 	cmpl   $0x0,0xb9e8
    3505:	0f 84 86 00 00 00    	je     3591 <mon_timer+0x99>
    350b:	a1 e4 b9 00 00       	mov    0xb9e4,%eax
    3510:	3b 05 e8 b9 00 00    	cmp    0xb9e8,%eax
    3516:	7c 79                	jl     3591 <mon_timer+0x99>
    3518:	a1 c8 8c 01 00       	mov    0x18cc8,%eax
    351d:	83 f8 0b             	cmp    $0xb,%eax
    3520:	74 07                	je     3529 <mon_timer+0x31>
    3522:	83 f8 0d             	cmp    $0xd,%eax
    3525:	74 0e                	je     3535 <mon_timer+0x3d>
    3527:	eb 68                	jmp    3591 <mon_timer+0x99>
    3529:	c7 05 c8 8c 01 00 10 	movl   $0x10,0x18cc8
    3530:	00 00 00 
    3533:	eb 5c                	jmp    3591 <mon_timer+0x99>
    3535:	83 3d dc 9a 01 00 00 	cmpl   $0x0,0x19adc
    353c:	75 0c                	jne    354a <mon_timer+0x52>
    353e:	c7 05 c8 8c 01 00 11 	movl   $0x11,0x18cc8
    3545:	00 00 00 
    3548:	eb 47                	jmp    3591 <mon_timer+0x99>
    354a:	83 3d e8 9a 01 00 04 	cmpl   $0x4,0x19ae8
    3551:	7f 1a                	jg     356d <mon_timer+0x75>
    3553:	83 ec 0c             	sub    $0xc,%esp
    3556:	a1 e4 9a 01 00       	mov    0x19ae4,%eax
    355b:	48                   	dec    %eax
    355c:	50                   	push   %eax
    355d:	e8 1c 5a 00 00       	call   8f7e <mon_tftp_ack>
    3562:	ff 05 e8 9a 01 00    	incl   0x19ae8
    3568:	83 c4 10             	add    $0x10,%esp
    356b:	eb 24                	jmp    3591 <mon_timer+0x99>
    356d:	83 ec 0c             	sub    $0xc,%esp
    3570:	68 90 9d 00 00       	push   $0x9d90
    3575:	e8 ee 24 00 00       	call   5a68 <kprintf>
    357a:	c7 05 c8 8c 01 00 0f 	movl   $0xf,0x18cc8
    3581:	00 00 00 
    3584:	c7 05 e8 b9 00 00 00 	movl   $0x0,0xb9e8
    358b:	00 00 00 
    358e:	83 c4 10             	add    $0x10,%esp
    3591:	b8 01 00 00 00       	mov    $0x1,%eax
    3596:	c9                   	leave  
    3597:	c3                   	ret    

00003598 <mon_ethcmd>:
    3598:	55                   	push   %ebp
    3599:	89 e5                	mov    %esp,%ebp
    359b:	57                   	push   %edi
    359c:	56                   	push   %esi
    359d:	53                   	push   %ebx
    359e:	83 ec 14             	sub    $0x14,%esp
    35a1:	8b 5d 08             	mov    0x8(%ebp),%ebx
    35a4:	8b 45 0c             	mov    0xc(%ebp),%eax
    35a7:	66 89 45 f2          	mov    %ax,0xfffffff2(%ebp)
    35ab:	8b 45 10             	mov    0x10(%ebp),%eax
    35ae:	66 89 45 f0          	mov    %ax,0xfffffff0(%ebp)
    35b2:	6a 08                	push   $0x8
    35b4:	89 d8                	mov    %ebx,%eax
    35b6:	25 ff ff 00 00       	and    $0xffff,%eax
    35bb:	40                   	inc    %eax
    35bc:	50                   	push   %eax
    35bd:	e8 e3 ca ff ff       	call   a5 <outb>
    35c2:	ba 00 00 00 00       	mov    $0x0,%edx
    35c7:	83 c4 10             	add    $0x10,%esp
    35ca:	8b 0d cc b1 00 00    	mov    0xb1cc,%ecx
    35d0:	be 80 3e 00 00       	mov    $0x3e80,%esi
    35d5:	89 f0                	mov    %esi,%eax
    35d7:	d3 f8                	sar    %cl,%eax
    35d9:	48                   	dec    %eax
    35da:	85 c0                	test   %eax,%eax
    35dc:	7f fb                	jg     35d9 <mon_ethcmd+0x41>
    35de:	42                   	inc    %edx
    35df:	83 fa 04             	cmp    $0x4,%edx
    35e2:	7e f1                	jle    35d5 <mon_ethcmd+0x3d>
    35e4:	83 ec 08             	sub    $0x8,%esp
    35e7:	66 8b 45 f2          	mov    0xfffffff2(%ebp),%ax
    35eb:	25 ff ff 00 00       	and    $0xffff,%eax
    35f0:	50                   	push   %eax
    35f1:	89 d8                	mov    %ebx,%eax
    35f3:	25 ff ff 00 00       	and    $0xffff,%eax
    35f8:	50                   	push   %eax
    35f9:	e8 a7 ca ff ff       	call   a5 <outb>
    35fe:	ba 00 00 00 00       	mov    $0x0,%edx
    3603:	83 c4 10             	add    $0x10,%esp
    3606:	8b 0d cc b1 00 00    	mov    0xb1cc,%ecx
    360c:	be 80 3e 00 00       	mov    $0x3e80,%esi
    3611:	89 f0                	mov    %esi,%eax
    3613:	d3 f8                	sar    %cl,%eax
    3615:	48                   	dec    %eax
    3616:	85 c0                	test   %eax,%eax
    3618:	7f fb                	jg     3615 <mon_ethcmd+0x7d>
    361a:	42                   	inc    %edx
    361b:	83 fa 04             	cmp    $0x4,%edx
    361e:	7e f1                	jle    3611 <mon_ethcmd+0x79>
    3620:	be 00 00 00 00       	mov    $0x0,%esi
    3625:	81 e3 ff ff 00 00    	and    $0xffff,%ebx
    362b:	89 5d ec             	mov    %ebx,0xffffffec(%ebp)
    362e:	89 df                	mov    %ebx,%edi
    3630:	47                   	inc    %edi
    3631:	83 ec 0c             	sub    $0xc,%esp
    3634:	57                   	push   %edi
    3635:	e8 52 ca ff ff       	call   8c <inb>
    363a:	83 c4 10             	add    $0x10,%esp
    363d:	a8 08                	test   $0x8,%al
    363f:	74 35                	je     3676 <mon_ethcmd+0xde>
    3641:	83 ec 0c             	sub    $0xc,%esp
    3644:	ff 75 ec             	pushl  0xffffffec(%ebp)
    3647:	e8 40 ca ff ff       	call   8c <inb>
    364c:	83 e0 0f             	and    $0xf,%eax
    364f:	8b 55 f0             	mov    0xfffffff0(%ebp),%edx
    3652:	81 e2 ff ff 00 00    	and    $0xffff,%edx
    3658:	83 c4 10             	add    $0x10,%esp
    365b:	39 d0                	cmp    %edx,%eax
    365d:	75 07                	jne    3666 <mon_ethcmd+0xce>
    365f:	b8 01 00 00 00       	mov    $0x1,%eax
    3664:	eb 51                	jmp    36b7 <mon_ethcmd+0x11f>
    3666:	83 ec 08             	sub    $0x8,%esp
    3669:	6a 08                	push   $0x8
    366b:	57                   	push   %edi
    366c:	e8 34 ca ff ff       	call   a5 <outb>
    3671:	83 c4 10             	add    $0x10,%esp
    3674:	eb 1f                	jmp    3695 <mon_ethcmd+0xfd>
    3676:	ba 00 00 00 00       	mov    $0x0,%edx
    367b:	8b 0d cc b1 00 00    	mov    0xb1cc,%ecx
    3681:	bb 80 3e 00 00       	mov    $0x3e80,%ebx
    3686:	89 d8                	mov    %ebx,%eax
    3688:	d3 f8                	sar    %cl,%eax
    368a:	48                   	dec    %eax
    368b:	85 c0                	test   %eax,%eax
    368d:	7f fb                	jg     368a <mon_ethcmd+0xf2>
    368f:	42                   	inc    %edx
    3690:	83 fa 04             	cmp    $0x4,%edx
    3693:	7e f1                	jle    3686 <mon_ethcmd+0xee>
    3695:	46                   	inc    %esi
    3696:	83 fe 63             	cmp    $0x63,%esi
    3699:	7e 96                	jle    3631 <mon_ethcmd+0x99>
    369b:	83 ec 08             	sub    $0x8,%esp
    369e:	66 8b 45 f2          	mov    0xfffffff2(%ebp),%ax
    36a2:	25 ff ff 00 00       	and    $0xffff,%eax
    36a7:	50                   	push   %eax
    36a8:	68 b5 9d 00 00       	push   $0x9db5
    36ad:	e8 b6 23 00 00       	call   5a68 <kprintf>
    36b2:	b8 ff ff ff ff       	mov    $0xffffffff,%eax
    36b7:	8d 65 f4             	lea    0xfffffff4(%ebp),%esp
    36ba:	5b                   	pop    %ebx
    36bb:	5e                   	pop    %esi
    36bc:	5f                   	pop    %edi
    36bd:	5d                   	pop    %ebp
    36be:	c3                   	ret    
    36bf:	90                   	nop    

000036c0 <mon_pci_init>:
    36c0:	55                   	push   %ebp
    36c1:	89 e5                	mov    %esp,%ebp
    36c3:	83 ec 08             	sub    $0x8,%esp
    36c6:	e8 45 00 00 00       	call   3710 <mon_pcibios_init>
    36cb:	83 f8 01             	cmp    $0x1,%eax
    36ce:	75 20                	jne    36f0 <mon_pci_init+0x30>
    36d0:	83 ec 0c             	sub    $0xc,%esp
    36d3:	68 d4 9d 00 00       	push   $0x9dd4
    36d8:	e8 8b 23 00 00       	call   5a68 <kprintf>
    36dd:	c7 04 24 04 a0 00 00 	movl   $0xa004,(%esp)
    36e4:	e8 7f 23 00 00       	call   5a68 <kprintf>
    36e9:	b8 01 00 00 00       	mov    $0x1,%eax
    36ee:	eb 1e                	jmp    370e <mon_pci_init+0x4e>
    36f0:	83 ec 0c             	sub    $0xc,%esp
    36f3:	68 d4 9d 00 00       	push   $0x9dd4
    36f8:	e8 6b 23 00 00       	call   5a68 <kprintf>
    36fd:	c7 04 24 65 a0 00 00 	movl   $0xa065,(%esp)
    3704:	e8 5f 23 00 00       	call   5a68 <kprintf>
    3709:	b8 ff ff ff ff       	mov    $0xffffffff,%eax
    370e:	c9                   	leave  
    370f:	c3                   	ret    

00003710 <mon_pcibios_init>:
    3710:	55                   	push   %ebp
    3711:	89 e5                	mov    %esp,%ebp
    3713:	56                   	push   %esi
    3714:	53                   	push   %ebx
    3715:	be 00 00 0e 00       	mov    $0xe0000,%esi
    371a:	81 3e 5f 33 32 5f    	cmpl   $0x5f32335f,(%esi)
    3720:	75 7b                	jne    379d <mon_pcibios_init+0x8d>
    3722:	b1 00                	mov    $0x0,%cl
    3724:	b8 00 00 00 00       	mov    $0x0,%eax
    3729:	8a 46 09             	mov    0x9(%esi),%al
    372c:	c1 e0 04             	shl    $0x4,%eax
    372f:	89 f3                	mov    %esi,%ebx
    3731:	ba 00 00 00 00       	mov    $0x0,%edx
    3736:	39 c2                	cmp    %eax,%edx
    3738:	7d 08                	jge    3742 <mon_pcibios_init+0x32>
    373a:	02 0c 13             	add    (%ebx,%edx,1),%cl
    373d:	42                   	inc    %edx
    373e:	39 c2                	cmp    %eax,%edx
    3740:	7c f8                	jl     373a <mon_pcibios_init+0x2a>
    3742:	84 c9                	test   %cl,%cl
    3744:	74 13                	je     3759 <mon_pcibios_init+0x49>
    3746:	83 ec 08             	sub    $0x8,%esp
    3749:	56                   	push   %esi
    374a:	68 fc 9d 00 00       	push   $0x9dfc
    374f:	e8 14 23 00 00       	call   5a68 <kprintf>
    3754:	83 c4 10             	add    $0x10,%esp
    3757:	eb 44                	jmp    379d <mon_pcibios_init+0x8d>
    3759:	80 7e 08 00          	cmpb   $0x0,0x8(%esi)
    375d:	74 1c                	je     377b <mon_pcibios_init+0x6b>
    375f:	83 ec 04             	sub    $0x4,%esp
    3762:	56                   	push   %esi
    3763:	b8 00 00 00 00       	mov    $0x0,%eax
    3768:	8a 46 08             	mov    0x8(%esi),%al
    376b:	50                   	push   %eax
    376c:	68 2c 9e 00 00       	push   $0x9e2c
    3771:	e8 f2 22 00 00       	call   5a68 <kprintf>
    3776:	83 c4 10             	add    $0x10,%esp
    3779:	eb 22                	jmp    379d <mon_pcibios_init+0x8d>
    377b:	89 35 f8 b9 00 00    	mov    %esi,0xb9f8
    3781:	8b 46 04             	mov    0x4(%esi),%eax
    3784:	a3 f0 b9 00 00       	mov    %eax,0xb9f0
    3789:	a3 c4 b2 00 00       	mov    %eax,0xb2c4
    378e:	e8 32 00 00 00       	call   37c5 <mon_check_pcibios>
    3793:	83 f8 01             	cmp    $0x1,%eax
    3796:	19 c0                	sbb    %eax,%eax
    3798:	83 c8 01             	or     $0x1,%eax
    379b:	eb 21                	jmp    37be <mon_pcibios_init+0xae>
    379d:	83 c6 10             	add    $0x10,%esi
    37a0:	81 fe f0 ff 0f 00    	cmp    $0xffff0,%esi
    37a6:	0f 86 6e ff ff ff    	jbe    371a <mon_pcibios_init+0xa>
    37ac:	83 ec 0c             	sub    $0xc,%esp
    37af:	68 60 9e 00 00       	push   $0x9e60
    37b4:	e8 af 22 00 00       	call   5a68 <kprintf>
    37b9:	b8 ff ff ff ff       	mov    $0xffffffff,%eax
    37be:	8d 65 f8             	lea    0xfffffff8(%ebp),%esp
    37c1:	5b                   	pop    %ebx
    37c2:	5e                   	pop    %esi
    37c3:	5d                   	pop    %ebp
    37c4:	c3                   	ret    

000037c5 <mon_check_pcibios>:
    37c5:	55                   	push   %ebp
    37c6:	89 e5                	mov    %esp,%ebp
    37c8:	57                   	push   %edi
    37c9:	56                   	push   %esi
    37ca:	53                   	push   %ebx
    37cb:	83 ec 18             	sub    $0x18,%esp
    37ce:	68 24 50 43 49       	push   $0x49435024
    37d3:	e8 e3 00 00 00       	call   38bb <mon_bios32_service>
    37d8:	a3 f4 b9 00 00       	mov    %eax,0xb9f4
    37dd:	83 c4 10             	add    $0x10,%esp
    37e0:	85 c0                	test   %eax,%eax
    37e2:	0f 84 c6 00 00 00    	je     38ae <mon_check_pcibios+0xe9>
    37e8:	bf cc b2 00 00       	mov    $0xb2cc,%edi
    37ed:	a3 cc b2 00 00       	mov    %eax,0xb2cc
    37f2:	9c                   	pushf  
    37f3:	5e                   	pop    %esi
    37f4:	fa                   	cli    
    37f5:	b8 01 b1 00 00       	mov    $0xb101,%eax
    37fa:	ff 1f                	lcall  *(%edi)
    37fc:	72 02                	jb     3800 <mon_check_pcibios+0x3b>
    37fe:	30 e4                	xor    %ah,%ah
    3800:	c1 e0 08             	shl    $0x8,%eax
    3803:	66 89 d8             	mov    %bx,%ax
    3806:	89 d7                	mov    %edx,%edi
    3808:	56                   	push   %esi
    3809:	9d                   	popf   
    380a:	89 c1                	mov    %eax,%ecx
    380c:	c1 e9 10             	shr    $0x10,%ecx
    380f:	89 c6                	mov    %eax,%esi
    3811:	c1 ee 08             	shr    $0x8,%esi
    3814:	88 c3                	mov    %al,%bl
    3816:	84 c9                	test   %cl,%cl
    3818:	0f 95 c2             	setne  %dl
    381b:	81 ff 50 43 49 20    	cmp    $0x20494350,%edi
    3821:	0f 95 c0             	setne  %al
    3824:	09 d0                	or     %edx,%eax
    3826:	a8 01                	test   $0x1,%al
    3828:	74 54                	je     387e <mon_check_pcibios+0xb9>
    382a:	89 f8                	mov    %edi,%eax
    382c:	c1 f8 18             	sar    $0x18,%eax
    382f:	50                   	push   %eax
    3830:	89 f8                	mov    %edi,%eax
    3832:	c1 e8 10             	shr    $0x10,%eax
    3835:	0f be c0             	movsbl %al,%eax
    3838:	50                   	push   %eax
    3839:	89 fa                	mov    %edi,%edx
    383b:	0f be c6             	movsbl %dh,%eax
    383e:	50                   	push   %eax
    383f:	0f be c2             	movsbl %dl,%eax
    3842:	50                   	push   %eax
    3843:	57                   	push   %edi
    3844:	b8 00 00 00 00       	mov    $0x0,%eax
    3849:	88 c8                	mov    %cl,%al
    384b:	50                   	push   %eax
    384c:	b8 0f a0 00 00       	mov    $0xa00f,%eax
    3851:	81 ff 50 43 49 20    	cmp    $0x20494350,%edi
    3857:	74 05                	je     385e <mon_check_pcibios+0x99>
    3859:	b8 17 a0 00 00       	mov    $0xa017,%eax
    385e:	50                   	push   %eax
    385f:	68 9c 9e 00 00       	push   $0x9e9c
    3864:	e8 ff 21 00 00       	call   5a68 <kprintf>
    3869:	83 c4 20             	add    $0x20,%esp
    386c:	81 ff 50 43 49 20    	cmp    $0x20494350,%edi
    3872:	74 0a                	je     387e <mon_check_pcibios+0xb9>
    3874:	c7 05 f4 b9 00 00 00 	movl   $0x0,0xb9f4
    387b:	00 00 00 
    387e:	83 3d f4 b9 00 00 00 	cmpl   $0x0,0xb9f4
    3885:	74 27                	je     38ae <mon_check_pcibios+0xe9>
    3887:	ff 35 f4 b9 00 00    	pushl  0xb9f4
    388d:	b8 00 00 00 00       	mov    $0x0,%eax
    3892:	88 d8                	mov    %bl,%al
    3894:	50                   	push   %eax
    3895:	89 f0                	mov    %esi,%eax
    3897:	25 ff 00 00 00       	and    $0xff,%eax
    389c:	50                   	push   %eax
    389d:	68 60 9f 00 00       	push   $0x9f60
    38a2:	e8 c1 21 00 00       	call   5a68 <kprintf>
    38a7:	b8 01 00 00 00       	mov    $0x1,%eax
    38ac:	eb 05                	jmp    38b3 <mon_check_pcibios+0xee>
    38ae:	b8 00 00 00 00       	mov    $0x0,%eax
    38b3:	8d 65 f4             	lea    0xfffffff4(%ebp),%esp
    38b6:	5b                   	pop    %ebx
    38b7:	5e                   	pop    %esi
    38b8:	5f                   	pop    %edi
    38b9:	5d                   	pop    %ebp
    38ba:	c3                   	ret    

000038bb <mon_bios32_service>:
    38bb:	55                   	push   %ebp
    38bc:	89 e5                	mov    %esp,%ebp
    38be:	57                   	push   %edi
    38bf:	56                   	push   %esi
    38c0:	53                   	push   %ebx
    38c1:	83 ec 0c             	sub    $0xc,%esp
    38c4:	9c                   	pushf  
    38c5:	5e                   	pop    %esi
    38c6:	fa                   	cli    
    38c7:	bb 00 00 00 00       	mov    $0x0,%ebx
    38cc:	bf c4 b2 00 00       	mov    $0xb2c4,%edi
    38d1:	8b 45 08             	mov    0x8(%ebp),%eax
    38d4:	90                   	nop    
    38d5:	90                   	nop    
    38d6:	ff 1f                	lcall  *(%edi)
    38d8:	89 c7                	mov    %eax,%edi
    38da:	56                   	push   %esi
    38db:	9d                   	popf   
    38dc:	25 ff 00 00 00       	and    $0xff,%eax
    38e1:	85 c0                	test   %eax,%eax
    38e3:	74 09                	je     38ee <mon_bios32_service+0x33>
    38e5:	3d 80 00 00 00       	cmp    $0x80,%eax
    38ea:	74 07                	je     38f3 <mon_bios32_service+0x38>
    38ec:	eb 1c                	jmp    390a <mon_bios32_service+0x4f>
    38ee:	8d 04 13             	lea    (%ebx,%edx,1),%eax
    38f1:	eb 34                	jmp    3927 <mon_bios32_service+0x6c>
    38f3:	83 ec 08             	sub    $0x8,%esp
    38f6:	ff 75 08             	pushl  0x8(%ebp)
    38f9:	68 9c 9f 00 00       	push   $0x9f9c
    38fe:	e8 65 21 00 00       	call   5a68 <kprintf>
    3903:	b8 00 00 00 00       	mov    $0x0,%eax
    3908:	eb 1d                	jmp    3927 <mon_bios32_service+0x6c>
    390a:	83 ec 04             	sub    $0x4,%esp
    390d:	89 f8                	mov    %edi,%eax
    390f:	25 ff 00 00 00       	and    $0xff,%eax
    3914:	50                   	push   %eax
    3915:	ff 75 08             	pushl  0x8(%ebp)
    3918:	68 c8 9f 00 00       	push   $0x9fc8
    391d:	e8 46 21 00 00       	call   5a68 <kprintf>
    3922:	b8 00 00 00 00       	mov    $0x0,%eax
    3927:	8d 65 f4             	lea    0xfffffff4(%ebp),%esp
    392a:	5b                   	pop    %ebx
    392b:	5e                   	pop    %esi
    392c:	5f                   	pop    %edi
    392d:	5d                   	pop    %ebp
    392e:	c3                   	ret    

0000392f <mon_find_pci_device>:
    392f:	55                   	push   %ebp
    3930:	89 e5                	mov    %esp,%ebp
    3932:	57                   	push   %edi
    3933:	56                   	push   %esi
    3934:	53                   	push   %ebx
    3935:	8b 4d 08             	mov    0x8(%ebp),%ecx
    3938:	8b 55 0c             	mov    0xc(%ebp),%edx
    393b:	8b 75 10             	mov    0x10(%ebp),%esi
    393e:	b8 02 b1 00 00       	mov    $0xb102,%eax
    3943:	bf cc b2 00 00       	mov    $0xb2cc,%edi
    3948:	ff 1f                	lcall  *(%edi)
    394a:	31 c9                	xor    %ecx,%ecx
    394c:	c1 e8 08             	shr    $0x8,%eax
    394f:	ba ff ff ff ff       	mov    $0xffffffff,%edx
    3954:	84 c0                	test   %al,%al
    3956:	75 0b                	jne    3963 <mon_find_pci_device+0x34>
    3958:	89 1d 04 8e 01 00    	mov    %ebx,0x18e04
    395e:	ba 01 00 00 00       	mov    $0x1,%edx
    3963:	89 d0                	mov    %edx,%eax
    3965:	5b                   	pop    %ebx
    3966:	5e                   	pop    %esi
    3967:	5f                   	pop    %edi
    3968:	5d                   	pop    %ebp
    3969:	c3                   	ret    

0000396a <mon_pci_bios_read_config_byte>:
    396a:	55                   	push   %ebp
    396b:	89 e5                	mov    %esp,%ebp
    396d:	57                   	push   %edi
    396e:	56                   	push   %esi
    396f:	53                   	push   %ebx
    3970:	8b 5d 08             	mov    0x8(%ebp),%ebx
    3973:	8b 7d 0c             	mov    0xc(%ebp),%edi
    3976:	b8 08 b1 00 00       	mov    $0xb108,%eax
    397b:	be cc b2 00 00       	mov    $0xb2cc,%esi
    3980:	ff 1e                	lcall  *(%esi)
    3982:	fc                   	cld    
    3983:	72 02                	jb     3987 <mon_pci_bios_read_config_byte+0x1d>
    3985:	30 e4                	xor    %ah,%ah
    3987:	8b 55 10             	mov    0x10(%ebp),%edx
    398a:	88 0a                	mov    %cl,(%edx)
    398c:	0f b6 c4             	movzbl %ah,%eax
    398f:	5b                   	pop    %ebx
    3990:	5e                   	pop    %esi
    3991:	5f                   	pop    %edi
    3992:	5d                   	pop    %ebp
    3993:	c3                   	ret    

00003994 <mon_pci_bios_read_config_word>:
    3994:	55                   	push   %ebp
    3995:	89 e5                	mov    %esp,%ebp
    3997:	57                   	push   %edi
    3998:	56                   	push   %esi
    3999:	53                   	push   %ebx
    399a:	8b 5d 08             	mov    0x8(%ebp),%ebx
    399d:	8b 7d 0c             	mov    0xc(%ebp),%edi
    39a0:	b8 09 b1 00 00       	mov    $0xb109,%eax
    39a5:	be cc b2 00 00       	mov    $0xb2cc,%esi
    39aa:	ff 1e                	lcall  *(%esi)
    39ac:	fc                   	cld    
    39ad:	72 02                	jb     39b1 <mon_pci_bios_read_config_word+0x1d>
    39af:	30 e4                	xor    %ah,%ah
    39b1:	8b 55 10             	mov    0x10(%ebp),%edx
    39b4:	66 89 0a             	mov    %cx,(%edx)
    39b7:	0f b6 c4             	movzbl %ah,%eax
    39ba:	5b                   	pop    %ebx
    39bb:	5e                   	pop    %esi
    39bc:	5f                   	pop    %edi
    39bd:	5d                   	pop    %ebp
    39be:	c3                   	ret    

000039bf <mon_pci_bios_read_config_dword>:
    39bf:	55                   	push   %ebp
    39c0:	89 e5                	mov    %esp,%ebp
    39c2:	57                   	push   %edi
    39c3:	56                   	push   %esi
    39c4:	53                   	push   %ebx
    39c5:	8b 5d 08             	mov    0x8(%ebp),%ebx
    39c8:	8b 7d 0c             	mov    0xc(%ebp),%edi
    39cb:	b8 0a b1 00 00       	mov    $0xb10a,%eax
    39d0:	be cc b2 00 00       	mov    $0xb2cc,%esi
    39d5:	ff 1e                	lcall  *(%esi)
    39d7:	fc                   	cld    
    39d8:	72 02                	jb     39dc <mon_pci_bios_read_config_dword+0x1d>
    39da:	30 e4                	xor    %ah,%ah
    39dc:	8b 55 10             	mov    0x10(%ebp),%edx
    39df:	89 0a                	mov    %ecx,(%edx)
    39e1:	0f b6 c4             	movzbl %ah,%eax
    39e4:	5b                   	pop    %ebx
    39e5:	5e                   	pop    %esi
    39e6:	5f                   	pop    %edi
    39e7:	5d                   	pop    %ebp
    39e8:	c3                   	ret    

000039e9 <mon_pci_bios_write_config_byte>:
    39e9:	55                   	push   %ebp
    39ea:	89 e5                	mov    %esp,%ebp
    39ec:	57                   	push   %edi
    39ed:	56                   	push   %esi
    39ee:	53                   	push   %ebx
    39ef:	8b 5d 08             	mov    0x8(%ebp),%ebx
    39f2:	8b 7d 0c             	mov    0xc(%ebp),%edi
    39f5:	8a 4d 10             	mov    0x10(%ebp),%cl
    39f8:	b8 0b b1 00 00       	mov    $0xb10b,%eax
    39fd:	be cc b2 00 00       	mov    $0xb2cc,%esi
    3a02:	ff 1e                	lcall  *(%esi)
    3a04:	fc                   	cld    
    3a05:	72 02                	jb     3a09 <mon_pci_bios_write_config_byte+0x20>
    3a07:	30 e4                	xor    %ah,%ah
    3a09:	0f b6 c4             	movzbl %ah,%eax
    3a0c:	5b                   	pop    %ebx
    3a0d:	5e                   	pop    %esi
    3a0e:	5f                   	pop    %edi
    3a0f:	5d                   	pop    %ebp
    3a10:	c3                   	ret    

00003a11 <mon_pci_bios_write_config_word>:
    3a11:	55                   	push   %ebp
    3a12:	89 e5                	mov    %esp,%ebp
    3a14:	57                   	push   %edi
    3a15:	56                   	push   %esi
    3a16:	53                   	push   %ebx
    3a17:	8b 5d 08             	mov    0x8(%ebp),%ebx
    3a1a:	8b 7d 0c             	mov    0xc(%ebp),%edi
    3a1d:	8b 4d 10             	mov    0x10(%ebp),%ecx
    3a20:	b8 0c b1 00 00       	mov    $0xb10c,%eax
    3a25:	be cc b2 00 00       	mov    $0xb2cc,%esi
    3a2a:	ff 1e                	lcall  *(%esi)
    3a2c:	fc                   	cld    
    3a2d:	72 02                	jb     3a31 <mon_pci_bios_write_config_word+0x20>
    3a2f:	30 e4                	xor    %ah,%ah
    3a31:	0f b6 c4             	movzbl %ah,%eax
    3a34:	5b                   	pop    %ebx
    3a35:	5e                   	pop    %esi
    3a36:	5f                   	pop    %edi
    3a37:	5d                   	pop    %ebp
    3a38:	c3                   	ret    

00003a39 <mon_pci_bios_write_config_dword>:
    3a39:	55                   	push   %ebp
    3a3a:	89 e5                	mov    %esp,%ebp
    3a3c:	57                   	push   %edi
    3a3d:	56                   	push   %esi
    3a3e:	53                   	push   %ebx
    3a3f:	8b 5d 08             	mov    0x8(%ebp),%ebx
    3a42:	8b 7d 0c             	mov    0xc(%ebp),%edi
    3a45:	8b 4d 10             	mov    0x10(%ebp),%ecx
    3a48:	b8 0d b1 00 00       	mov    $0xb10d,%eax
    3a4d:	be cc b2 00 00       	mov    $0xb2cc,%esi
    3a52:	ff 1e                	lcall  *(%esi)
    3a54:	fc                   	cld    
    3a55:	72 02                	jb     3a59 <mon_pci_bios_write_config_dword+0x20>
    3a57:	30 e4                	xor    %ah,%ah
    3a59:	0f b6 c4             	movzbl %ah,%eax
    3a5c:	5b                   	pop    %ebx
    3a5d:	5e                   	pop    %esi
    3a5e:	5f                   	pop    %edi
    3a5f:	5d                   	pop    %ebp
    3a60:	c3                   	ret    
    3a61:	90                   	nop    
    3a62:	90                   	nop    
    3a63:	90                   	nop    

00003a64 <ethcmdwait>:
    3a64:	55                   	push   %ebp
    3a65:	89 e5                	mov    %esp,%ebp
    3a67:	56                   	push   %esi
    3a68:	53                   	push   %ebx
    3a69:	8b 75 08             	mov    0x8(%ebp),%esi
    3a6c:	83 ec 08             	sub    $0x8,%esp
    3a6f:	8b 45 10             	mov    0x10(%ebp),%eax
    3a72:	0b 45 0c             	or     0xc(%ebp),%eax
    3a75:	25 ff ff 00 00       	and    $0xffff,%eax
    3a7a:	50                   	push   %eax
    3a7b:	8b 46 08             	mov    0x8(%esi),%eax
    3a7e:	83 c0 0e             	add    $0xe,%eax
    3a81:	50                   	push   %eax
    3a82:	e8 28 c6 ff ff       	call   af <outw>
    3a87:	bb 00 00 00 00       	mov    $0x0,%ebx
    3a8c:	83 c4 10             	add    $0x10,%esp
    3a8f:	83 ec 0c             	sub    $0xc,%esp
    3a92:	8b 46 08             	mov    0x8(%esi),%eax
    3a95:	83 c0 0e             	add    $0xe,%eax
    3a98:	50                   	push   %eax
    3a99:	e8 f6 c5 ff ff       	call   94 <inw>
    3a9e:	83 c4 10             	add    $0x10,%esp
    3aa1:	f6 c4 10             	test   $0x10,%ah
    3aa4:	75 07                	jne    3aad <ethcmdwait+0x49>
    3aa6:	b8 01 00 00 00       	mov    $0x1,%eax
    3aab:	eb 0e                	jmp    3abb <ethcmdwait+0x57>
    3aad:	43                   	inc    %ebx
    3aae:	81 fb 0f 27 00 00    	cmp    $0x270f,%ebx
    3ab4:	7e d9                	jle    3a8f <ethcmdwait+0x2b>
    3ab6:	b8 ff ff ff ff       	mov    $0xffffffff,%eax
    3abb:	8d 65 f8             	lea    0xfffffff8(%ebp),%esp
    3abe:	5b                   	pop    %ebx
    3abf:	5e                   	pop    %esi
    3ac0:	5d                   	pop    %ebp
    3ac1:	c3                   	ret    

00003ac2 <mon_3c905_ethinit>:
    3ac2:	55                   	push   %ebp
    3ac3:	89 e5                	mov    %esp,%ebp
    3ac5:	57                   	push   %edi
    3ac6:	56                   	push   %esi
    3ac7:	53                   	push   %ebx
    3ac8:	83 ec 10             	sub    $0x10,%esp
    3acb:	bf 00 8e 01 00       	mov    $0x18e00,%edi
    3ad0:	c6 05 11 8e 01 00 00 	movb   $0x0,0x18e11
    3ad7:	68 08 8e 01 00       	push   $0x18e08
    3adc:	6a 10                	push   $0x10
    3ade:	ff 35 04 8e 01 00    	pushl  0x18e04
    3ae4:	e8 d6 fe ff ff       	call   39bf <mon_pci_bios_read_config_dword>
    3ae9:	83 c4 0c             	add    $0xc,%esp
    3aec:	68 0c 8e 01 00       	push   $0x18e0c
    3af1:	6a 14                	push   $0x14
    3af3:	ff 35 04 8e 01 00    	pushl  0x18e04
    3af9:	e8 c1 fe ff ff       	call   39bf <mon_pci_bios_read_config_dword>
    3afe:	83 c4 0c             	add    $0xc,%esp
    3b01:	68 10 8e 01 00       	push   $0x18e10
    3b06:	6a 3c                	push   $0x3c
    3b08:	ff 35 04 8e 01 00    	pushl  0x18e04
    3b0e:	e8 57 fe ff ff       	call   396a <mon_pci_bios_read_config_byte>
    3b13:	83 25 08 8e 01 00 fe 	andl   $0xfffffffe,0x18e08
    3b1a:	83 25 0c 8e 01 00 fd 	andl   $0xfffffffd,0x18e0c
    3b21:	83 c4 0c             	add    $0xc,%esp
    3b24:	8d 45 f2             	lea    0xfffffff2(%ebp),%eax
    3b27:	50                   	push   %eax
    3b28:	6a 04                	push   $0x4
    3b2a:	ff 35 04 8e 01 00    	pushl  0x18e04
    3b30:	e8 5f fe ff ff       	call   3994 <mon_pci_bios_read_config_word>
    3b35:	66 83 4d f2 04       	orw    $0x4,0xfffffff2(%ebp)
    3b3a:	83 c4 0c             	add    $0xc,%esp
    3b3d:	66 8b 45 f2          	mov    0xfffffff2(%ebp),%ax
    3b41:	25 ff ff 00 00       	and    $0xffff,%eax
    3b46:	50                   	push   %eax
    3b47:	6a 04                	push   $0x4
    3b49:	ff 35 04 8e 01 00    	pushl  0x18e04
    3b4f:	e8 bd fe ff ff       	call   3a11 <mon_pci_bios_write_config_word>
    3b54:	83 c4 08             	add    $0x8,%esp
    3b57:	68 02 08 00 00       	push   $0x802
    3b5c:	a1 08 8e 01 00       	mov    0x18e08,%eax
    3b61:	83 c0 0e             	add    $0xe,%eax
    3b64:	50                   	push   %eax
    3b65:	e8 45 c5 ff ff       	call   af <outw>
    3b6a:	83 c4 04             	add    $0x4,%esp
    3b6d:	ff 35 08 8e 01 00    	pushl  0x18e08
    3b73:	e8 1c c5 ff ff       	call   94 <inw>
    3b78:	66 a3 12 8e 01 00    	mov    %ax,0x18e12
    3b7e:	a1 08 8e 01 00       	mov    0x18e08,%eax
    3b83:	83 c0 02             	add    $0x2,%eax
    3b86:	89 04 24             	mov    %eax,(%esp)
    3b89:	e8 06 c5 ff ff       	call   94 <inw>
    3b8e:	66 a3 14 8e 01 00    	mov    %ax,0x18e14
    3b94:	a1 08 8e 01 00       	mov    0x18e08,%eax
    3b99:	83 c0 04             	add    $0x4,%eax
    3b9c:	89 04 24             	mov    %eax,(%esp)
    3b9f:	e8 f0 c4 ff ff       	call   94 <inw>
    3ba4:	66 a3 16 8e 01 00    	mov    %ax,0x18e16
    3baa:	b8 ef 8c 01 00       	mov    $0x18cef,%eax
    3baf:	83 e0 f0             	and    $0xfffffff0,%eax
    3bb2:	a3 f4 8d 01 00       	mov    %eax,0x18df4
    3bb7:	b8 4f 8e 01 00       	mov    $0x18e4f,%eax
    3bbc:	83 e0 f0             	and    $0xfffffff0,%eax
    3bbf:	a3 f0 8d 01 00       	mov    %eax,0x18df0
    3bc4:	bb 00 00 00 00       	mov    $0x0,%ebx
    3bc9:	83 c4 10             	add    $0x10,%esp
    3bcc:	8b 35 f0 8d 01 00    	mov    0x18df0,%esi
    3bd2:	89 d9                	mov    %ebx,%ecx
    3bd4:	c1 e1 04             	shl    $0x4,%ecx
    3bd7:	8d 53 01             	lea    0x1(%ebx),%edx
    3bda:	89 d0                	mov    %edx,%eax
    3bdc:	85 d2                	test   %edx,%edx
    3bde:	79 03                	jns    3be3 <mon_3c905_ethinit+0x121>
    3be0:	8d 43 10             	lea    0x10(%ebx),%eax
    3be3:	83 e0 f0             	and    $0xfffffff0,%eax
    3be6:	29 c2                	sub    %eax,%edx
    3be8:	89 d0                	mov    %edx,%eax
    3bea:	c1 e0 04             	shl    $0x4,%eax
    3bed:	03 05 f0 8d 01 00    	add    0x18df0,%eax
    3bf3:	89 04 31             	mov    %eax,(%ecx,%esi,1)
    3bf6:	89 da                	mov    %ebx,%edx
    3bf8:	c1 e2 04             	shl    $0x4,%edx
    3bfb:	a1 f0 8d 01 00       	mov    0x18df0,%eax
    3c00:	c7 44 02 04 00 00 00 	movl   $0x0,0x4(%edx,%eax,1)
    3c07:	00 
    3c08:	83 ec 0c             	sub    $0xc,%esp
    3c0b:	ff 35 d8 8b 01 00    	pushl  0x18bd8
    3c11:	e8 86 10 00 00       	call   4c9c <getbuf>
    3c16:	89 c6                	mov    %eax,%esi
    3c18:	8d 40 ff             	lea    0xffffffff(%eax),%eax
    3c1b:	83 c4 10             	add    $0x10,%esp
    3c1e:	83 f8 fd             	cmp    $0xfffffffd,%eax
    3c21:	76 1c                	jbe    3c3f <mon_3c905_ethinit+0x17d>
    3c23:	83 ec 0c             	sub    $0xc,%esp
    3c26:	68 1d a0 00 00       	push   $0xa01d
    3c2b:	e8 38 1e 00 00       	call   5a68 <kprintf>
    3c30:	c7 04 24 34 a0 00 00 	movl   $0xa034,(%esp)
    3c37:	e8 cc 20 00 00       	call   5d08 <panic>
    3c3c:	83 c4 10             	add    $0x10,%esp
    3c3f:	89 d9                	mov    %ebx,%ecx
    3c41:	c1 e1 04             	shl    $0x4,%ecx
    3c44:	8d 56 08             	lea    0x8(%esi),%edx
    3c47:	a1 f0 8d 01 00       	mov    0x18df0,%eax
    3c4c:	89 54 01 08          	mov    %edx,0x8(%ecx,%eax,1)
    3c50:	a1 f0 8d 01 00       	mov    0x18df0,%eax
    3c55:	c7 44 01 0c ea 05 00 	movl   $0x800005ea,0xc(%ecx,%eax,1)
    3c5c:	80 
    3c5d:	43                   	inc    %ebx
    3c5e:	83 fb 0f             	cmp    $0xf,%ebx
    3c61:	0f 8e 65 ff ff ff    	jle    3bcc <mon_3c905_ethinit+0x10a>
    3c67:	c7 47 20 00 00 00 00 	movl   $0x0,0x20(%edi)
    3c6e:	83 ec 08             	sub    $0x8,%esp
    3c71:	68 00 01 00 00       	push   $0x100
    3c76:	ff 35 f4 8d 01 00    	pushl  0x18df4
    3c7c:	e8 65 c4 ff ff       	call   e6 <bzero>
    3c81:	c7 47 18 00 00 00 00 	movl   $0x0,0x18(%edi)
    3c88:	c7 47 1c 0f 00 00 00 	movl   $0xf,0x1c(%edi)
    3c8f:	83 c4 0c             	add    $0xc,%esp
    3c92:	6a 07                	push   $0x7
    3c94:	68 00 28 00 00       	push   $0x2800
    3c99:	57                   	push   %edi
    3c9a:	e8 c5 fd ff ff       	call   3a64 <ethcmdwait>
    3c9f:	83 c4 0c             	add    $0xc,%esp
    3ca2:	6a 03                	push   $0x3
    3ca4:	68 00 58 00 00       	push   $0x5800
    3ca9:	57                   	push   %edi
    3caa:	e8 b5 fd ff ff       	call   3a64 <ethcmdwait>
    3caf:	83 c4 08             	add    $0x8,%esp
    3cb2:	68 be 8c 00 00       	push   $0x8cbe
    3cb7:	b8 00 00 00 00       	mov    $0x0,%eax
    3cbc:	8a 47 10             	mov    0x10(%edi),%al
    3cbf:	83 c0 20             	add    $0x20,%eax
    3cc2:	50                   	push   %eax
    3cc3:	e8 1a 0c 00 00       	call   48e2 <set_evec>
    3cc8:	83 c4 08             	add    $0x8,%esp
    3ccb:	68 04 7c 00 00       	push   $0x7c04
    3cd0:	8b 47 08             	mov    0x8(%edi),%eax
    3cd3:	83 c0 0e             	add    $0xe,%eax
    3cd6:	50                   	push   %eax
    3cd7:	e8 d3 c3 ff ff       	call   af <outw>
    3cdc:	83 c4 08             	add    $0x8,%esp
    3cdf:	68 04 74 00 00       	push   $0x7404
    3ce4:	8b 47 08             	mov    0x8(%edi),%eax
    3ce7:	83 c0 0e             	add    $0xe,%eax
    3cea:	50                   	push   %eax
    3ceb:	e8 bf c3 ff ff       	call   af <outw>
    3cf0:	83 c4 08             	add    $0x8,%esp
    3cf3:	68 07 80 00 00       	push   $0x8007
    3cf8:	8b 47 08             	mov    0x8(%edi),%eax
    3cfb:	83 c0 0e             	add    $0xe,%eax
    3cfe:	50                   	push   %eax
    3cff:	e8 ab c3 ff ff       	call   af <outw>
    3d04:	83 c4 0c             	add    $0xc,%esp
    3d07:	6a 00                	push   $0x0
    3d09:	68 00 30 00 00       	push   $0x3000
    3d0e:	57                   	push   %edi
    3d0f:	e8 50 fd ff ff       	call   3a64 <ethcmdwait>
    3d14:	83 c4 08             	add    $0x8,%esp
    3d17:	ff 35 f0 8d 01 00    	pushl  0x18df0
    3d1d:	8b 47 08             	mov    0x8(%edi),%eax
    3d20:	83 c0 38             	add    $0x38,%eax
    3d23:	50                   	push   %eax
    3d24:	e8 91 c3 ff ff       	call   ba <outl>
    3d29:	83 c4 08             	add    $0x8,%esp
    3d2c:	68 01 30 00 00       	push   $0x3001
    3d31:	8b 47 08             	mov    0x8(%edi),%eax
    3d34:	83 c0 0e             	add    $0xe,%eax
    3d37:	50                   	push   %eax
    3d38:	e8 72 c3 ff ff       	call   af <outw>
    3d3d:	83 c4 08             	add    $0x8,%esp
    3d40:	68 00 20 00 00       	push   $0x2000
    3d45:	8b 47 08             	mov    0x8(%edi),%eax
    3d48:	83 c0 0e             	add    $0xe,%eax
    3d4b:	50                   	push   %eax
    3d4c:	e8 5e c3 ff ff       	call   af <outw>
    3d51:	83 c4 08             	add    $0x8,%esp
    3d54:	68 00 48 00 00       	push   $0x4800
    3d59:	8b 47 08             	mov    0x8(%edi),%eax
    3d5c:	83 c0 0e             	add    $0xe,%eax
    3d5f:	50                   	push   %eax
    3d60:	e8 4a c3 ff ff       	call   af <outw>
    3d65:	c7 07 00 00 00 00    	movl   $0x0,(%edi)
    3d6b:	c7 05 88 8c 01 00 f9 	movl   $0x40f9,0x18c88
    3d72:	40 00 00 
    3d75:	ba a0 8c 01 00       	mov    $0x18ca0,%edx
    3d7a:	bb 00 00 00 00       	mov    $0x0,%ebx
    3d7f:	83 c4 10             	add    $0x10,%esp
    3d82:	8a 44 3b 12          	mov    0x12(%ebx,%edi,1),%al
    3d86:	88 04 1a             	mov    %al,(%edx,%ebx,1)
    3d89:	c6 44 1a 06 ff       	movb   $0xff,0x6(%edx,%ebx,1)
    3d8e:	43                   	inc    %ebx
    3d8f:	83 fb 05             	cmp    $0x5,%ebx
    3d92:	7e ee                	jle    3d82 <mon_3c905_ethinit+0x2c0>
    3d94:	b8 00 00 00 00       	mov    $0x0,%eax
    3d99:	8a 47 10             	mov    0x10(%edi),%al
    3d9c:	66 89 42 12          	mov    %ax,0x12(%edx)
    3da0:	b8 01 00 00 00       	mov    $0x1,%eax
    3da5:	8d 65 f4             	lea    0xfffffff4(%ebp),%esp
    3da8:	5b                   	pop    %ebx
    3da9:	5e                   	pop    %esi
    3daa:	5f                   	pop    %edi
    3dab:	5d                   	pop    %ebp
    3dac:	c3                   	ret    

00003dad <mon_3c905_ethintr>:
    3dad:	55                   	push   %ebp
    3dae:	89 e5                	mov    %esp,%ebp
    3db0:	56                   	push   %esi
    3db1:	53                   	push   %ebx
    3db2:	83 ec 1c             	sub    $0x1c,%esp
    3db5:	8d 45 f6             	lea    0xfffffff6(%ebp),%eax
    3db8:	50                   	push   %eax
    3db9:	e8 fe c9 ff ff       	call   7bc <disable>
    3dbe:	be 00 8e 01 00       	mov    $0x18e00,%esi
    3dc3:	83 c4 08             	add    $0x8,%esp
    3dc6:	68 00 70 00 00       	push   $0x7000
    3dcb:	a1 08 8e 01 00       	mov    0x18e08,%eax
    3dd0:	83 c0 0e             	add    $0xe,%eax
    3dd3:	50                   	push   %eax
    3dd4:	e8 d6 c2 ff ff       	call   af <outw>
    3dd9:	a1 08 8e 01 00       	mov    0x18e08,%eax
    3dde:	83 c0 0e             	add    $0xe,%eax
    3de1:	89 04 24             	mov    %eax,(%esp)
    3de4:	e8 ab c2 ff ff       	call   94 <inw>
    3de9:	83 c4 10             	add    $0x10,%esp
    3dec:	a8 01                	test   $0x1,%al
    3dee:	75 2b                	jne    3e1b <mon_3c905_ethintr+0x6e>
    3df0:	83 ec 08             	sub    $0x8,%esp
    3df3:	68 04 74 00 00       	push   $0x7404
    3df8:	a1 08 8e 01 00       	mov    0x18e08,%eax
    3dfd:	83 c0 0e             	add    $0xe,%eax
    3e00:	50                   	push   %eax
    3e01:	e8 a9 c2 ff ff       	call   af <outw>
    3e06:	8d 45 f6             	lea    0xfffffff6(%ebp),%eax
    3e09:	89 04 24             	mov    %eax,(%esp)
    3e0c:	e8 d3 c9 ff ff       	call   7e4 <restore>
    3e11:	b8 01 00 00 00       	mov    $0x1,%eax
    3e16:	e9 1c 01 00 00       	jmp    3f37 <mon_3c905_ethintr+0x18a>
    3e1b:	83 ec 08             	sub    $0x8,%esp
    3e1e:	68 01 68 00 00       	push   $0x6801
    3e23:	8b 46 08             	mov    0x8(%esi),%eax
    3e26:	83 c0 0e             	add    $0xe,%eax
    3e29:	50                   	push   %eax
    3e2a:	e8 80 c2 ff ff       	call   af <outw>
    3e2f:	83 c4 10             	add    $0x10,%esp
    3e32:	83 ec 0c             	sub    $0xc,%esp
    3e35:	8b 46 08             	mov    0x8(%esi),%eax
    3e38:	83 c0 0e             	add    $0xe,%eax
    3e3b:	50                   	push   %eax
    3e3c:	e8 53 c2 ff ff       	call   94 <inw>
    3e41:	83 c4 10             	add    $0x10,%esp
    3e44:	89 c3                	mov    %eax,%ebx
    3e46:	81 e3 04 04 00 00    	and    $0x404,%ebx
    3e4c:	0f 84 c1 00 00 00    	je     3f13 <mon_3c905_ethintr+0x166>
    3e52:	f6 c4 04             	test   $0x4,%ah
    3e55:	74 1f                	je     3e76 <mon_3c905_ethintr+0xc9>
    3e57:	83 ec 08             	sub    $0x8,%esp
    3e5a:	68 00 6c 00 00       	push   $0x6c00
    3e5f:	8b 46 08             	mov    0x8(%esi),%eax
    3e62:	83 c0 0e             	add    $0xe,%eax
    3e65:	50                   	push   %eax
    3e66:	e8 44 c2 ff ff       	call   af <outw>
    3e6b:	89 34 24             	mov    %esi,(%esp)
    3e6e:	e8 cb 00 00 00       	call   3f3e <mon_3c905_ethdemux>
    3e73:	83 c4 10             	add    $0x10,%esp
    3e76:	f6 c3 04             	test   $0x4,%bl
    3e79:	74 2b                	je     3ea6 <mon_3c905_ethintr+0xf9>
    3e7b:	83 ec 0c             	sub    $0xc,%esp
    3e7e:	56                   	push   %esi
    3e7f:	e8 de 01 00 00       	call   4062 <mon_3c905_ethxintr>
    3e84:	8b 46 08             	mov    0x8(%esi),%eax
    3e87:	83 c0 1b             	add    $0x1b,%eax
    3e8a:	89 04 24             	mov    %eax,(%esp)
    3e8d:	e8 fa c1 ff ff       	call   8c <inb>
    3e92:	83 c4 08             	add    $0x8,%esp
    3e95:	6a 01                	push   $0x1
    3e97:	8b 46 08             	mov    0x8(%esi),%eax
    3e9a:	83 c0 1b             	add    $0x1b,%eax
    3e9d:	50                   	push   %eax
    3e9e:	e8 02 c2 ff ff       	call   a5 <outb>
    3ea3:	83 c4 10             	add    $0x10,%esp
    3ea6:	f6 46 11 01          	testb  $0x1,0x11(%esi)
    3eaa:	74 86                	je     3e32 <mon_3c905_ethintr+0x85>
    3eac:	8b 46 20             	mov    0x20(%esi),%eax
    3eaf:	c1 e0 04             	shl    $0x4,%eax
    3eb2:	89 c3                	mov    %eax,%ebx
    3eb4:	03 1d f0 8d 01 00    	add    0x18df0,%ebx
    3eba:	83 7b 04 00          	cmpl   $0x0,0x4(%ebx)
    3ebe:	74 06                	je     3ec6 <mon_3c905_ethintr+0x119>
    3ec0:	83 7b 08 00          	cmpl   $0x0,0x8(%ebx)
    3ec4:	74 09                	je     3ecf <mon_3c905_ethintr+0x122>
    3ec6:	80 66 11 fe          	andb   $0xfe,0x11(%esi)
    3eca:	e9 63 ff ff ff       	jmp    3e32 <mon_3c905_ethintr+0x85>
    3ecf:	83 ec 0c             	sub    $0xc,%esp
    3ed2:	ff 35 d8 8b 01 00    	pushl  0x18bd8
    3ed8:	e8 bf 0d 00 00       	call   4c9c <getbuf>
    3edd:	89 43 08             	mov    %eax,0x8(%ebx)
    3ee0:	48                   	dec    %eax
    3ee1:	83 c4 10             	add    $0x10,%esp
    3ee4:	83 f8 fd             	cmp    $0xfffffffd,%eax
    3ee7:	77 1e                	ja     3f07 <mon_3c905_ethintr+0x15a>
    3ee9:	c7 43 04 00 00 00 00 	movl   $0x0,0x4(%ebx)
    3ef0:	83 43 08 08          	addl   $0x8,0x8(%ebx)
    3ef4:	c7 43 0c ea 05 00 80 	movl   $0x800005ea,0xc(%ebx)
    3efb:	8b 46 20             	mov    0x20(%esi),%eax
    3efe:	40                   	inc    %eax
    3eff:	83 e0 0f             	and    $0xf,%eax
    3f02:	89 46 20             	mov    %eax,0x20(%esi)
    3f05:	eb a5                	jmp    3eac <mon_3c905_ethintr+0xff>
    3f07:	c7 43 08 00 00 00 00 	movl   $0x0,0x8(%ebx)
    3f0e:	e9 1f ff ff ff       	jmp    3e32 <mon_3c905_ethintr+0x85>
    3f13:	83 ec 08             	sub    $0x8,%esp
    3f16:	68 04 74 00 00       	push   $0x7404
    3f1b:	8b 46 08             	mov    0x8(%esi),%eax
    3f1e:	83 c0 0e             	add    $0xe,%eax
    3f21:	50                   	push   %eax
    3f22:	e8 88 c1 ff ff       	call   af <outw>
    3f27:	8d 45 f6             	lea    0xfffffff6(%ebp),%eax
    3f2a:	89 04 24             	mov    %eax,(%esp)
    3f2d:	e8 b2 c8 ff ff       	call   7e4 <restore>
    3f32:	b8 01 00 00 00       	mov    $0x1,%eax
    3f37:	8d 65 f8             	lea    0xfffffff8(%ebp),%esp
    3f3a:	5b                   	pop    %ebx
    3f3b:	5e                   	pop    %esi
    3f3c:	5d                   	pop    %ebp
    3f3d:	c3                   	ret    

00003f3e <mon_3c905_ethdemux>:
    3f3e:	55                   	push   %ebp
    3f3f:	89 e5                	mov    %esp,%ebp
    3f41:	57                   	push   %edi
    3f42:	56                   	push   %esi
    3f43:	53                   	push   %ebx
    3f44:	83 ec 0c             	sub    $0xc,%esp
    3f47:	8b 7d 08             	mov    0x8(%ebp),%edi
    3f4a:	c7 45 f0 09 00 00 00 	movl   $0x9,0xfffffff0(%ebp)
    3f51:	8b 47 20             	mov    0x20(%edi),%eax
    3f54:	c1 e0 04             	shl    $0x4,%eax
    3f57:	89 c6                	mov    %eax,%esi
    3f59:	03 35 f0 8d 01 00    	add    0x18df0,%esi
    3f5f:	8b 46 04             	mov    0x4(%esi),%eax
    3f62:	66 85 c0             	test   %ax,%ax
    3f65:	0f 89 bc 00 00 00    	jns    4027 <mon_3c905_ethdemux+0xe9>
    3f6b:	f6 c4 40             	test   $0x40,%ah
    3f6e:	74 13                	je     3f83 <mon_3c905_ethdemux+0x45>
    3f70:	c7 46 04 00 00 00 00 	movl   $0x0,0x4(%esi)
    3f77:	c7 46 0c ea 05 00 80 	movl   $0x800005ea,0xc(%esi)
    3f7e:	e9 8d 00 00 00       	jmp    4010 <mon_3c905_ethdemux+0xd2>
    3f83:	83 7e 08 00          	cmpl   $0x0,0x8(%esi)
    3f87:	74 4e                	je     3fd7 <mon_3c905_ethdemux+0x99>
    3f89:	80 67 11 fe          	andb   $0xfe,0x11(%edi)
    3f8d:	89 c3                	mov    %eax,%ebx
    3f8f:	81 e3 ff 1f 00 00    	and    $0x1fff,%ebx
    3f95:	8b 4e 08             	mov    0x8(%esi),%ecx
    3f98:	83 e9 08             	sub    $0x8,%ecx
    3f9b:	8b 07                	mov    (%edi),%eax
    3f9d:	66 89 41 04          	mov    %ax,0x4(%ecx)
    3fa1:	66 89 59 06          	mov    %bx,0x6(%ecx)
    3fa5:	66 8b 41 14          	mov    0x14(%ecx),%ax
    3fa9:	89 c2                	mov    %eax,%edx
    3fab:	66 c1 ea 08          	shr    $0x8,%dx
    3faf:	25 ff 00 00 00       	and    $0xff,%eax
    3fb4:	c1 e0 08             	shl    $0x8,%eax
    3fb7:	09 c2                	or     %eax,%edx
    3fb9:	66 89 51 14          	mov    %dx,0x14(%ecx)
    3fbd:	83 ec 04             	sub    $0x4,%esp
    3fc0:	53                   	push   %ebx
    3fc1:	51                   	push   %ecx
    3fc2:	8b 07                	mov    (%edi),%eax
    3fc4:	8d 04 40             	lea    (%eax,%eax,2),%eax
    3fc7:	8d 04 c5 74 8c 01 00 	lea    0x18c74(,%eax,8),%eax
    3fce:	50                   	push   %eax
    3fcf:	e8 51 dc ff ff       	call   1c25 <mon_ni_in>
    3fd4:	83 c4 10             	add    $0x10,%esp
    3fd7:	83 ec 0c             	sub    $0xc,%esp
    3fda:	ff 35 d8 8b 01 00    	pushl  0x18bd8
    3fe0:	e8 b7 0c 00 00       	call   4c9c <getbuf>
    3fe5:	89 46 08             	mov    %eax,0x8(%esi)
    3fe8:	48                   	dec    %eax
    3fe9:	83 c4 10             	add    $0x10,%esp
    3fec:	83 f8 fd             	cmp    $0xfffffffd,%eax
    3fef:	76 0d                	jbe    3ffe <mon_3c905_ethdemux+0xc0>
    3ff1:	c7 46 08 00 00 00 00 	movl   $0x0,0x8(%esi)
    3ff8:	80 4f 11 01          	orb    $0x1,0x11(%edi)
    3ffc:	eb 29                	jmp    4027 <mon_3c905_ethdemux+0xe9>
    3ffe:	c7 46 04 00 00 00 00 	movl   $0x0,0x4(%esi)
    4005:	83 46 08 08          	addl   $0x8,0x8(%esi)
    4009:	c7 46 0c ea 05 00 80 	movl   $0x800005ea,0xc(%esi)
    4010:	8b 47 20             	mov    0x20(%edi),%eax
    4013:	40                   	inc    %eax
    4014:	83 e0 0f             	and    $0xf,%eax
    4017:	89 47 20             	mov    %eax,0x20(%edi)
    401a:	ff 4d f0             	decl   0xfffffff0(%ebp)
    401d:	83 7d f0 ff          	cmpl   $0xffffffff,0xfffffff0(%ebp)
    4021:	0f 85 2a ff ff ff    	jne    3f51 <mon_3c905_ethdemux+0x13>
    4027:	83 ec 0c             	sub    $0xc,%esp
    402a:	8b 47 08             	mov    0x8(%edi),%eax
    402d:	83 c0 30             	add    $0x30,%eax
    4030:	50                   	push   %eax
    4031:	e8 67 c0 ff ff       	call   9d <inl>
    4036:	83 c4 10             	add    $0x10,%esp
    4039:	f6 c4 20             	test   $0x20,%ah
    403c:	74 17                	je     4055 <mon_3c905_ethdemux+0x117>
    403e:	83 ec 08             	sub    $0x8,%esp
    4041:	68 01 30 00 00       	push   $0x3001
    4046:	8b 47 08             	mov    0x8(%edi),%eax
    4049:	83 c0 0e             	add    $0xe,%eax
    404c:	50                   	push   %eax
    404d:	e8 5d c0 ff ff       	call   af <outw>
    4052:	83 c4 10             	add    $0x10,%esp
    4055:	b8 01 00 00 00       	mov    $0x1,%eax
    405a:	8d 65 f4             	lea    0xfffffff4(%ebp),%esp
    405d:	5b                   	pop    %ebx
    405e:	5e                   	pop    %esi
    405f:	5f                   	pop    %edi
    4060:	5d                   	pop    %ebp
    4061:	c3                   	ret    

00004062 <mon_3c905_ethxintr>:
    4062:	55                   	push   %ebp
    4063:	89 e5                	mov    %esp,%ebp
    4065:	57                   	push   %edi
    4066:	56                   	push   %esi
    4067:	53                   	push   %ebx
    4068:	83 ec 0c             	sub    $0xc,%esp
    406b:	8b 7d 08             	mov    0x8(%ebp),%edi
    406e:	8b 47 18             	mov    0x18(%edi),%eax
    4071:	c1 e0 04             	shl    $0x4,%eax
    4074:	89 c6                	mov    %eax,%esi
    4076:	03 35 f4 8d 01 00    	add    0x18df4,%esi
    407c:	f6 46 06 01          	testb  $0x1,0x6(%esi)
    4080:	74 6a                	je     40ec <mon_3c905_ethxintr+0x8a>
    4082:	83 ec 0c             	sub    $0xc,%esp
    4085:	8b 47 08             	mov    0x8(%edi),%eax
    4088:	83 c0 1b             	add    $0x1b,%eax
    408b:	50                   	push   %eax
    408c:	e8 fb bf ff ff       	call   8c <inb>
    4091:	89 c3                	mov    %eax,%ebx
    4093:	83 c4 08             	add    $0x8,%esp
    4096:	50                   	push   %eax
    4097:	8b 47 08             	mov    0x8(%edi),%eax
    409a:	83 c0 1b             	add    $0x1b,%eax
    409d:	50                   	push   %eax
    409e:	e8 02 c0 ff ff       	call   a5 <outb>
    40a3:	83 c4 10             	add    $0x10,%esp
    40a6:	f6 c3 3e             	test   $0x3e,%bl
    40a9:	74 1c                	je     40c7 <mon_3c905_ethxintr+0x65>
    40ab:	f6 c3 0c             	test   $0xc,%bl
    40ae:	74 17                	je     40c7 <mon_3c905_ethxintr+0x65>
    40b0:	83 ec 08             	sub    $0x8,%esp
    40b3:	68 00 48 00 00       	push   $0x4800
    40b8:	8b 47 08             	mov    0x8(%edi),%eax
    40bb:	83 c0 0e             	add    $0xe,%eax
    40be:	50                   	push   %eax
    40bf:	e8 eb bf ff ff       	call   af <outw>
    40c4:	83 c4 10             	add    $0x10,%esp
    40c7:	c7 46 04 00 00 00 00 	movl   $0x0,0x4(%esi)
    40ce:	8b 46 08             	mov    0x8(%esi),%eax
    40d1:	83 e8 08             	sub    $0x8,%eax
    40d4:	83 ec 0c             	sub    $0xc,%esp
    40d7:	50                   	push   %eax
    40d8:	e8 2f 0a 00 00       	call   4b0c <freebuf>
    40dd:	8b 47 18             	mov    0x18(%edi),%eax
    40e0:	40                   	inc    %eax
    40e1:	83 e0 0f             	and    $0xf,%eax
    40e4:	89 47 18             	mov    %eax,0x18(%edi)
    40e7:	83 c4 10             	add    $0x10,%esp
    40ea:	eb 82                	jmp    406e <mon_3c905_ethxintr+0xc>
    40ec:	b8 01 00 00 00       	mov    $0x1,%eax
    40f1:	8d 65 f4             	lea    0xfffffff4(%ebp),%esp
    40f4:	5b                   	pop    %ebx
    40f5:	5e                   	pop    %esi
    40f6:	5f                   	pop    %edi
    40f7:	5d                   	pop    %ebp
    40f8:	c3                   	ret    

000040f9 <mon_3c905_ethwrite>:
    40f9:	55                   	push   %ebp
    40fa:	89 e5                	mov    %esp,%ebp
    40fc:	57                   	push   %edi
    40fd:	56                   	push   %esi
    40fe:	53                   	push   %ebx
    40ff:	83 ec 0c             	sub    $0xc,%esp
    4102:	8b 7d 08             	mov    0x8(%ebp),%edi
    4105:	85 ff                	test   %edi,%edi
    4107:	0f 94 c2             	sete   %dl
    410a:	81 7d 0c ea 05 00 00 	cmpl   $0x5ea,0xc(%ebp)
    4111:	0f 9f c0             	setg   %al
    4114:	09 d0                	or     %edx,%eax
    4116:	ba ff ff ff ff       	mov    $0xffffffff,%edx
    411b:	a8 01                	test   $0x1,%al
    411d:	0f 85 1e 01 00 00    	jne    4241 <mon_3c905_ethwrite+0x148>
    4123:	83 ec 04             	sub    $0x4,%esp
    4126:	6a 06                	push   $0x6
    4128:	68 12 8e 01 00       	push   $0x18e12
    412d:	8d 47 0e             	lea    0xe(%edi),%eax
    4130:	50                   	push   %eax
    4131:	e8 2a 4f 00 00       	call   9060 <blkcopy>
    4136:	8b 45 0c             	mov    0xc(%ebp),%eax
    4139:	66 89 47 06          	mov    %ax,0x6(%edi)
    413d:	66 8b 47 14          	mov    0x14(%edi),%ax
    4141:	89 c2                	mov    %eax,%edx
    4143:	66 c1 ea 08          	shr    $0x8,%dx
    4147:	25 ff 00 00 00       	and    $0xff,%eax
    414c:	c1 e0 08             	shl    $0x8,%eax
    414f:	09 c2                	or     %eax,%edx
    4151:	66 89 57 14          	mov    %dx,0x14(%edi)
    4155:	8d 45 f2             	lea    0xfffffff2(%ebp),%eax
    4158:	89 04 24             	mov    %eax,(%esp)
    415b:	e8 5c c6 ff ff       	call   7bc <disable>
    4160:	a1 1c 8e 01 00       	mov    0x18e1c,%eax
    4165:	83 c0 02             	add    $0x2,%eax
    4168:	83 e0 0f             	and    $0xf,%eax
    416b:	83 c4 10             	add    $0x10,%esp
    416e:	3b 05 18 8e 01 00    	cmp    0x18e18,%eax
    4174:	75 1e                	jne    4194 <mon_3c905_ethwrite+0x9b>
    4176:	83 ec 0c             	sub    $0xc,%esp
    4179:	8d 45 f2             	lea    0xfffffff2(%ebp),%eax
    417c:	50                   	push   %eax
    417d:	e8 62 c6 ff ff       	call   7e4 <restore>
    4182:	89 3c 24             	mov    %edi,(%esp)
    4185:	e8 82 09 00 00       	call   4b0c <freebuf>
    418a:	ba ff ff ff ff       	mov    $0xffffffff,%edx
    418f:	e9 ad 00 00 00       	jmp    4241 <mon_3c905_ethwrite+0x148>
    4194:	a1 1c 8e 01 00       	mov    0x18e1c,%eax
    4199:	89 c2                	mov    %eax,%edx
    419b:	c1 e2 04             	shl    $0x4,%edx
    419e:	8b 0d f4 8d 01 00    	mov    0x18df4,%ecx
    41a4:	8d 34 0a             	lea    (%edx,%ecx,1),%esi
    41a7:	40                   	inc    %eax
    41a8:	83 e0 0f             	and    $0xf,%eax
    41ab:	a3 1c 8e 01 00       	mov    %eax,0x18e1c
    41b0:	c1 e0 04             	shl    $0x4,%eax
    41b3:	8d 1c 08             	lea    (%eax,%ecx,1),%ebx
    41b6:	83 ec 0c             	sub    $0xc,%esp
    41b9:	8d 45 f2             	lea    0xfffffff2(%ebp),%eax
    41bc:	50                   	push   %eax
    41bd:	e8 22 c6 ff ff       	call   7e4 <restore>
    41c2:	c7 03 00 00 00 00    	movl   $0x0,(%ebx)
    41c8:	8b 45 0c             	mov    0xc(%ebp),%eax
    41cb:	0d 00 80 00 10       	or     $0x10008000,%eax
    41d0:	89 43 04             	mov    %eax,0x4(%ebx)
    41d3:	8d 47 08             	lea    0x8(%edi),%eax
    41d6:	89 43 08             	mov    %eax,0x8(%ebx)
    41d9:	8b 45 0c             	mov    0xc(%ebp),%eax
    41dc:	0d 00 00 00 80       	or     $0x80000000,%eax
    41e1:	89 43 0c             	mov    %eax,0xc(%ebx)
    41e4:	83 c4 0c             	add    $0xc,%esp
    41e7:	6a 00                	push   $0x0
    41e9:	68 02 30 00 00       	push   $0x3002
    41ee:	68 00 8e 01 00       	push   $0x18e00
    41f3:	e8 6c f8 ff ff       	call   3a64 <ethcmdwait>
    41f8:	89 1e                	mov    %ebx,(%esi)
    41fa:	a1 08 8e 01 00       	mov    0x18e08,%eax
    41ff:	83 c0 24             	add    $0x24,%eax
    4202:	89 04 24             	mov    %eax,(%esp)
    4205:	e8 93 be ff ff       	call   9d <inl>
    420a:	83 c4 10             	add    $0x10,%esp
    420d:	85 c0                	test   %eax,%eax
    420f:	75 15                	jne    4226 <mon_3c905_ethwrite+0x12d>
    4211:	83 ec 08             	sub    $0x8,%esp
    4214:	53                   	push   %ebx
    4215:	a1 08 8e 01 00       	mov    0x18e08,%eax
    421a:	83 c0 24             	add    $0x24,%eax
    421d:	50                   	push   %eax
    421e:	e8 97 be ff ff       	call   ba <outl>
    4223:	83 c4 10             	add    $0x10,%esp
    4226:	83 ec 08             	sub    $0x8,%esp
    4229:	68 03 30 00 00       	push   $0x3003
    422e:	a1 08 8e 01 00       	mov    0x18e08,%eax
    4233:	83 c0 0e             	add    $0xe,%eax
    4236:	50                   	push   %eax
    4237:	e8 73 be ff ff       	call   af <outw>
    423c:	ba 01 00 00 00       	mov    $0x1,%edx
    4241:	89 d0                	mov    %edx,%eax
    4243:	8d 65 f4             	lea    0xfffffff4(%ebp),%esp
    4246:	5b                   	pop    %ebx
    4247:	5e                   	pop    %esi
    4248:	5f                   	pop    %edi
    4249:	5d                   	pop    %ebp
    424a:	c3                   	ret    
    424b:	90                   	nop    

0000424c <blkcmp>:
    424c:	55                   	push   %ebp
    424d:	89 e5                	mov    %esp,%ebp
    424f:	57                   	push   %edi
    4250:	56                   	push   %esi
    4251:	53                   	push   %ebx
    4252:	8b 7d 10             	mov    0x10(%ebp),%edi
    4255:	b8 00 00 00 00       	mov    $0x0,%eax
    425a:	8b 5d 08             	mov    0x8(%ebp),%ebx
    425d:	8b 4d 0c             	mov    0xc(%ebp),%ecx
    4260:	be 00 00 00 00       	mov    $0x0,%esi
    4265:	39 f8                	cmp    %edi,%eax
    4267:	7d 13                	jge    427c <blkcmp+0x30>
    4269:	0f be 13             	movsbl (%ebx),%edx
    426c:	0f be 01             	movsbl (%ecx),%eax
    426f:	29 c2                	sub    %eax,%edx
    4271:	89 d0                	mov    %edx,%eax
    4273:	75 07                	jne    427c <blkcmp+0x30>
    4275:	46                   	inc    %esi
    4276:	43                   	inc    %ebx
    4277:	41                   	inc    %ecx
    4278:	39 fe                	cmp    %edi,%esi
    427a:	7c ed                	jl     4269 <blkcmp+0x1d>
    427c:	5b                   	pop    %ebx
    427d:	5e                   	pop    %esi
    427e:	5f                   	pop    %edi
    427f:	5d                   	pop    %ebp
    4280:	c3                   	ret    
    4281:	90                   	nop    
    4282:	90                   	nop    
    4283:	90                   	nop    

00004284 <blkequ>:
    4284:	55                   	push   %ebp
    4285:	89 e5                	mov    %esp,%ebp
    4287:	56                   	push   %esi
    4288:	53                   	push   %ebx
    4289:	8b 75 08             	mov    0x8(%ebp),%esi
    428c:	8b 5d 0c             	mov    0xc(%ebp),%ebx
    428f:	8b 4d 10             	mov    0x10(%ebp),%ecx
    4292:	49                   	dec    %ecx
    4293:	78 14                	js     42a9 <blkequ+0x25>
    4295:	8a 13                	mov    (%ebx),%dl
    4297:	43                   	inc    %ebx
    4298:	8a 06                	mov    (%esi),%al
    429a:	46                   	inc    %esi
    429b:	38 d0                	cmp    %dl,%al
    429d:	74 07                	je     42a6 <blkequ+0x22>
    429f:	b8 00 00 00 00       	mov    $0x0,%eax
    42a4:	eb 08                	jmp    42ae <blkequ+0x2a>
    42a6:	49                   	dec    %ecx
    42a7:	79 ec                	jns    4295 <blkequ+0x11>
    42a9:	b8 01 00 00 00       	mov    $0x1,%eax
    42ae:	5b                   	pop    %ebx
    42af:	5e                   	pop    %esi
    42b0:	5d                   	pop    %ebp
    42b1:	c3                   	ret    
    42b2:	90                   	nop    
    42b3:	90                   	nop    

000042b4 <proc1_test1>:
    42b4:	55                   	push   %ebp
    42b5:	89 e5                	mov    %esp,%ebp
    42b7:	56                   	push   %esi
    42b8:	53                   	push   %ebx
    42b9:	83 ec 08             	sub    $0x8,%esp
    42bc:	6a 64                	push   $0x64
    42be:	6a 01                	push   $0x1
    42c0:	e8 ab 37 00 00       	call   7a70 <get_bs>
    42c5:	83 c4 0c             	add    $0xc,%esp
    42c8:	6a 64                	push   $0x64
    42ca:	6a 01                	push   $0x1
    42cc:	68 00 00 04 00       	push   $0x40000
    42d1:	e8 2a 47 00 00       	call   8a00 <xmmap>
    42d6:	83 c4 10             	add    $0x10,%esp
    42d9:	be 00 00 00 40       	mov    $0x40000000,%esi
    42de:	bb 00 00 00 00       	mov    $0x0,%ebx
    42e3:	83 f8 ff             	cmp    $0xffffffff,%eax
    42e6:	75 1b                	jne    4303 <proc1_test1+0x4f>
    42e8:	83 ec 0c             	sub    $0xc,%esp
    42eb:	68 5a a0 00 00       	push   $0xa05a
    42f0:	e8 73 17 00 00       	call   5a68 <kprintf>
    42f5:	c7 04 24 03 00 00 00 	movl   $0x3,(%esp)
    42fc:	e8 03 23 00 00       	call   6604 <sleep>
    4301:	eb 53                	jmp    4356 <proc1_test1+0xa2>
    4303:	89 da                	mov    %ebx,%edx
    4305:	c1 e2 0c             	shl    $0xc,%edx
    4308:	8d 43 41             	lea    0x41(%ebx),%eax
    430b:	88 04 32             	mov    %al,(%edx,%esi,1)
    430e:	43                   	inc    %ebx
    430f:	83 fb 19             	cmp    $0x19,%ebx
    4312:	7e ef                	jle    4303 <proc1_test1+0x4f>
    4314:	83 ec 0c             	sub    $0xc,%esp
    4317:	6a 06                	push   $0x6
    4319:	e8 e6 22 00 00       	call   6604 <sleep>
    431e:	bb 00 00 00 00       	mov    $0x0,%ebx
    4323:	83 c4 10             	add    $0x10,%esp
    4326:	83 ec 04             	sub    $0x4,%esp
    4329:	89 d8                	mov    %ebx,%eax
    432b:	c1 e0 0c             	shl    $0xc,%eax
    432e:	0f be 14 30          	movsbl (%eax,%esi,1),%edx
    4332:	52                   	push   %edx
    4333:	01 f0                	add    %esi,%eax
    4335:	50                   	push   %eax
    4336:	68 6d a0 00 00       	push   $0xa06d
    433b:	e8 28 17 00 00       	call   5a68 <kprintf>
    4340:	83 c4 10             	add    $0x10,%esp
    4343:	43                   	inc    %ebx
    4344:	83 fb 19             	cmp    $0x19,%ebx
    4347:	7e dd                	jle    4326 <proc1_test1+0x72>
    4349:	83 ec 0c             	sub    $0xc,%esp
    434c:	68 00 00 04 00       	push   $0x40000
    4351:	e8 8f 47 00 00       	call   8ae5 <xmunmap>
    4356:	8d 65 f8             	lea    0xfffffff8(%ebp),%esp
    4359:	5b                   	pop    %ebx
    435a:	5e                   	pop    %esi
    435b:	5d                   	pop    %ebp
    435c:	c3                   	ret    

0000435d <main>:
    435d:	55                   	push   %ebp
    435e:	89 e5                	mov    %esp,%ebp
    4360:	83 ec 08             	sub    $0x8,%esp
    4363:	83 e4 f0             	and    $0xfffffff0,%esp
    4366:	83 ec 1c             	sub    $0x1c,%esp
    4369:	68 79 a0 00 00       	push   $0xa079
    436e:	e8 f5 16 00 00       	call   5a68 <kprintf>
    4373:	c7 04 24 80 a0 00 00 	movl   $0xa080,(%esp)
    437a:	e8 e9 16 00 00       	call   5a68 <kprintf>
    437f:	83 c4 08             	add    $0x8,%esp
    4382:	6a 00                	push   $0x0
    4384:	6a 00                	push   $0x0
    4386:	68 93 a0 00 00       	push   $0xa093
    438b:	6a 14                	push   $0x14
    438d:	68 d0 07 00 00       	push   $0x7d0
    4392:	68 b4 42 00 00       	push   $0x42b4
    4397:	e8 d0 02 00 00       	call   466c <create>
    439c:	83 c4 14             	add    $0x14,%esp
    439f:	50                   	push   %eax
    43a0:	e8 ff 1d 00 00       	call   61a4 <resume>
    43a5:	c7 04 24 0a 00 00 00 	movl   $0xa,(%esp)
    43ac:	e8 53 22 00 00       	call   6604 <sleep>
    43b1:	c9                   	leave  
    43b2:	c3                   	ret    
    43b3:	90                   	nop    

000043b4 <stacktrace>:
    43b4:	55                   	push   %ebp
    43b5:	89 e5                	mov    %esp,%ebp
    43b7:	57                   	push   %edi
    43b8:	56                   	push   %esi
    43b9:	53                   	push   %ebx
    43ba:	83 ec 0c             	sub    $0xc,%esp
    43bd:	8b 55 08             	mov    0x8(%ebp),%edx
    43c0:	8d 04 52             	lea    (%edx,%edx,2),%eax
    43c3:	c1 e0 04             	shl    $0x4,%eax
    43c6:	01 d0                	add    %edx,%eax
    43c8:	8d 3c 85 00 c9 00 00 	lea    0xc900(,%eax,4),%edi
    43cf:	b8 ff ff ff ff       	mov    $0xffffffff,%eax
    43d4:	83 fa 31             	cmp    $0x31,%edx
    43d7:	0f 87 e4 00 00 00    	ja     44c1 <stacktrace+0x10d>
    43dd:	3b 15 e4 c8 00 00    	cmp    0xc8e4,%edx
    43e3:	75 1a                	jne    43ff <stacktrace+0x4b>
    43e5:	89 25 fc b9 00 00    	mov    %esp,0xb9fc
    43eb:	89 2d 00 ba 00 00    	mov    %ebp,0xba00
    43f1:	8b 1d fc b9 00 00    	mov    0xb9fc,%ebx
    43f7:	8b 35 00 ba 00 00    	mov    0xba00,%esi
    43fd:	eb 06                	jmp    4405 <stacktrace+0x51>
    43ff:	8b 5f 08             	mov    0x8(%edi),%ebx
    4402:	8d 73 08             	lea    0x8(%ebx),%esi
    4405:	ff 77 1c             	pushl  0x1c(%edi)
    4408:	56                   	push   %esi
    4409:	53                   	push   %ebx
    440a:	68 9f a0 00 00       	push   $0xa09f
    440f:	e8 54 16 00 00       	call   5a68 <kprintf>
    4414:	83 c4 10             	add    $0x10,%esp
    4417:	39 5f 1c             	cmp    %ebx,0x1c(%edi)
    441a:	76 5c                	jbe    4478 <stacktrace+0xc4>
    441c:	39 f3                	cmp    %esi,%ebx
    441e:	73 19                	jae    4439 <stacktrace+0x85>
    4420:	ff 33                	pushl  (%ebx)
    4422:	ff 33                	pushl  (%ebx)
    4424:	53                   	push   %ebx
    4425:	68 bb a0 00 00       	push   $0xa0bb
    442a:	e8 39 16 00 00       	call   5a68 <kprintf>
    442f:	83 c4 10             	add    $0x10,%esp
    4432:	83 c3 04             	add    $0x4,%ebx
    4435:	39 f3                	cmp    %esi,%ebx
    4437:	72 e7                	jb     4420 <stacktrace+0x6c>
    4439:	81 3b a9 aa 00 00    	cmpl   $0xaaa9,(%ebx)
    443f:	74 37                	je     4478 <stacktrace+0xc4>
    4441:	ff 33                	pushl  (%ebx)
    4443:	ff 33                	pushl  (%ebx)
    4445:	53                   	push   %ebx
    4446:	68 d2 a0 00 00       	push   $0xa0d2
    444b:	e8 18 16 00 00       	call   5a68 <kprintf>
    4450:	8b 03                	mov    (%ebx),%eax
    4452:	83 c3 04             	add    $0x4,%ebx
    4455:	89 c6                	mov    %eax,%esi
    4457:	83 c4 10             	add    $0x10,%esp
    445a:	39 d8                	cmp    %ebx,%eax
    445c:	76 4f                	jbe    44ad <stacktrace+0xf9>
    445e:	83 ec 08             	sub    $0x8,%esp
    4461:	ff 33                	pushl  (%ebx)
    4463:	68 ea a0 00 00       	push   $0xa0ea
    4468:	e8 fb 15 00 00       	call   5a68 <kprintf>
    446d:	83 c3 04             	add    $0x4,%ebx
    4470:	83 c4 10             	add    $0x10,%esp
    4473:	39 5f 1c             	cmp    %ebx,0x1c(%edi)
    4476:	77 a4                	ja     441c <stacktrace+0x68>
    4478:	83 ec 04             	sub    $0x4,%esp
    447b:	ff 33                	pushl  (%ebx)
    447d:	68 a9 aa 00 00       	push   $0xaaa9
    4482:	68 f5 a0 00 00       	push   $0xa0f5
    4487:	e8 dc 15 00 00       	call   5a68 <kprintf>
    448c:	83 c4 10             	add    $0x10,%esp
    448f:	b8 01 00 00 00       	mov    $0x1,%eax
    4494:	39 5f 1c             	cmp    %ebx,0x1c(%edi)
    4497:	74 28                	je     44c1 <stacktrace+0x10d>
    4499:	83 ec 0c             	sub    $0xc,%esp
    449c:	68 0f a1 00 00       	push   $0xa10f
    44a1:	e8 c2 15 00 00       	call   5a68 <kprintf>
    44a6:	b8 ff ff ff ff       	mov    $0xffffffff,%eax
    44ab:	eb 14                	jmp    44c1 <stacktrace+0x10d>
    44ad:	83 ec 04             	sub    $0x4,%esp
    44b0:	53                   	push   %ebx
    44b1:	50                   	push   %eax
    44b2:	68 28 a1 00 00       	push   $0xa128
    44b7:	e8 ac 15 00 00       	call   5a68 <kprintf>
    44bc:	b8 ff ff ff ff       	mov    $0xffffffff,%eax
    44c1:	8d 65 f4             	lea    0xfffffff4(%ebp),%esp
    44c4:	5b                   	pop    %ebx
    44c5:	5e                   	pop    %esi
    44c6:	5f                   	pop    %edi
    44c7:	5d                   	pop    %ebp
    44c8:	c3                   	ret    
    44c9:	90                   	nop    
    44ca:	90                   	nop    
    44cb:	90                   	nop    

000044cc <chprio>:
    44cc:	55                   	push   %ebp
    44cd:	89 e5                	mov    %esp,%ebp
    44cf:	57                   	push   %edi
    44d0:	56                   	push   %esi
    44d1:	53                   	push   %ebx
    44d2:	83 ec 18             	sub    $0x18,%esp
    44d5:	8b 5d 08             	mov    0x8(%ebp),%ebx
    44d8:	8b 75 0c             	mov    0xc(%ebp),%esi
    44db:	8d 45 f2             	lea    0xfffffff2(%ebp),%eax
    44de:	50                   	push   %eax
    44df:	e8 d8 c2 ff ff       	call   7bc <disable>
    44e4:	8d 43 ff             	lea    0xffffffff(%ebx),%eax
    44e7:	83 c4 10             	add    $0x10,%esp
    44ea:	83 f8 30             	cmp    $0x30,%eax
    44ed:	0f 97 c2             	seta   %dl
    44f0:	85 f6                	test   %esi,%esi
    44f2:	0f 9e c0             	setle  %al
    44f5:	09 d0                	or     %edx,%eax
    44f7:	a8 01                	test   $0x1,%al
    44f9:	75 1a                	jne    4515 <chprio+0x49>
    44fb:	8d 04 5b             	lea    (%ebx,%ebx,2),%eax
    44fe:	c1 e0 04             	shl    $0x4,%eax
    4501:	01 d8                	add    %ebx,%eax
    4503:	c1 e0 02             	shl    $0x2,%eax
    4506:	8d 90 00 c9 00 00    	lea    0xc900(%eax),%edx
    450c:	80 b8 00 c9 00 00 02 	cmpb   $0x2,0xc900(%eax)
    4513:	75 13                	jne    4528 <chprio+0x5c>
    4515:	83 ec 0c             	sub    $0xc,%esp
    4518:	8d 45 f2             	lea    0xfffffff2(%ebp),%eax
    451b:	50                   	push   %eax
    451c:	e8 c3 c2 ff ff       	call   7e4 <restore>
    4521:	b8 ff ff ff ff       	mov    $0xffffffff,%eax
    4526:	eb 41                	jmp    4569 <chprio+0x9d>
    4528:	8b 7a 04             	mov    0x4(%edx),%edi
    452b:	89 72 04             	mov    %esi,0x4(%edx)
    452e:	0f be 02             	movsbl (%edx),%eax
    4531:	83 f8 01             	cmp    $0x1,%eax
    4534:	74 20                	je     4556 <chprio+0x8a>
    4536:	83 f8 03             	cmp    $0x3,%eax
    4539:	75 20                	jne    455b <chprio+0x8f>
    453b:	83 ec 04             	sub    $0x4,%esp
    453e:	56                   	push   %esi
    453f:	ff 35 64 7f 01 00    	pushl  0x17f64
    4545:	53                   	push   %ebx
    4546:	e8 e7 18 00 00       	call   5e32 <dequeue>
    454b:	89 04 24             	mov    %eax,(%esp)
    454e:	e8 c1 12 00 00       	call   5814 <insert>
    4553:	83 c4 10             	add    $0x10,%esp
    4556:	e8 0d 1b 00 00       	call   6068 <resched>
    455b:	83 ec 0c             	sub    $0xc,%esp
    455e:	8d 45 f2             	lea    0xfffffff2(%ebp),%eax
    4561:	50                   	push   %eax
    4562:	e8 7d c2 ff ff       	call   7e4 <restore>
    4567:	89 f8                	mov    %edi,%eax
    4569:	8d 65 f4             	lea    0xfffffff4(%ebp),%esp
    456c:	5b                   	pop    %ebx
    456d:	5e                   	pop    %esi
    456e:	5f                   	pop    %edi
    456f:	5d                   	pop    %ebp
    4570:	c3                   	ret    
    4571:	90                   	nop    
    4572:	90                   	nop    
    4573:	90                   	nop    

00004574 <clkinit>:
    4574:	55                   	push   %ebp
    4575:	89 e5                	mov    %esp,%ebp
    4577:	83 ec 10             	sub    $0x10,%esp
    457a:	68 12 08 00 00       	push   $0x812
    457f:	6a 20                	push   $0x20
    4581:	e8 5c 03 00 00       	call   48e2 <set_evec>
    4586:	c7 05 78 8f 01 00 01 	movl   $0x1,0x18f78
    458d:	00 00 00 
    4590:	e8 eb 16 00 00       	call   5c80 <newqueue>
    4595:	a3 50 8f 01 00       	mov    %eax,0x18f50
    459a:	c7 05 60 8f 01 00 0a 	movl   $0xa,0x18f60
    45a1:	00 00 00 
    45a4:	c7 04 24 01 00 00 00 	movl   $0x1,(%esp)
    45ab:	e8 94 1c 00 00       	call   6244 <screate>
    45b0:	a3 6c 8f 01 00       	mov    %eax,0x18f6c
    45b5:	83 c4 08             	add    $0x8,%esp
    45b8:	6a 34                	push   $0x34
    45ba:	6a 43                	push   $0x43
    45bc:	e8 e4 ba ff ff       	call   a5 <outb>
    45c1:	83 c4 08             	add    $0x8,%esp
    45c4:	6a a6                	push   $0xffffffa6
    45c6:	6a 40                	push   $0x40
    45c8:	e8 d8 ba ff ff       	call   a5 <outb>
    45cd:	83 c4 08             	add    $0x8,%esp
    45d0:	6a 04                	push   $0x4
    45d2:	6a 40                	push   $0x40
    45d4:	e8 cc ba ff ff       	call   a5 <outb>
    45d9:	83 c4 08             	add    $0x8,%esp
    45dc:	6a 04                	push   $0x4
    45de:	6a 40                	push   $0x40
    45e0:	e8 c0 ba ff ff       	call   a5 <outb>
    45e5:	c9                   	leave  
    45e6:	c3                   	ret    

000045e7 <clktest>:
    45e7:	55                   	push   %ebp
    45e8:	89 e5                	mov    %esp,%ebp
    45ea:	83 ec 10             	sub    $0x10,%esp
    45ed:	ff 35 64 8f 01 00    	pushl  0x18f64
    45f3:	68 4b a1 00 00       	push   $0xa14b
    45f8:	e8 6b 14 00 00       	call   5a68 <kprintf>
    45fd:	83 c4 08             	add    $0x8,%esp
    4600:	ff 35 04 ba 00 00    	pushl  0xba04
    4606:	68 64 a1 00 00       	push   $0xa164
    460b:	e8 58 14 00 00       	call   5a68 <kprintf>
    4610:	b8 01 00 00 00       	mov    $0x1,%eax
    4615:	c9                   	leave  
    4616:	c3                   	ret    
    4617:	90                   	nop    

00004618 <close>:
    4618:	55                   	push   %ebp
    4619:	89 e5                	mov    %esp,%ebp
    461b:	83 ec 08             	sub    $0x8,%esp
    461e:	8b 55 08             	mov    0x8(%ebp),%edx
    4621:	b8 ff ff ff ff       	mov    $0xffffffff,%eax
    4626:	83 fa 05             	cmp    $0x5,%edx
    4629:	77 11                	ja     463c <close+0x24>
    462b:	8d 04 d2             	lea    (%edx,%edx,8),%eax
    462e:	8d 04 c5 e0 b2 00 00 	lea    0xb2e0(,%eax,8),%eax
    4635:	83 ec 0c             	sub    $0xc,%esp
    4638:	50                   	push   %eax
    4639:	ff 50 10             	call   *0x10(%eax)
    463c:	c9                   	leave  
    463d:	c3                   	ret    
    463e:	90                   	nop    
    463f:	90                   	nop    

00004640 <control>:
    4640:	55                   	push   %ebp
    4641:	89 e5                	mov    %esp,%ebp
    4643:	83 ec 08             	sub    $0x8,%esp
    4646:	8b 55 08             	mov    0x8(%ebp),%edx
    4649:	b8 ff ff ff ff       	mov    $0xffffffff,%eax
    464e:	83 fa 05             	cmp    $0x5,%edx
    4651:	77 17                	ja     466a <control+0x2a>
    4653:	8d 04 d2             	lea    (%edx,%edx,8),%eax
    4656:	8d 04 c5 e0 b2 00 00 	lea    0xb2e0(,%eax,8),%eax
    465d:	ff 75 14             	pushl  0x14(%ebp)
    4660:	ff 75 10             	pushl  0x10(%ebp)
    4663:	ff 75 0c             	pushl  0xc(%ebp)
    4666:	50                   	push   %eax
    4667:	ff 50 28             	call   *0x28(%eax)
    466a:	c9                   	leave  
    466b:	c3                   	ret    

0000466c <create>:
    466c:	55                   	push   %ebp
    466d:	89 e5                	mov    %esp,%ebp
    466f:	57                   	push   %edi
    4670:	56                   	push   %esi
    4671:	53                   	push   %ebx
    4672:	83 ec 18             	sub    $0x18,%esp
    4675:	8b 7d 0c             	mov    0xc(%ebp),%edi
    4678:	8d 45 f2             	lea    0xfffffff2(%ebp),%eax
    467b:	50                   	push   %eax
    467c:	e8 3b c1 ff ff       	call   7bc <disable>
    4681:	83 c4 10             	add    $0x10,%esp
    4684:	81 ff ff 0f 00 00    	cmp    $0xfff,%edi
    468a:	7f 05                	jg     4691 <create+0x25>
    468c:	bf 00 10 00 00       	mov    $0x1000,%edi
    4691:	83 c7 03             	add    $0x3,%edi
    4694:	83 e7 fc             	and    $0xfffffffc,%edi
    4697:	83 ec 0c             	sub    $0xc,%esp
    469a:	57                   	push   %edi
    469b:	e8 44 09 00 00       	call   4fe4 <getstk>
    46a0:	89 c3                	mov    %eax,%ebx
    46a2:	83 c4 10             	add    $0x10,%esp
    46a5:	83 f8 ff             	cmp    $0xffffffff,%eax
    46a8:	74 13                	je     46bd <create+0x51>
    46aa:	e8 a9 01 00 00       	call   4858 <newpid>
    46af:	89 45 e8             	mov    %eax,0xffffffe8(%ebp)
    46b2:	83 f8 ff             	cmp    $0xffffffff,%eax
    46b5:	74 06                	je     46bd <create+0x51>
    46b7:	83 7d 10 00          	cmpl   $0x0,0x10(%ebp)
    46bb:	7f 16                	jg     46d3 <create+0x67>
    46bd:	83 ec 0c             	sub    $0xc,%esp
    46c0:	8d 45 f2             	lea    0xfffffff2(%ebp),%eax
    46c3:	50                   	push   %eax
    46c4:	e8 1b c1 ff ff       	call   7e4 <restore>
    46c9:	ba ff ff ff ff       	mov    $0xffffffff,%edx
    46ce:	e9 7b 01 00 00       	jmp    484e <create+0x1e2>
    46d3:	ff 05 e0 c8 00 00    	incl   0xc8e0
    46d9:	8b 55 e8             	mov    0xffffffe8(%ebp),%edx
    46dc:	8d 04 52             	lea    (%edx,%edx,2),%eax
    46df:	c1 e0 04             	shl    $0x4,%eax
    46e2:	01 d0                	add    %edx,%eax
    46e4:	8d 34 85 00 c9 00 00 	lea    0xc900(,%eax,4),%esi
    46eb:	c7 46 4c 00 00 00 00 	movl   $0x0,0x4c(%esi)
    46f2:	c7 46 50 00 00 00 00 	movl   $0x0,0x50(%esi)
    46f9:	c7 46 54 00 00 00 00 	movl   $0x0,0x54(%esi)
    4700:	ba 03 00 00 00       	mov    $0x3,%edx
    4705:	c7 44 96 4c ff ff ff 	movl   $0xffffffff,0x4c(%esi,%edx,4)
    470c:	ff 
    470d:	42                   	inc    %edx
    470e:	83 fa 13             	cmp    $0x13,%edx
    4711:	7e f2                	jle    4705 <create+0x99>
    4713:	c6 06 06             	movb   $0x6,(%esi)
    4716:	ba 00 00 00 00       	mov    $0x0,%edx
    471b:	8b 4d 14             	mov    0x14(%ebp),%ecx
    471e:	8a 01                	mov    (%ecx),%al
    4720:	88 46 28             	mov    %al,0x28(%esi)
    4723:	84 c0                	test   %al,%al
    4725:	74 14                	je     473b <create+0xcf>
    4727:	42                   	inc    %edx
    4728:	83 fa 0f             	cmp    $0xf,%edx
    472b:	7f 0e                	jg     473b <create+0xcf>
    472d:	8b 4d 14             	mov    0x14(%ebp),%ecx
    4730:	8a 04 11             	mov    (%ecx,%edx,1),%al
    4733:	88 44 32 28          	mov    %al,0x28(%edx,%esi,1)
    4737:	84 c0                	test   %al,%al
    4739:	75 ec                	jne    4727 <create+0xbb>
    473b:	8b 45 10             	mov    0x10(%ebp),%eax
    473e:	89 46 04             	mov    %eax,0x4(%esi)
    4741:	89 5e 1c             	mov    %ebx,0x1c(%esi)
    4744:	89 7e 20             	mov    %edi,0x20(%esi)
    4747:	c7 46 10 00 00 00 00 	movl   $0x0,0x10(%esi)
    474e:	c6 46 18 00          	movb   $0x0,0x18(%esi)
    4752:	89 d8                	mov    %ebx,%eax
    4754:	29 f8                	sub    %edi,%eax
    4756:	83 c0 04             	add    $0x4,%eax
    4759:	89 46 24             	mov    %eax,0x24(%esi)
    475c:	66 c7 46 0c 00 00    	movw   $0x0,0xc(%esi)
    4762:	c7 46 40 ff ff ff ff 	movl   $0xffffffff,0x40(%esi)
    4769:	c7 86 9c 00 00 00 ff 	movl   $0xffffffff,0x9c(%esi)
    4770:	ff ff ff 
    4773:	66 c7 46 48 ff ff    	movw   $0xffff,0x48(%esi)
    4779:	66 c7 46 46 ff ff    	movw   $0xffff,0x46(%esi)
    477f:	83 ec 0c             	sub    $0xc,%esp
    4782:	ff 75 e8             	pushl  0xffffffe8(%ebp)
    4785:	e8 ac 39 00 00       	call   8136 <init_pd>
    478a:	83 c4 10             	add    $0x10,%esp
    478d:	ba ff ff ff ff       	mov    $0xffffffff,%edx
    4792:	85 c0                	test   %eax,%eax
    4794:	0f 84 b4 00 00 00    	je     484e <create+0x1e2>
    479a:	c1 65 ec 0c          	shll   $0xc,0xffffffec(%ebp)
    479e:	8b 55 ec             	mov    0xffffffec(%ebp),%edx
    47a1:	89 96 b0 00 00 00    	mov    %edx,0xb0(%esi)
    47a7:	c7 03 a9 aa 00 00    	movl   $0xaaa9,(%ebx)
    47ad:	89 d9                	mov    %ebx,%ecx
    47af:	8b 45 18             	mov    0x18(%ebp),%eax
    47b2:	89 46 38             	mov    %eax,0x38(%esi)
    47b5:	8d 54 85 18          	lea    0x18(%ebp,%eax,4),%edx
    47b9:	85 c0                	test   %eax,%eax
    47bb:	7e 13                	jle    47d0 <create+0x164>
    47bd:	83 eb 04             	sub    $0x4,%ebx
    47c0:	8b 02                	mov    (%edx),%eax
    47c2:	83 ea 04             	sub    $0x4,%edx
    47c5:	89 03                	mov    %eax,(%ebx)
    47c7:	ff 4d 18             	decl   0x18(%ebp)
    47ca:	83 7d 18 00          	cmpl   $0x0,0x18(%ebp)
    47ce:	7f ed                	jg     47bd <create+0x151>
    47d0:	83 eb 04             	sub    $0x4,%ebx
    47d3:	c7 03 7c 6a 00 00    	movl   $0x6a7c,(%ebx)
    47d9:	83 eb 04             	sub    $0x4,%ebx
    47dc:	8b 55 08             	mov    0x8(%ebp),%edx
    47df:	89 56 3c             	mov    %edx,0x3c(%esi)
    47e2:	89 13                	mov    %edx,(%ebx)
    47e4:	83 eb 04             	sub    $0x4,%ebx
    47e7:	89 0b                	mov    %ecx,(%ebx)
    47e9:	89 d9                	mov    %ebx,%ecx
    47eb:	83 eb 04             	sub    $0x4,%ebx
    47ee:	c7 03 00 00 00 00    	movl   $0x0,(%ebx)
    47f4:	83 eb 04             	sub    $0x4,%ebx
    47f7:	c7 03 00 00 00 00    	movl   $0x0,(%ebx)
    47fd:	83 eb 04             	sub    $0x4,%ebx
    4800:	c7 03 00 00 00 00    	movl   $0x0,(%ebx)
    4806:	83 eb 04             	sub    $0x4,%ebx
    4809:	c7 03 00 00 00 00    	movl   $0x0,(%ebx)
    480f:	83 eb 04             	sub    $0x4,%ebx
    4812:	c7 03 00 00 00 00    	movl   $0x0,(%ebx)
    4818:	83 eb 04             	sub    $0x4,%ebx
    481b:	c7 03 00 00 00 00    	movl   $0x0,(%ebx)
    4821:	89 d8                	mov    %ebx,%eax
    4823:	83 eb 04             	sub    $0x4,%ebx
    4826:	89 0b                	mov    %ecx,(%ebx)
    4828:	83 eb 04             	sub    $0x4,%ebx
    482b:	c7 03 00 00 00 00    	movl   $0x0,(%ebx)
    4831:	83 eb 04             	sub    $0x4,%ebx
    4834:	c7 03 00 00 00 00    	movl   $0x0,(%ebx)
    483a:	89 5e 08             	mov    %ebx,0x8(%esi)
    483d:	89 18                	mov    %ebx,(%eax)
    483f:	83 ec 0c             	sub    $0xc,%esp
    4842:	8d 45 f2             	lea    0xfffffff2(%ebp),%eax
    4845:	50                   	push   %eax
    4846:	e8 99 bf ff ff       	call   7e4 <restore>
    484b:	8b 55 e8             	mov    0xffffffe8(%ebp),%edx
    484e:	89 d0                	mov    %edx,%eax
    4850:	8d 65 f4             	lea    0xfffffff4(%ebp),%esp
    4853:	5b                   	pop    %ebx
    4854:	5e                   	pop    %esi
    4855:	5f                   	pop    %edi
    4856:	5d                   	pop    %ebp
    4857:	c3                   	ret    

00004858 <newpid>:
    4858:	55                   	push   %ebp
    4859:	89 e5                	mov    %esp,%ebp
    485b:	b9 00 00 00 00       	mov    $0x0,%ecx
    4860:	8b 15 c0 75 01 00    	mov    0x175c0,%edx
    4866:	8d 42 ff             	lea    0xffffffff(%edx),%eax
    4869:	a3 c0 75 01 00       	mov    %eax,0x175c0
    486e:	85 d2                	test   %edx,%edx
    4870:	7f 0a                	jg     487c <newpid+0x24>
    4872:	c7 05 c0 75 01 00 31 	movl   $0x31,0x175c0
    4879:	00 00 00 
    487c:	8d 04 52             	lea    (%edx,%edx,2),%eax
    487f:	c1 e0 04             	shl    $0x4,%eax
    4882:	01 d0                	add    %edx,%eax
    4884:	80 3c 85 00 c9 00 00 	cmpb   $0x2,0xc900(,%eax,4)
    488b:	02 
    488c:	75 04                	jne    4892 <newpid+0x3a>
    488e:	89 d0                	mov    %edx,%eax
    4890:	eb 0b                	jmp    489d <newpid+0x45>
    4892:	41                   	inc    %ecx
    4893:	83 f9 31             	cmp    $0x31,%ecx
    4896:	7e c8                	jle    4860 <newpid+0x8>
    4898:	b8 ff ff ff ff       	mov    $0xffffffff,%eax
    489d:	5d                   	pop    %ebp
    489e:	c3                   	ret    
    489f:	90                   	nop    

000048a0 <initevec>:
    48a0:	55                   	push   %ebp
    48a1:	89 e5                	mov    %esp,%ebp
    48a3:	53                   	push   %ebx
    48a4:	83 ec 04             	sub    $0x4,%esp
    48a7:	bb 00 00 00 00       	mov    $0x0,%ebx
    48ac:	83 ec 08             	sub    $0x8,%esp
    48af:	ff 34 9d de 06 00 00 	pushl  0x6de(,%ebx,4)
    48b6:	53                   	push   %ebx
    48b7:	e8 26 00 00 00       	call   48e2 <set_evec>
    48bc:	83 c4 10             	add    $0x10,%esp
    48bf:	43                   	inc    %ebx
    48c0:	83 fb 2f             	cmp    $0x2f,%ebx
    48c3:	7e e7                	jle    48ac <initevec+0xc>
    48c5:	66 c7 05 7c 8f 01 00 	movw   $0xfffb,0x18f7c
    48cc:	fb ff 
    48ce:	e8 63 b8 ff ff       	call   136 <lidt>
    48d3:	e8 55 0d 00 00       	call   562d <init8259>
    48d8:	b8 01 00 00 00       	mov    $0x1,%eax
    48dd:	8b 5d fc             	mov    0xfffffffc(%ebp),%ebx
    48e0:	c9                   	leave  
    48e1:	c3                   	ret    

000048e2 <set_evec>:
    48e2:	55                   	push   %ebp
    48e3:	89 e5                	mov    %esp,%ebp
    48e5:	53                   	push   %ebx
    48e6:	8b 5d 08             	mov    0x8(%ebp),%ebx
    48e9:	8b 4d 0c             	mov    0xc(%ebp),%ecx
    48ec:	8d 14 dd 00 00 00 00 	lea    0x0(,%ebx,8),%edx
    48f3:	8d 82 46 b0 00 00    	lea    0xb046(%edx),%eax
    48f9:	66 89 8a 46 b0 00 00 	mov    %cx,0xb046(%edx)
    4900:	66 c7 40 02 08 00    	movw   $0x8,0x2(%eax)
    4906:	80 60 04 1f          	andb   $0x1f,0x4(%eax)
    490a:	c6 40 05 8f          	movb   $0x8f,0x5(%eax)
    490e:	c1 e9 10             	shr    $0x10,%ecx
    4911:	66 89 48 06          	mov    %cx,0x6(%eax)
    4915:	8d 4b e0             	lea    0xffffffe0(%ebx),%ecx
    4918:	83 f9 0f             	cmp    $0xf,%ecx
    491b:	77 0e                	ja     492b <set_evec+0x49>
    491d:	b8 fe ff ff ff       	mov    $0xfffffffe,%eax
    4922:	d3 c0                	rol    %cl,%eax
    4924:	66 21 05 7c 8f 01 00 	and    %ax,0x18f7c
    492b:	b8 01 00 00 00       	mov    $0x1,%eax
    4930:	5b                   	pop    %ebx
    4931:	5d                   	pop    %ebp
    4932:	c3                   	ret    

00004933 <trap>:
    4933:	55                   	push   %ebp
    4934:	89 e5                	mov    %esp,%ebp
    4936:	56                   	push   %esi
    4937:	53                   	push   %ebx
    4938:	83 ec 1c             	sub    $0x1c,%esp
    493b:	8b 75 08             	mov    0x8(%ebp),%esi
    493e:	8d 45 f6             	lea    0xfffffff6(%ebp),%eax
    4941:	50                   	push   %eax
    4942:	e8 75 be ff ff       	call   7bc <disable>
    4947:	89 2d 08 ba 00 00    	mov    %ebp,0xba08
    494d:	8b 1d 08 ba 00 00    	mov    0xba08,%ebx
    4953:	83 c3 3c             	add    $0x3c,%ebx
    4956:	c7 04 24 b2 a2 00 00 	movl   $0xa2b2,(%esp)
    495d:	e8 06 11 00 00       	call   5a68 <kprintf>
    4962:	83 c4 10             	add    $0x10,%esp
    4965:	83 fe 0f             	cmp    $0xf,%esi
    4968:	7f 31                	jg     499b <trap+0x68>
    496a:	83 ec 0c             	sub    $0xc,%esp
    496d:	8b 15 e4 c8 00 00    	mov    0xc8e4,%edx
    4973:	8d 04 52             	lea    (%edx,%edx,2),%eax
    4976:	c1 e0 04             	shl    $0x4,%eax
    4979:	01 d0                	add    %edx,%eax
    497b:	8d 04 85 28 c9 00 00 	lea    0xc928(,%eax,4),%eax
    4982:	50                   	push   %eax
    4983:	52                   	push   %edx
    4984:	ff 34 b5 a0 b4 00 00 	pushl  0xb4a0(,%esi,4)
    498b:	56                   	push   %esi
    498c:	68 a4 a3 00 00       	push   $0xa3a4
    4991:	e8 d2 10 00 00       	call   5a68 <kprintf>
    4996:	83 c4 20             	add    $0x20,%esp
    4999:	eb 25                	jmp    49c0 <trap+0x8d>
    499b:	8b 15 e4 c8 00 00    	mov    0xc8e4,%edx
    49a1:	8d 04 52             	lea    (%edx,%edx,2),%eax
    49a4:	c1 e0 04             	shl    $0x4,%eax
    49a7:	01 d0                	add    %edx,%eax
    49a9:	8d 04 85 28 c9 00 00 	lea    0xc928(,%eax,4),%eax
    49b0:	50                   	push   %eax
    49b1:	52                   	push   %edx
    49b2:	56                   	push   %esi
    49b3:	68 be a2 00 00       	push   $0xa2be
    49b8:	e8 ab 10 00 00       	call   5a68 <kprintf>
    49bd:	83 c4 10             	add    $0x10,%esp
    49c0:	83 ec 08             	sub    $0x8,%esp
    49c3:	ff 33                	pushl  (%ebx)
    49c5:	83 eb 04             	sub    $0x4,%ebx
    49c8:	68 dc a2 00 00       	push   $0xa2dc
    49cd:	e8 96 10 00 00       	call   5a68 <kprintf>
    49d2:	83 eb 04             	sub    $0x4,%ebx
    49d5:	83 c4 08             	add    $0x8,%esp
    49d8:	ff 33                	pushl  (%ebx)
    49da:	68 e7 a2 00 00       	push   $0xa2e7
    49df:	e8 84 10 00 00       	call   5a68 <kprintf>
    49e4:	83 eb 04             	sub    $0x4,%ebx
    49e7:	83 c4 10             	add    $0x10,%esp
    49ea:	83 fe 08             	cmp    $0x8,%esi
    49ed:	0f 94 c2             	sete   %dl
    49f0:	8d 46 f6             	lea    0xfffffff6(%esi),%eax
    49f3:	83 f8 04             	cmp    $0x4,%eax
    49f6:	0f 96 c0             	setbe  %al
    49f9:	09 d0                	or     %edx,%eax
    49fb:	a8 01                	test   $0x1,%al
    49fd:	74 17                	je     4a16 <trap+0xe3>
    49ff:	83 ec 04             	sub    $0x4,%esp
    4a02:	ff 33                	pushl  (%ebx)
    4a04:	ff 33                	pushl  (%ebx)
    4a06:	68 ef a2 00 00       	push   $0xa2ef
    4a0b:	e8 58 10 00 00       	call   5a68 <kprintf>
    4a10:	83 eb 04             	sub    $0x4,%ebx
    4a13:	83 c4 10             	add    $0x10,%esp
    4a16:	83 eb 04             	sub    $0x4,%ebx
    4a19:	83 ec 0c             	sub    $0xc,%esp
    4a1c:	68 05 a3 00 00       	push   $0xa305
    4a21:	e8 42 10 00 00       	call   5a68 <kprintf>
    4a26:	83 c4 0c             	add    $0xc,%esp
    4a29:	ff 33                	pushl  (%ebx)
    4a2b:	ff 33                	pushl  (%ebx)
    4a2d:	68 15 a3 00 00       	push   $0xa315
    4a32:	e8 31 10 00 00       	call   5a68 <kprintf>
    4a37:	83 eb 04             	sub    $0x4,%ebx
    4a3a:	83 c4 0c             	add    $0xc,%esp
    4a3d:	ff 33                	pushl  (%ebx)
    4a3f:	ff 33                	pushl  (%ebx)
    4a41:	68 24 a3 00 00       	push   $0xa324
    4a46:	e8 1d 10 00 00       	call   5a68 <kprintf>
    4a4b:	83 eb 04             	sub    $0x4,%ebx
    4a4e:	83 c4 0c             	add    $0xc,%esp
    4a51:	ff 33                	pushl  (%ebx)
    4a53:	ff 33                	pushl  (%ebx)
    4a55:	68 33 a3 00 00       	push   $0xa333
    4a5a:	e8 09 10 00 00       	call   5a68 <kprintf>
    4a5f:	83 eb 04             	sub    $0x4,%ebx
    4a62:	83 c4 0c             	add    $0xc,%esp
    4a65:	ff 33                	pushl  (%ebx)
    4a67:	ff 33                	pushl  (%ebx)
    4a69:	68 42 a3 00 00       	push   $0xa342
    4a6e:	e8 f5 0f 00 00       	call   5a68 <kprintf>
    4a73:	83 eb 04             	sub    $0x4,%ebx
    4a76:	83 c4 0c             	add    $0xc,%esp
    4a79:	ff 33                	pushl  (%ebx)
    4a7b:	ff 33                	pushl  (%ebx)
    4a7d:	68 51 a3 00 00       	push   $0xa351
    4a82:	e8 e1 0f 00 00       	call   5a68 <kprintf>
    4a87:	83 eb 04             	sub    $0x4,%ebx
    4a8a:	83 c4 0c             	add    $0xc,%esp
    4a8d:	ff 33                	pushl  (%ebx)
    4a8f:	ff 33                	pushl  (%ebx)
    4a91:	68 60 a3 00 00       	push   $0xa360
    4a96:	e8 cd 0f 00 00       	call   5a68 <kprintf>
    4a9b:	89 1d 08 ba 00 00    	mov    %ebx,0xba08
    4aa1:	83 eb 04             	sub    $0x4,%ebx
    4aa4:	83 c4 0c             	add    $0xc,%esp
    4aa7:	ff 33                	pushl  (%ebx)
    4aa9:	ff 33                	pushl  (%ebx)
    4aab:	68 6f a3 00 00       	push   $0xa36f
    4ab0:	e8 b3 0f 00 00       	call   5a68 <kprintf>
    4ab5:	83 eb 04             	sub    $0x4,%ebx
    4ab8:	83 c4 0c             	add    $0xc,%esp
    4abb:	ff 33                	pushl  (%ebx)
    4abd:	ff 33                	pushl  (%ebx)
    4abf:	68 7e a3 00 00       	push   $0xa37e
    4ac4:	e8 9f 0f 00 00       	call   5a68 <kprintf>
    4ac9:	83 c4 04             	add    $0x4,%esp
    4acc:	ff 35 e4 c8 00 00    	pushl  0xc8e4
    4ad2:	e8 dd f8 ff ff       	call   43b4 <stacktrace>
    4ad7:	c7 04 24 8d a3 00 00 	movl   $0xa38d,(%esp)
    4ade:	e8 85 0f 00 00       	call   5a68 <kprintf>
    4ae3:	83 c4 10             	add    $0x10,%esp
    4ae6:	83 ec 0c             	sub    $0xc,%esp
    4ae9:	a1 68 7f 01 00       	mov    0x17f68,%eax
    4aee:	8d 04 c0             	lea    (%eax,%eax,8),%eax
    4af1:	66 8b 04 c5 0c b3 00 	mov    0xb30c(,%eax,8),%ax
    4af8:	00 
    4af9:	25 ff ff 00 00       	and    $0xffff,%eax
    4afe:	50                   	push   %eax
    4aff:	e8 3c c6 ff ff       	call   1140 <monitor>
    4b04:	83 c4 10             	add    $0x10,%esp
    4b07:	eb dd                	jmp    4ae6 <trap+0x1b3>
    4b09:	90                   	nop    
    4b0a:	90                   	nop    
    4b0b:	90                   	nop    

00004b0c <freebuf>:
    4b0c:	55                   	push   %ebp
    4b0d:	89 e5                	mov    %esp,%ebp
    4b0f:	56                   	push   %esi
    4b10:	53                   	push   %ebx
    4b11:	83 ec 10             	sub    $0x10,%esp
    4b14:	8b 75 08             	mov    0x8(%ebp),%esi
    4b17:	83 3d 90 91 01 00 00 	cmpl   $0x0,0x19190
    4b1e:	78 1a                	js     4b3a <freebuf+0x2e>
    4b20:	a1 90 91 01 00       	mov    0x19190,%eax
    4b25:	3b 05 f0 8f 01 00    	cmp    0x18ff0,%eax
    4b2b:	7d 0d                	jge    4b3a <freebuf+0x2e>
    4b2d:	81 3c 85 a0 8f 01 00 	cmpl   $0x19190,0x18fa0(,%eax,4)
    4b34:	90 91 01 00 
    4b38:	74 07                	je     4b41 <freebuf+0x35>
    4b3a:	b8 ff ff ff ff       	mov    $0xffffffff,%eax
    4b3f:	eb 56                	jmp    4b97 <freebuf+0x8b>
    4b41:	83 ee 04             	sub    $0x4,%esi
    4b44:	8b 1e                	mov    (%esi),%ebx
    4b46:	85 db                	test   %ebx,%ebx
    4b48:	78 08                	js     4b52 <freebuf+0x46>
    4b4a:	3b 1d 94 91 01 00    	cmp    0x19194,%ebx
    4b50:	7c 07                	jl     4b59 <freebuf+0x4d>
    4b52:	b8 ff ff ff ff       	mov    $0xffffffff,%eax
    4b57:	eb 3e                	jmp    4b97 <freebuf+0x8b>
    4b59:	83 ec 0c             	sub    $0xc,%esp
    4b5c:	8d 45 f6             	lea    0xfffffff6(%ebp),%eax
    4b5f:	50                   	push   %eax
    4b60:	e8 57 bc ff ff       	call   7bc <disable>
    4b65:	8d 1c 9b             	lea    (%ebx,%ebx,4),%ebx
    4b68:	c1 e3 02             	shl    $0x2,%ebx
    4b6b:	8b 83 0c 90 01 00    	mov    0x1900c(%ebx),%eax
    4b71:	89 06                	mov    %eax,(%esi)
    4b73:	89 b3 0c 90 01 00    	mov    %esi,0x1900c(%ebx)
    4b79:	8d 45 f6             	lea    0xfffffff6(%ebp),%eax
    4b7c:	89 04 24             	mov    %eax,(%esp)
    4b7f:	e8 60 bc ff ff       	call   7e4 <restore>
    4b84:	83 c4 04             	add    $0x4,%esp
    4b87:	ff b3 10 90 01 00    	pushl  0x19010(%ebx)
    4b8d:	e8 4e 19 00 00       	call   64e0 <signal>
    4b92:	b8 01 00 00 00       	mov    $0x1,%eax
    4b97:	8d 65 f8             	lea    0xfffffff8(%ebp),%esp
    4b9a:	5b                   	pop    %ebx
    4b9b:	5e                   	pop    %esi
    4b9c:	5d                   	pop    %ebp
    4b9d:	c3                   	ret    
    4b9e:	90                   	nop    
    4b9f:	90                   	nop    

00004ba0 <freemem>:
    4ba0:	55                   	push   %ebp
    4ba1:	89 e5                	mov    %esp,%ebp
    4ba3:	57                   	push   %edi
    4ba4:	56                   	push   %esi
    4ba5:	53                   	push   %ebx
    4ba6:	83 ec 0c             	sub    $0xc,%esp
    4ba9:	8b 75 08             	mov    0x8(%ebp),%esi
    4bac:	8b 5d 0c             	mov    0xc(%ebp),%ebx
    4baf:	85 db                	test   %ebx,%ebx
    4bb1:	74 10                	je     4bc3 <freemem+0x23>
    4bb3:	3b 35 c4 75 01 00    	cmp    0x175c4,%esi
    4bb9:	77 08                	ja     4bc3 <freemem+0x23>
    4bbb:	81 fe f4 9a 01 00    	cmp    $0x19af4,%esi
    4bc1:	73 0a                	jae    4bcd <freemem+0x2d>
    4bc3:	b8 ff ff ff ff       	mov    $0xffffffff,%eax
    4bc8:	e9 c5 00 00 00       	jmp    4c92 <freemem+0xf2>
    4bcd:	83 c3 07             	add    $0x7,%ebx
    4bd0:	83 e3 f8             	and    $0xfffffff8,%ebx
    4bd3:	83 ec 0c             	sub    $0xc,%esp
    4bd6:	8d 45 f2             	lea    0xfffffff2(%ebp),%eax
    4bd9:	50                   	push   %eax
    4bda:	e8 dd bb ff ff       	call   7bc <disable>
    4bdf:	8b 0d 68 8b 01 00    	mov    0x18b68,%ecx
    4be5:	bf 68 8b 01 00       	mov    $0x18b68,%edi
    4bea:	83 c4 10             	add    $0x10,%esp
    4bed:	85 c9                	test   %ecx,%ecx
    4bef:	0f 95 c0             	setne  %al
    4bf2:	39 f1                	cmp    %esi,%ecx
    4bf4:	0f 92 c2             	setb   %dl
    4bf7:	25 ff 00 00 00       	and    $0xff,%eax
    4bfc:	85 c2                	test   %eax,%edx
    4bfe:	74 17                	je     4c17 <freemem+0x77>
    4c00:	89 cf                	mov    %ecx,%edi
    4c02:	8b 09                	mov    (%ecx),%ecx
    4c04:	85 c9                	test   %ecx,%ecx
    4c06:	0f 95 c0             	setne  %al
    4c09:	39 f1                	cmp    %esi,%ecx
    4c0b:	0f 92 c2             	setb   %dl
    4c0e:	25 ff 00 00 00       	and    $0xff,%eax
    4c13:	85 c2                	test   %eax,%edx
    4c15:	75 e9                	jne    4c00 <freemem+0x60>
    4c17:	89 fa                	mov    %edi,%edx
    4c19:	03 57 04             	add    0x4(%edi),%edx
    4c1c:	39 f2                	cmp    %esi,%edx
    4c1e:	76 08                	jbe    4c28 <freemem+0x88>
    4c20:	81 ff 68 8b 01 00    	cmp    $0x18b68,%edi
    4c26:	75 0b                	jne    4c33 <freemem+0x93>
    4c28:	85 c9                	test   %ecx,%ecx
    4c2a:	74 1a                	je     4c46 <freemem+0xa6>
    4c2c:	8d 04 33             	lea    (%ebx,%esi,1),%eax
    4c2f:	39 c8                	cmp    %ecx,%eax
    4c31:	76 13                	jbe    4c46 <freemem+0xa6>
    4c33:	83 ec 0c             	sub    $0xc,%esp
    4c36:	8d 45 f2             	lea    0xfffffff2(%ebp),%eax
    4c39:	50                   	push   %eax
    4c3a:	e8 a5 bb ff ff       	call   7e4 <restore>
    4c3f:	b8 ff ff ff ff       	mov    $0xffffffff,%eax
    4c44:	eb 4c                	jmp    4c92 <freemem+0xf2>
    4c46:	81 ff 68 8b 01 00    	cmp    $0x18b68,%edi
    4c4c:	0f 95 c0             	setne  %al
    4c4f:	39 d6                	cmp    %edx,%esi
    4c51:	0f 94 c2             	sete   %dl
    4c54:	25 ff 00 00 00       	and    $0xff,%eax
    4c59:	85 c2                	test   %eax,%edx
    4c5b:	74 05                	je     4c62 <freemem+0xc2>
    4c5d:	01 5f 04             	add    %ebx,0x4(%edi)
    4c60:	eb 09                	jmp    4c6b <freemem+0xcb>
    4c62:	89 5e 04             	mov    %ebx,0x4(%esi)
    4c65:	89 0e                	mov    %ecx,(%esi)
    4c67:	89 37                	mov    %esi,(%edi)
    4c69:	89 f7                	mov    %esi,%edi
    4c6b:	8b 57 04             	mov    0x4(%edi),%edx
    4c6e:	8d 04 17             	lea    (%edi,%edx,1),%eax
    4c71:	39 c8                	cmp    %ecx,%eax
    4c73:	75 0c                	jne    4c81 <freemem+0xe1>
    4c75:	89 d0                	mov    %edx,%eax
    4c77:	03 41 04             	add    0x4(%ecx),%eax
    4c7a:	89 47 04             	mov    %eax,0x4(%edi)
    4c7d:	8b 01                	mov    (%ecx),%eax
    4c7f:	89 07                	mov    %eax,(%edi)
    4c81:	83 ec 0c             	sub    $0xc,%esp
    4c84:	8d 45 f2             	lea    0xfffffff2(%ebp),%eax
    4c87:	50                   	push   %eax
    4c88:	e8 57 bb ff ff       	call   7e4 <restore>
    4c8d:	b8 01 00 00 00       	mov    $0x1,%eax
    4c92:	8d 65 f4             	lea    0xfffffff4(%ebp),%esp
    4c95:	5b                   	pop    %ebx
    4c96:	5e                   	pop    %esi
    4c97:	5f                   	pop    %edi
    4c98:	5d                   	pop    %ebp
    4c99:	c3                   	ret    
    4c9a:	90                   	nop    
    4c9b:	90                   	nop    

00004c9c <getbuf>:
    4c9c:	55                   	push   %ebp
    4c9d:	89 e5                	mov    %esp,%ebp
    4c9f:	57                   	push   %edi
    4ca0:	56                   	push   %esi
    4ca1:	53                   	push   %ebx
    4ca2:	83 ec 0c             	sub    $0xc,%esp
    4ca5:	8b 75 08             	mov    0x8(%ebp),%esi
    4ca8:	83 3d 90 91 01 00 00 	cmpl   $0x0,0x19190
    4caf:	78 1a                	js     4ccb <getbuf+0x2f>
    4cb1:	a1 90 91 01 00       	mov    0x19190,%eax
    4cb6:	3b 05 f0 8f 01 00    	cmp    0x18ff0,%eax
    4cbc:	7d 0d                	jge    4ccb <getbuf+0x2f>
    4cbe:	81 3c 85 a0 8f 01 00 	cmpl   $0x19190,0x18fa0(,%eax,4)
    4cc5:	90 91 01 00 
    4cc9:	74 0a                	je     4cd5 <getbuf+0x39>
    4ccb:	b8 ff ff ff ff       	mov    $0xffffffff,%eax
    4cd0:	e9 82 00 00 00       	jmp    4d57 <getbuf+0xbb>
    4cd5:	85 f6                	test   %esi,%esi
    4cd7:	78 08                	js     4ce1 <getbuf+0x45>
    4cd9:	3b 35 94 91 01 00    	cmp    0x19194,%esi
    4cdf:	7c 07                	jl     4ce8 <getbuf+0x4c>
    4ce1:	b8 ff ff ff ff       	mov    $0xffffffff,%eax
    4ce6:	eb 6f                	jmp    4d57 <getbuf+0xbb>
    4ce8:	83 ec 0c             	sub    $0xc,%esp
    4ceb:	8d 04 b6             	lea    (%esi,%esi,4),%eax
    4cee:	8d 3c 85 00 00 00 00 	lea    0x0(,%eax,4),%edi
    4cf5:	8d 9f 00 90 01 00    	lea    0x19000(%edi),%ebx
    4cfb:	ff 73 10             	pushl  0x10(%ebx)
    4cfe:	e8 95 1d 00 00       	call   6a98 <wait>
    4d03:	83 c4 04             	add    $0x4,%esp
    4d06:	ff 73 10             	pushl  0x10(%ebx)
    4d09:	e8 06 15 00 00       	call   6214 <scount>
    4d0e:	8b 97 08 90 01 00    	mov    0x19008(%edi),%edx
    4d14:	29 c2                	sub    %eax,%edx
    4d16:	83 c4 10             	add    $0x10,%esp
    4d19:	39 97 04 90 01 00    	cmp    %edx,0x19004(%edi)
    4d1f:	7d 06                	jge    4d27 <getbuf+0x8b>
    4d21:	89 97 04 90 01 00    	mov    %edx,0x19004(%edi)
    4d27:	83 ec 0c             	sub    $0xc,%esp
    4d2a:	8d 45 f2             	lea    0xfffffff2(%ebp),%eax
    4d2d:	50                   	push   %eax
    4d2e:	e8 89 ba ff ff       	call   7bc <disable>
    4d33:	8d 04 b6             	lea    (%esi,%esi,4),%eax
    4d36:	c1 e0 02             	shl    $0x2,%eax
    4d39:	8b 98 0c 90 01 00    	mov    0x1900c(%eax),%ebx
    4d3f:	8b 13                	mov    (%ebx),%edx
    4d41:	89 90 0c 90 01 00    	mov    %edx,0x1900c(%eax)
    4d47:	8d 45 f2             	lea    0xfffffff2(%ebp),%eax
    4d4a:	89 04 24             	mov    %eax,(%esp)
    4d4d:	e8 92 ba ff ff       	call   7e4 <restore>
    4d52:	89 33                	mov    %esi,(%ebx)
    4d54:	8d 43 04             	lea    0x4(%ebx),%eax
    4d57:	8d 65 f4             	lea    0xfffffff4(%ebp),%esp
    4d5a:	5b                   	pop    %ebx
    4d5b:	5e                   	pop    %esi
    4d5c:	5f                   	pop    %edi
    4d5d:	5d                   	pop    %ebp
    4d5e:	c3                   	ret    

00004d5f <nbgetbuf>:
    4d5f:	55                   	push   %ebp
    4d60:	89 e5                	mov    %esp,%ebp
    4d62:	57                   	push   %edi
    4d63:	56                   	push   %esi
    4d64:	53                   	push   %ebx
    4d65:	83 ec 0c             	sub    $0xc,%esp
    4d68:	8b 75 08             	mov    0x8(%ebp),%esi
    4d6b:	83 3d 90 91 01 00 00 	cmpl   $0x0,0x19190
    4d72:	78 1a                	js     4d8e <nbgetbuf+0x2f>
    4d74:	a1 90 91 01 00       	mov    0x19190,%eax
    4d79:	3b 05 f0 8f 01 00    	cmp    0x18ff0,%eax
    4d7f:	7d 0d                	jge    4d8e <nbgetbuf+0x2f>
    4d81:	81 3c 85 a0 8f 01 00 	cmpl   $0x19190,0x18fa0(,%eax,4)
    4d88:	90 91 01 00 
    4d8c:	74 0a                	je     4d98 <nbgetbuf+0x39>
    4d8e:	b8 ff ff ff ff       	mov    $0xffffffff,%eax
    4d93:	e9 b2 00 00 00       	jmp    4e4a <nbgetbuf+0xeb>
    4d98:	85 f6                	test   %esi,%esi
    4d9a:	78 08                	js     4da4 <nbgetbuf+0x45>
    4d9c:	3b 35 94 91 01 00    	cmp    0x19194,%esi
    4da2:	7c 0a                	jl     4dae <nbgetbuf+0x4f>
    4da4:	b8 ff ff ff ff       	mov    $0xffffffff,%eax
    4da9:	e9 9c 00 00 00       	jmp    4e4a <nbgetbuf+0xeb>
    4dae:	83 ec 0c             	sub    $0xc,%esp
    4db1:	8d 45 f2             	lea    0xfffffff2(%ebp),%eax
    4db4:	50                   	push   %eax
    4db5:	e8 02 ba ff ff       	call   7bc <disable>
    4dba:	83 c4 04             	add    $0x4,%esp
    4dbd:	8d 04 b6             	lea    (%esi,%esi,4),%eax
    4dc0:	ff 34 85 10 90 01 00 	pushl  0x19010(,%eax,4)
    4dc7:	e8 48 14 00 00       	call   6214 <scount>
    4dcc:	83 c4 10             	add    $0x10,%esp
    4dcf:	85 c0                	test   %eax,%eax
    4dd1:	7f 13                	jg     4de6 <nbgetbuf+0x87>
    4dd3:	83 ec 0c             	sub    $0xc,%esp
    4dd6:	8d 45 f2             	lea    0xfffffff2(%ebp),%eax
    4dd9:	50                   	push   %eax
    4dda:	e8 05 ba ff ff       	call   7e4 <restore>
    4ddf:	b8 00 00 00 00       	mov    $0x0,%eax
    4de4:	eb 64                	jmp    4e4a <nbgetbuf+0xeb>
    4de6:	83 ec 0c             	sub    $0xc,%esp
    4de9:	8d 04 b6             	lea    (%esi,%esi,4),%eax
    4dec:	8d 3c 85 00 00 00 00 	lea    0x0(,%eax,4),%edi
    4df3:	8d 9f 00 90 01 00    	lea    0x19000(%edi),%ebx
    4df9:	ff 73 10             	pushl  0x10(%ebx)
    4dfc:	e8 97 1c 00 00       	call   6a98 <wait>
    4e01:	83 c4 04             	add    $0x4,%esp
    4e04:	ff 73 10             	pushl  0x10(%ebx)
    4e07:	e8 08 14 00 00       	call   6214 <scount>
    4e0c:	8b 97 08 90 01 00    	mov    0x19008(%edi),%edx
    4e12:	29 c2                	sub    %eax,%edx
    4e14:	83 c4 10             	add    $0x10,%esp
    4e17:	39 97 04 90 01 00    	cmp    %edx,0x19004(%edi)
    4e1d:	7d 06                	jge    4e25 <nbgetbuf+0xc6>
    4e1f:	89 97 04 90 01 00    	mov    %edx,0x19004(%edi)
    4e25:	8d 04 b6             	lea    (%esi,%esi,4),%eax
    4e28:	c1 e0 02             	shl    $0x2,%eax
    4e2b:	8b 98 0c 90 01 00    	mov    0x1900c(%eax),%ebx
    4e31:	8b 13                	mov    (%ebx),%edx
    4e33:	89 90 0c 90 01 00    	mov    %edx,0x1900c(%eax)
    4e39:	83 ec 0c             	sub    $0xc,%esp
    4e3c:	8d 45 f2             	lea    0xfffffff2(%ebp),%eax
    4e3f:	50                   	push   %eax
    4e40:	e8 9f b9 ff ff       	call   7e4 <restore>
    4e45:	89 33                	mov    %esi,(%ebx)
    4e47:	8d 43 04             	lea    0x4(%ebx),%eax
    4e4a:	8d 65 f4             	lea    0xfffffff4(%ebp),%esp
    4e4d:	5b                   	pop    %ebx
    4e4e:	5e                   	pop    %esi
    4e4f:	5f                   	pop    %edi
    4e50:	5d                   	pop    %ebp
    4e51:	c3                   	ret    
    4e52:	90                   	nop    
    4e53:	90                   	nop    

00004e54 <getc>:
    4e54:	55                   	push   %ebp
    4e55:	89 e5                	mov    %esp,%ebp
    4e57:	83 ec 08             	sub    $0x8,%esp
    4e5a:	8b 55 08             	mov    0x8(%ebp),%edx
    4e5d:	b8 ff ff ff ff       	mov    $0xffffffff,%eax
    4e62:	83 fa 05             	cmp    $0x5,%edx
    4e65:	77 11                	ja     4e78 <getc+0x24>
    4e67:	8d 04 d2             	lea    (%edx,%edx,8),%eax
    4e6a:	8d 04 c5 e0 b2 00 00 	lea    0xb2e0(,%eax,8),%eax
    4e71:	83 ec 0c             	sub    $0xc,%esp
    4e74:	50                   	push   %eax
    4e75:	ff 50 20             	call   *0x20(%eax)
    4e78:	c9                   	leave  
    4e79:	c3                   	ret    
    4e7a:	90                   	nop    
    4e7b:	90                   	nop    

00004e7c <getfirst>:
    4e7c:	55                   	push   %ebp
    4e7d:	89 e5                	mov    %esp,%ebp
    4e7f:	83 ec 08             	sub    $0x8,%esp
    4e82:	8b 45 08             	mov    0x8(%ebp),%eax
    4e85:	8d 04 40             	lea    (%eax,%eax,2),%eax
    4e88:	8b 14 85 84 7f 01 00 	mov    0x17f84(,%eax,4),%edx
    4e8f:	b8 ff ff ff ff       	mov    $0xffffffff,%eax
    4e94:	83 fa 31             	cmp    $0x31,%edx
    4e97:	7f 09                	jg     4ea2 <getfirst+0x26>
    4e99:	83 ec 0c             	sub    $0xc,%esp
    4e9c:	52                   	push   %edx
    4e9d:	e8 90 0f 00 00       	call   5e32 <dequeue>
    4ea2:	c9                   	leave  
    4ea3:	c3                   	ret    

00004ea4 <getlast>:
    4ea4:	55                   	push   %ebp
    4ea5:	89 e5                	mov    %esp,%ebp
    4ea7:	83 ec 08             	sub    $0x8,%esp
    4eaa:	8b 45 08             	mov    0x8(%ebp),%eax
    4ead:	8d 04 40             	lea    (%eax,%eax,2),%eax
    4eb0:	8b 14 85 88 7f 01 00 	mov    0x17f88(,%eax,4),%edx
    4eb7:	b8 ff ff ff ff       	mov    $0xffffffff,%eax
    4ebc:	83 fa 31             	cmp    $0x31,%edx
    4ebf:	7f 09                	jg     4eca <getlast+0x26>
    4ec1:	83 ec 0c             	sub    $0xc,%esp
    4ec4:	52                   	push   %edx
    4ec5:	e8 68 0f 00 00       	call   5e32 <dequeue>
    4eca:	c9                   	leave  
    4ecb:	c3                   	ret    

00004ecc <getmem>:
    4ecc:	55                   	push   %ebp
    4ecd:	89 e5                	mov    %esp,%ebp
    4ecf:	56                   	push   %esi
    4ed0:	53                   	push   %ebx
    4ed1:	83 ec 1c             	sub    $0x1c,%esp
    4ed4:	8b 75 08             	mov    0x8(%ebp),%esi
    4ed7:	8d 45 f6             	lea    0xfffffff6(%ebp),%eax
    4eda:	50                   	push   %eax
    4edb:	e8 dc b8 ff ff       	call   7bc <disable>
    4ee0:	83 c4 10             	add    $0x10,%esp
    4ee3:	85 f6                	test   %esi,%esi
    4ee5:	74 09                	je     4ef0 <getmem+0x24>
    4ee7:	83 3d 68 8b 01 00 00 	cmpl   $0x0,0x18b68
    4eee:	75 48                	jne    4f38 <getmem+0x6c>
    4ef0:	83 ec 0c             	sub    $0xc,%esp
    4ef3:	8d 45 f6             	lea    0xfffffff6(%ebp),%eax
    4ef6:	50                   	push   %eax
    4ef7:	e8 e8 b8 ff ff       	call   7e4 <restore>
    4efc:	b8 ff ff ff ff       	mov    $0xffffffff,%eax
    4f01:	eb 6d                	jmp    4f70 <getmem+0xa4>
    4f03:	8b 03                	mov    (%ebx),%eax
    4f05:	89 01                	mov    %eax,(%ecx)
    4f07:	83 ec 0c             	sub    $0xc,%esp
    4f0a:	8d 45 f6             	lea    0xfffffff6(%ebp),%eax
    4f0d:	50                   	push   %eax
    4f0e:	e8 d1 b8 ff ff       	call   7e4 <restore>
    4f13:	89 d8                	mov    %ebx,%eax
    4f15:	eb 59                	jmp    4f70 <getmem+0xa4>
    4f17:	8d 14 33             	lea    (%ebx,%esi,1),%edx
    4f1a:	89 11                	mov    %edx,(%ecx)
    4f1c:	8b 03                	mov    (%ebx),%eax
    4f1e:	89 02                	mov    %eax,(%edx)
    4f20:	8b 43 04             	mov    0x4(%ebx),%eax
    4f23:	29 f0                	sub    %esi,%eax
    4f25:	89 42 04             	mov    %eax,0x4(%edx)
    4f28:	83 ec 0c             	sub    $0xc,%esp
    4f2b:	8d 45 f6             	lea    0xfffffff6(%ebp),%eax
    4f2e:	50                   	push   %eax
    4f2f:	e8 b0 b8 ff ff       	call   7e4 <restore>
    4f34:	89 d8                	mov    %ebx,%eax
    4f36:	eb 38                	jmp    4f70 <getmem+0xa4>
    4f38:	83 c6 07             	add    $0x7,%esi
    4f3b:	83 e6 f8             	and    $0xfffffff8,%esi
    4f3e:	b9 68 8b 01 00       	mov    $0x18b68,%ecx
    4f43:	8b 1d 68 8b 01 00    	mov    0x18b68,%ebx
    4f49:	85 db                	test   %ebx,%ebx
    4f4b:	74 12                	je     4f5f <getmem+0x93>
    4f4d:	39 73 04             	cmp    %esi,0x4(%ebx)
    4f50:	74 b1                	je     4f03 <getmem+0x37>
    4f52:	39 73 04             	cmp    %esi,0x4(%ebx)
    4f55:	77 c0                	ja     4f17 <getmem+0x4b>
    4f57:	89 d9                	mov    %ebx,%ecx
    4f59:	8b 1b                	mov    (%ebx),%ebx
    4f5b:	85 db                	test   %ebx,%ebx
    4f5d:	75 ee                	jne    4f4d <getmem+0x81>
    4f5f:	83 ec 0c             	sub    $0xc,%esp
    4f62:	8d 45 f6             	lea    0xfffffff6(%ebp),%eax
    4f65:	50                   	push   %eax
    4f66:	e8 79 b8 ff ff       	call   7e4 <restore>
    4f6b:	b8 ff ff ff ff       	mov    $0xffffffff,%eax
    4f70:	8d 65 f8             	lea    0xfffffff8(%ebp),%esp
    4f73:	5b                   	pop    %ebx
    4f74:	5e                   	pop    %esi
    4f75:	5d                   	pop    %ebp
    4f76:	c3                   	ret    
    4f77:	90                   	nop    

00004f78 <getpid>:
    4f78:	55                   	push   %ebp
    4f79:	89 e5                	mov    %esp,%ebp
    4f7b:	a1 e4 c8 00 00       	mov    0xc8e4,%eax
    4f80:	5d                   	pop    %ebp
    4f81:	c3                   	ret    
    4f82:	90                   	nop    
    4f83:	90                   	nop    

00004f84 <getprio>:
    4f84:	55                   	push   %ebp
    4f85:	89 e5                	mov    %esp,%ebp
    4f87:	53                   	push   %ebx
    4f88:	83 ec 10             	sub    $0x10,%esp
    4f8b:	8b 5d 08             	mov    0x8(%ebp),%ebx
    4f8e:	8d 45 fa             	lea    0xfffffffa(%ebp),%eax
    4f91:	50                   	push   %eax
    4f92:	e8 25 b8 ff ff       	call   7bc <disable>
    4f97:	8d 43 ff             	lea    0xffffffff(%ebx),%eax
    4f9a:	83 c4 10             	add    $0x10,%esp
    4f9d:	83 f8 30             	cmp    $0x30,%eax
    4fa0:	77 1a                	ja     4fbc <getprio+0x38>
    4fa2:	8d 04 5b             	lea    (%ebx,%ebx,2),%eax
    4fa5:	c1 e0 04             	shl    $0x4,%eax
    4fa8:	01 d8                	add    %ebx,%eax
    4faa:	c1 e0 02             	shl    $0x2,%eax
    4fad:	8d 98 00 c9 00 00    	lea    0xc900(%eax),%ebx
    4fb3:	80 b8 00 c9 00 00 02 	cmpb   $0x2,0xc900(%eax)
    4fba:	75 13                	jne    4fcf <getprio+0x4b>
    4fbc:	83 ec 0c             	sub    $0xc,%esp
    4fbf:	8d 45 fa             	lea    0xfffffffa(%ebp),%eax
    4fc2:	50                   	push   %eax
    4fc3:	e8 1c b8 ff ff       	call   7e4 <restore>
    4fc8:	b8 ff ff ff ff       	mov    $0xffffffff,%eax
    4fcd:	eb 0f                	jmp    4fde <getprio+0x5a>
    4fcf:	83 ec 0c             	sub    $0xc,%esp
    4fd2:	8d 45 fa             	lea    0xfffffffa(%ebp),%eax
    4fd5:	50                   	push   %eax
    4fd6:	e8 09 b8 ff ff       	call   7e4 <restore>
    4fdb:	8b 43 04             	mov    0x4(%ebx),%eax
    4fde:	8b 5d fc             	mov    0xfffffffc(%ebp),%ebx
    4fe1:	c9                   	leave  
    4fe2:	c3                   	ret    
    4fe3:	90                   	nop    

00004fe4 <getstk>:
    4fe4:	55                   	push   %ebp
    4fe5:	89 e5                	mov    %esp,%ebp
    4fe7:	57                   	push   %edi
    4fe8:	56                   	push   %esi
    4fe9:	53                   	push   %ebx
    4fea:	83 ec 18             	sub    $0x18,%esp
    4fed:	8b 5d 08             	mov    0x8(%ebp),%ebx
    4ff0:	bf 00 00 00 00       	mov    $0x0,%edi
    4ff5:	8d 45 f2             	lea    0xfffffff2(%ebp),%eax
    4ff8:	50                   	push   %eax
    4ff9:	e8 be b7 ff ff       	call   7bc <disable>
    4ffe:	83 c4 10             	add    $0x10,%esp
    5001:	85 db                	test   %ebx,%ebx
    5003:	75 13                	jne    5018 <getstk+0x34>
    5005:	83 ec 0c             	sub    $0xc,%esp
    5008:	8d 45 f2             	lea    0xfffffff2(%ebp),%eax
    500b:	50                   	push   %eax
    500c:	e8 d3 b7 ff ff       	call   7e4 <restore>
    5011:	b8 ff ff ff ff       	mov    $0xffffffff,%eax
    5016:	eb 65                	jmp    507d <getstk+0x99>
    5018:	83 c3 03             	add    $0x3,%ebx
    501b:	83 e3 fc             	and    $0xfffffffc,%ebx
    501e:	be 00 00 00 00       	mov    $0x0,%esi
    5023:	ba 68 8b 01 00       	mov    $0x18b68,%edx
    5028:	a1 68 8b 01 00       	mov    0x18b68,%eax
    502d:	85 c0                	test   %eax,%eax
    502f:	74 11                	je     5042 <getstk+0x5e>
    5031:	39 58 04             	cmp    %ebx,0x4(%eax)
    5034:	72 04                	jb     503a <getstk+0x56>
    5036:	89 d7                	mov    %edx,%edi
    5038:	89 c6                	mov    %eax,%esi
    503a:	89 c2                	mov    %eax,%edx
    503c:	8b 00                	mov    (%eax),%eax
    503e:	85 c0                	test   %eax,%eax
    5040:	75 ef                	jne    5031 <getstk+0x4d>
    5042:	85 f6                	test   %esi,%esi
    5044:	75 13                	jne    5059 <getstk+0x75>
    5046:	83 ec 0c             	sub    $0xc,%esp
    5049:	8d 45 f2             	lea    0xfffffff2(%ebp),%eax
    504c:	50                   	push   %eax
    504d:	e8 92 b7 ff ff       	call   7e4 <restore>
    5052:	b8 ff ff ff ff       	mov    $0xffffffff,%eax
    5057:	eb 24                	jmp    507d <getstk+0x99>
    5059:	8b 56 04             	mov    0x4(%esi),%edx
    505c:	39 da                	cmp    %ebx,%edx
    505e:	75 06                	jne    5066 <getstk+0x82>
    5060:	8b 06                	mov    (%esi),%eax
    5062:	89 07                	mov    %eax,(%edi)
    5064:	eb 03                	jmp    5069 <getstk+0x85>
    5066:	29 5e 04             	sub    %ebx,0x4(%esi)
    5069:	8d 74 16 fc          	lea    0xfffffffc(%esi,%edx,1),%esi
    506d:	89 1e                	mov    %ebx,(%esi)
    506f:	83 ec 0c             	sub    $0xc,%esp
    5072:	8d 45 f2             	lea    0xfffffff2(%ebp),%eax
    5075:	50                   	push   %eax
    5076:	e8 69 b7 ff ff       	call   7e4 <restore>
    507b:	89 f0                	mov    %esi,%eax
    507d:	8d 65 f4             	lea    0xfffffff4(%ebp),%esp
    5080:	5b                   	pop    %ebx
    5081:	5e                   	pop    %esi
    5082:	5f                   	pop    %edi
    5083:	5d                   	pop    %ebp
    5084:	c3                   	ret    
    5085:	90                   	nop    
    5086:	90                   	nop    
    5087:	90                   	nop    

00005088 <gettime>:
    5088:	55                   	push   %ebp
    5089:	89 e5                	mov    %esp,%ebp
    508b:	b8 01 00 00 00       	mov    $0x1,%eax
    5090:	5d                   	pop    %ebp
    5091:	c3                   	ret    
    5092:	90                   	nop    
    5093:	90                   	nop    

00005094 <enq>:
    5094:	55                   	push   %ebp
    5095:	89 e5                	mov    %esp,%ebp
    5097:	57                   	push   %edi
    5098:	56                   	push   %esi
    5099:	53                   	push   %ebx
    509a:	83 ec 0c             	sub    $0xc,%esp
    509d:	8b 4d 08             	mov    0x8(%ebp),%ecx
    50a0:	8b 7d 10             	mov    0x10(%ebp),%edi
    50a3:	b8 ff ff ff ff       	mov    $0xffffffff,%eax
    50a8:	83 f9 63             	cmp    $0x63,%ecx
    50ab:	0f 87 e2 00 00 00    	ja     5193 <enq+0xff>
    50b1:	89 ca                	mov    %ecx,%edx
    50b3:	c1 e2 05             	shl    $0x5,%edx
    50b6:	80 ba 40 ba 00 00 00 	cmpb   $0x0,0xba40(%edx)
    50bd:	74 0e                	je     50cd <enq+0x39>
    50bf:	8b 82 4c ba 00 00    	mov    0xba4c(%edx),%eax
    50c5:	3b 82 48 ba 00 00    	cmp    0xba48(%edx),%eax
    50cb:	7c 0a                	jl     50d7 <enq+0x43>
    50cd:	b8 ff ff ff ff       	mov    $0xffffffff,%eax
    50d2:	e9 bc 00 00 00       	jmp    5193 <enq+0xff>
    50d7:	89 c8                	mov    %ecx,%eax
    50d9:	c1 e0 05             	shl    $0x5,%eax
    50dc:	8d b0 40 ba 00 00    	lea    0xba40(%eax),%esi
    50e2:	83 7e 04 01          	cmpl   $0x1,0x4(%esi)
    50e6:	75 11                	jne    50f9 <enq+0x65>
    50e8:	83 ec 0c             	sub    $0xc,%esp
    50eb:	8d 45 f2             	lea    0xfffffff2(%ebp),%eax
    50ee:	50                   	push   %eax
    50ef:	e8 c8 b6 ff ff       	call   7bc <disable>
    50f4:	83 c4 10             	add    $0x10,%esp
    50f7:	eb 0e                	jmp    5107 <enq+0x73>
    50f9:	83 ec 0c             	sub    $0xc,%esp
    50fc:	ff 76 14             	pushl  0x14(%esi)
    50ff:	e8 94 19 00 00       	call   6a98 <wait>
    5104:	83 c4 10             	add    $0x10,%esp
    5107:	83 7e 0c 00          	cmpl   $0x0,0xc(%esi)
    510b:	79 07                	jns    5114 <enq+0x80>
    510d:	c7 46 0c 00 00 00 00 	movl   $0x0,0xc(%esi)
    5114:	8b 5e 0c             	mov    0xc(%esi),%ebx
    5117:	4b                   	dec    %ebx
    5118:	78 12                	js     512c <enq+0x98>
    511a:	8b 46 18             	mov    0x18(%esi),%eax
    511d:	89 c2                	mov    %eax,%edx
    511f:	39 3c 98             	cmp    %edi,(%eax,%ebx,4)
    5122:	7d 08                	jge    512c <enq+0x98>
    5124:	4b                   	dec    %ebx
    5125:	78 05                	js     512c <enq+0x98>
    5127:	39 3c 9a             	cmp    %edi,(%edx,%ebx,4)
    512a:	7c f8                	jl     5124 <enq+0x90>
    512c:	8b 4e 0c             	mov    0xc(%esi),%ecx
    512f:	49                   	dec    %ecx
    5130:	39 d9                	cmp    %ebx,%ecx
    5132:	7e 19                	jle    514d <enq+0xb9>
    5134:	8b 56 18             	mov    0x18(%esi),%edx
    5137:	8b 04 8a             	mov    (%edx,%ecx,4),%eax
    513a:	89 44 8a 04          	mov    %eax,0x4(%edx,%ecx,4)
    513e:	8b 56 1c             	mov    0x1c(%esi),%edx
    5141:	8b 04 8a             	mov    (%edx,%ecx,4),%eax
    5144:	89 44 8a 04          	mov    %eax,0x4(%edx,%ecx,4)
    5148:	49                   	dec    %ecx
    5149:	39 d9                	cmp    %ebx,%ecx
    514b:	7f e7                	jg     5134 <enq+0xa0>
    514d:	8b 46 18             	mov    0x18(%esi),%eax
    5150:	89 7c 98 04          	mov    %edi,0x4(%eax,%ebx,4)
    5154:	8b 56 1c             	mov    0x1c(%esi),%edx
    5157:	8b 45 0c             	mov    0xc(%ebp),%eax
    515a:	89 44 9a 04          	mov    %eax,0x4(%edx,%ebx,4)
    515e:	8b 56 0c             	mov    0xc(%esi),%edx
    5161:	42                   	inc    %edx
    5162:	89 56 0c             	mov    %edx,0xc(%esi)
    5165:	8b 46 08             	mov    0x8(%esi),%eax
    5168:	89 c3                	mov    %eax,%ebx
    516a:	29 d3                	sub    %edx,%ebx
    516c:	83 7e 04 01          	cmpl   $0x1,0x4(%esi)
    5170:	75 11                	jne    5183 <enq+0xef>
    5172:	83 ec 0c             	sub    $0xc,%esp
    5175:	8d 45 f2             	lea    0xfffffff2(%ebp),%eax
    5178:	50                   	push   %eax
    5179:	e8 66 b6 ff ff       	call   7e4 <restore>
    517e:	83 c4 10             	add    $0x10,%esp
    5181:	eb 0e                	jmp    5191 <enq+0xfd>
    5183:	83 ec 0c             	sub    $0xc,%esp
    5186:	ff 76 14             	pushl  0x14(%esi)
    5189:	e8 52 13 00 00       	call   64e0 <signal>
    518e:	83 c4 10             	add    $0x10,%esp
    5191:	89 d8                	mov    %ebx,%eax
    5193:	8d 65 f4             	lea    0xfffffff4(%ebp),%esp
    5196:	5b                   	pop    %ebx
    5197:	5e                   	pop    %esi
    5198:	5f                   	pop    %edi
    5199:	5d                   	pop    %ebp
    519a:	c3                   	ret    

0000519b <deq>:
    519b:	55                   	push   %ebp
    519c:	89 e5                	mov    %esp,%ebp
    519e:	56                   	push   %esi
    519f:	53                   	push   %ebx
    51a0:	83 ec 10             	sub    $0x10,%esp
    51a3:	8b 45 08             	mov    0x8(%ebp),%eax
    51a6:	ba 00 00 00 00       	mov    $0x0,%edx
    51ab:	83 f8 63             	cmp    $0x63,%eax
    51ae:	0f 87 a3 00 00 00    	ja     5257 <deq+0xbc>
    51b4:	89 c2                	mov    %eax,%edx
    51b6:	c1 e2 05             	shl    $0x5,%edx
    51b9:	80 ba 40 ba 00 00 00 	cmpb   $0x0,0xba40(%edx)
    51c0:	74 09                	je     51cb <deq+0x30>
    51c2:	83 ba 4c ba 00 00 00 	cmpl   $0x0,0xba4c(%edx)
    51c9:	7f 0a                	jg     51d5 <deq+0x3a>
    51cb:	ba 00 00 00 00       	mov    $0x0,%edx
    51d0:	e9 82 00 00 00       	jmp    5257 <deq+0xbc>
    51d5:	c1 e0 05             	shl    $0x5,%eax
    51d8:	8d 98 40 ba 00 00    	lea    0xba40(%eax),%ebx
    51de:	83 7b 04 01          	cmpl   $0x1,0x4(%ebx)
    51e2:	75 11                	jne    51f5 <deq+0x5a>
    51e4:	83 ec 0c             	sub    $0xc,%esp
    51e7:	8d 45 f6             	lea    0xfffffff6(%ebp),%eax
    51ea:	50                   	push   %eax
    51eb:	e8 cc b5 ff ff       	call   7bc <disable>
    51f0:	83 c4 10             	add    $0x10,%esp
    51f3:	eb 0e                	jmp    5203 <deq+0x68>
    51f5:	83 ec 0c             	sub    $0xc,%esp
    51f8:	ff 73 14             	pushl  0x14(%ebx)
    51fb:	e8 98 18 00 00       	call   6a98 <wait>
    5200:	83 c4 10             	add    $0x10,%esp
    5203:	8b 43 1c             	mov    0x1c(%ebx),%eax
    5206:	8b 30                	mov    (%eax),%esi
    5208:	b9 01 00 00 00       	mov    $0x1,%ecx
    520d:	83 7b 0c 01          	cmpl   $0x1,0xc(%ebx)
    5211:	7e 1a                	jle    522d <deq+0x92>
    5213:	8b 53 1c             	mov    0x1c(%ebx),%edx
    5216:	8b 04 8a             	mov    (%edx,%ecx,4),%eax
    5219:	89 44 8a fc          	mov    %eax,0xfffffffc(%edx,%ecx,4)
    521d:	8b 53 18             	mov    0x18(%ebx),%edx
    5220:	8b 04 8a             	mov    (%edx,%ecx,4),%eax
    5223:	89 44 8a fc          	mov    %eax,0xfffffffc(%edx,%ecx,4)
    5227:	41                   	inc    %ecx
    5228:	39 4b 0c             	cmp    %ecx,0xc(%ebx)
    522b:	7f e6                	jg     5213 <deq+0x78>
    522d:	ff 4b 0c             	decl   0xc(%ebx)
    5230:	83 7b 04 01          	cmpl   $0x1,0x4(%ebx)
    5234:	75 11                	jne    5247 <deq+0xac>
    5236:	83 ec 0c             	sub    $0xc,%esp
    5239:	8d 45 f6             	lea    0xfffffff6(%ebp),%eax
    523c:	50                   	push   %eax
    523d:	e8 a2 b5 ff ff       	call   7e4 <restore>
    5242:	83 c4 10             	add    $0x10,%esp
    5245:	eb 0e                	jmp    5255 <deq+0xba>
    5247:	83 ec 0c             	sub    $0xc,%esp
    524a:	ff 73 14             	pushl  0x14(%ebx)
    524d:	e8 8e 12 00 00       	call   64e0 <signal>
    5252:	83 c4 10             	add    $0x10,%esp
    5255:	89 f2                	mov    %esi,%edx
    5257:	89 d0                	mov    %edx,%eax
    5259:	8d 65 f8             	lea    0xfffffff8(%ebp),%esp
    525c:	5b                   	pop    %ebx
    525d:	5e                   	pop    %esi
    525e:	5d                   	pop    %ebp
    525f:	c3                   	ret    

00005260 <headq>:
    5260:	55                   	push   %ebp
    5261:	89 e5                	mov    %esp,%ebp
    5263:	56                   	push   %esi
    5264:	53                   	push   %ebx
    5265:	83 ec 10             	sub    $0x10,%esp
    5268:	8b 45 08             	mov    0x8(%ebp),%eax
    526b:	ba 00 00 00 00       	mov    $0x0,%edx
    5270:	83 f8 63             	cmp    $0x63,%eax
    5273:	77 78                	ja     52ed <headq+0x8d>
    5275:	89 c2                	mov    %eax,%edx
    5277:	c1 e2 05             	shl    $0x5,%edx
    527a:	80 ba 40 ba 00 00 00 	cmpb   $0x0,0xba40(%edx)
    5281:	74 09                	je     528c <headq+0x2c>
    5283:	83 ba 4c ba 00 00 00 	cmpl   $0x0,0xba4c(%edx)
    528a:	75 07                	jne    5293 <headq+0x33>
    528c:	ba 00 00 00 00       	mov    $0x0,%edx
    5291:	eb 5a                	jmp    52ed <headq+0x8d>
    5293:	c1 e0 05             	shl    $0x5,%eax
    5296:	8d 98 40 ba 00 00    	lea    0xba40(%eax),%ebx
    529c:	83 7b 04 01          	cmpl   $0x1,0x4(%ebx)
    52a0:	75 11                	jne    52b3 <headq+0x53>
    52a2:	83 ec 0c             	sub    $0xc,%esp
    52a5:	8d 45 f6             	lea    0xfffffff6(%ebp),%eax
    52a8:	50                   	push   %eax
    52a9:	e8 0e b5 ff ff       	call   7bc <disable>
    52ae:	83 c4 10             	add    $0x10,%esp
    52b1:	eb 0e                	jmp    52c1 <headq+0x61>
    52b3:	83 ec 0c             	sub    $0xc,%esp
    52b6:	ff 73 14             	pushl  0x14(%ebx)
    52b9:	e8 da 17 00 00       	call   6a98 <wait>
    52be:	83 c4 10             	add    $0x10,%esp
    52c1:	8b 43 1c             	mov    0x1c(%ebx),%eax
    52c4:	8b 30                	mov    (%eax),%esi
    52c6:	83 7b 04 01          	cmpl   $0x1,0x4(%ebx)
    52ca:	75 11                	jne    52dd <headq+0x7d>
    52cc:	83 ec 0c             	sub    $0xc,%esp
    52cf:	8d 45 f6             	lea    0xfffffff6(%ebp),%eax
    52d2:	50                   	push   %eax
    52d3:	e8 0c b5 ff ff       	call   7e4 <restore>
    52d8:	83 c4 10             	add    $0x10,%esp
    52db:	eb 0e                	jmp    52eb <headq+0x8b>
    52dd:	83 ec 0c             	sub    $0xc,%esp
    52e0:	ff 73 14             	pushl  0x14(%ebx)
    52e3:	e8 f8 11 00 00       	call   64e0 <signal>
    52e8:	83 c4 10             	add    $0x10,%esp
    52eb:	89 f2                	mov    %esi,%edx
    52ed:	89 d0                	mov    %edx,%eax
    52ef:	8d 65 f8             	lea    0xfffffff8(%ebp),%esp
    52f2:	5b                   	pop    %ebx
    52f3:	5e                   	pop    %esi
    52f4:	5d                   	pop    %ebp
    52f5:	c3                   	ret    

000052f6 <seeq>:
    52f6:	55                   	push   %ebp
    52f7:	89 e5                	mov    %esp,%ebp
    52f9:	56                   	push   %esi
    52fa:	53                   	push   %ebx
    52fb:	83 ec 10             	sub    $0x10,%esp
    52fe:	8b 45 08             	mov    0x8(%ebp),%eax
    5301:	ba 00 00 00 00       	mov    $0x0,%edx
    5306:	83 f8 63             	cmp    $0x63,%eax
    5309:	0f 87 be 00 00 00    	ja     53cd <seeq+0xd7>
    530f:	89 c2                	mov    %eax,%edx
    5311:	c1 e2 05             	shl    $0x5,%edx
    5314:	80 ba 40 ba 00 00 00 	cmpb   $0x0,0xba40(%edx)
    531b:	74 09                	je     5326 <seeq+0x30>
    531d:	83 ba 4c ba 00 00 00 	cmpl   $0x0,0xba4c(%edx)
    5324:	75 0a                	jne    5330 <seeq+0x3a>
    5326:	ba 00 00 00 00       	mov    $0x0,%edx
    532b:	e9 9d 00 00 00       	jmp    53cd <seeq+0xd7>
    5330:	c1 e0 05             	shl    $0x5,%eax
    5333:	8d 98 40 ba 00 00    	lea    0xba40(%eax),%ebx
    5339:	83 7b 04 01          	cmpl   $0x1,0x4(%ebx)
    533d:	75 11                	jne    5350 <seeq+0x5a>
    533f:	83 ec 0c             	sub    $0xc,%esp
    5342:	8d 45 f6             	lea    0xfffffff6(%ebp),%eax
    5345:	50                   	push   %eax
    5346:	e8 71 b4 ff ff       	call   7bc <disable>
    534b:	83 c4 10             	add    $0x10,%esp
    534e:	eb 0e                	jmp    535e <seeq+0x68>
    5350:	83 ec 0c             	sub    $0xc,%esp
    5353:	ff 73 14             	pushl  0x14(%ebx)
    5356:	e8 3d 17 00 00       	call   6a98 <wait>
    535b:	83 c4 10             	add    $0x10,%esp
    535e:	8b 43 10             	mov    0x10(%ebx),%eax
    5361:	40                   	inc    %eax
    5362:	89 43 10             	mov    %eax,0x10(%ebx)
    5365:	3b 43 0c             	cmp    0xc(%ebx),%eax
    5368:	7c 33                	jl     539d <seeq+0xa7>
    536a:	c7 43 10 ff ff ff ff 	movl   $0xffffffff,0x10(%ebx)
    5371:	83 7b 04 01          	cmpl   $0x1,0x4(%ebx)
    5375:	75 11                	jne    5388 <seeq+0x92>
    5377:	83 ec 0c             	sub    $0xc,%esp
    537a:	8d 45 f6             	lea    0xfffffff6(%ebp),%eax
    537d:	50                   	push   %eax
    537e:	e8 61 b4 ff ff       	call   7e4 <restore>
    5383:	83 c4 10             	add    $0x10,%esp
    5386:	eb 0e                	jmp    5396 <seeq+0xa0>
    5388:	83 ec 0c             	sub    $0xc,%esp
    538b:	ff 73 14             	pushl  0x14(%ebx)
    538e:	e8 4d 11 00 00       	call   64e0 <signal>
    5393:	83 c4 10             	add    $0x10,%esp
    5396:	ba 00 00 00 00       	mov    $0x0,%edx
    539b:	eb 30                	jmp    53cd <seeq+0xd7>
    539d:	8b 53 10             	mov    0x10(%ebx),%edx
    53a0:	8b 43 1c             	mov    0x1c(%ebx),%eax
    53a3:	8b 34 90             	mov    (%eax,%edx,4),%esi
    53a6:	83 7b 04 01          	cmpl   $0x1,0x4(%ebx)
    53aa:	75 11                	jne    53bd <seeq+0xc7>
    53ac:	83 ec 0c             	sub    $0xc,%esp
    53af:	8d 45 f6             	lea    0xfffffff6(%ebp),%eax
    53b2:	50                   	push   %eax
    53b3:	e8 2c b4 ff ff       	call   7e4 <restore>
    53b8:	83 c4 10             	add    $0x10,%esp
    53bb:	eb 0e                	jmp    53cb <seeq+0xd5>
    53bd:	83 ec 0c             	sub    $0xc,%esp
    53c0:	ff 73 14             	pushl  0x14(%ebx)
    53c3:	e8 18 11 00 00       	call   64e0 <signal>
    53c8:	83 c4 10             	add    $0x10,%esp
    53cb:	89 f2                	mov    %esi,%edx
    53cd:	89 d0                	mov    %edx,%eax
    53cf:	8d 65 f8             	lea    0xfffffff8(%ebp),%esp
    53d2:	5b                   	pop    %ebx
    53d3:	5e                   	pop    %esi
    53d4:	5d                   	pop    %ebp
    53d5:	c3                   	ret    

000053d6 <newq>:
    53d6:	55                   	push   %ebp
    53d7:	89 e5                	mov    %esp,%ebp
    53d9:	57                   	push   %edi
    53da:	56                   	push   %esi
    53db:	53                   	push   %ebx
    53dc:	83 ec 0c             	sub    $0xc,%esp
    53df:	8b 5d 0c             	mov    0xc(%ebp),%ebx
    53e2:	83 3d 20 ba 00 00 00 	cmpl   $0x0,0xba20
    53e9:	75 05                	jne    53f0 <newq+0x1a>
    53eb:	e8 4d 01 00 00       	call   553d <initq>
    53f0:	be 00 00 00 00       	mov    $0x0,%esi
    53f5:	89 f0                	mov    %esi,%eax
    53f7:	c1 e0 05             	shl    $0x5,%eax
    53fa:	80 b8 40 ba 00 00 00 	cmpb   $0x0,0xba40(%eax)
    5401:	74 06                	je     5409 <newq+0x33>
    5403:	46                   	inc    %esi
    5404:	83 fe 63             	cmp    $0x63,%esi
    5407:	7e ec                	jle    53f5 <newq+0x1f>
    5409:	b8 ff ff ff ff       	mov    $0xffffffff,%eax
    540e:	83 fe 64             	cmp    $0x64,%esi
    5411:	74 70                	je     5483 <newq+0xad>
    5413:	89 f0                	mov    %esi,%eax
    5415:	c1 e0 05             	shl    $0x5,%eax
    5418:	8d b8 40 ba 00 00    	lea    0xba40(%eax),%edi
    541e:	c6 80 40 ba 00 00 01 	movb   $0x1,0xba40(%eax)
    5425:	89 5f 04             	mov    %ebx,0x4(%edi)
    5428:	8b 45 08             	mov    0x8(%ebp),%eax
    542b:	89 47 08             	mov    %eax,0x8(%edi)
    542e:	c7 47 0c 00 00 00 00 	movl   $0x0,0xc(%edi)
    5435:	c7 47 10 ff ff ff ff 	movl   $0xffffffff,0x10(%edi)
    543c:	83 fb 01             	cmp    $0x1,%ebx
    543f:	74 10                	je     5451 <newq+0x7b>
    5441:	83 ec 0c             	sub    $0xc,%esp
    5444:	6a 01                	push   $0x1
    5446:	e8 f9 0d 00 00       	call   6244 <screate>
    544b:	89 47 14             	mov    %eax,0x14(%edi)
    544e:	83 c4 10             	add    $0x10,%esp
    5451:	83 ec 0c             	sub    $0xc,%esp
    5454:	8b 5d 08             	mov    0x8(%ebp),%ebx
    5457:	c1 e3 02             	shl    $0x2,%ebx
    545a:	53                   	push   %ebx
    545b:	e8 6c fa ff ff       	call   4ecc <getmem>
    5460:	89 47 1c             	mov    %eax,0x1c(%edi)
    5463:	89 1c 24             	mov    %ebx,(%esp)
    5466:	e8 61 fa ff ff       	call   4ecc <getmem>
    546b:	89 47 18             	mov    %eax,0x18(%edi)
    546e:	83 c4 10             	add    $0x10,%esp
    5471:	83 f8 ff             	cmp    $0xffffffff,%eax
    5474:	74 08                	je     547e <newq+0xa8>
    5476:	89 f0                	mov    %esi,%eax
    5478:	83 7f 1c ff          	cmpl   $0xffffffff,0x1c(%edi)
    547c:	75 05                	jne    5483 <newq+0xad>
    547e:	b8 ff ff ff ff       	mov    $0xffffffff,%eax
    5483:	8d 65 f4             	lea    0xfffffff4(%ebp),%esp
    5486:	5b                   	pop    %ebx
    5487:	5e                   	pop    %esi
    5488:	5f                   	pop    %edi
    5489:	5d                   	pop    %ebp
    548a:	c3                   	ret    

0000548b <freeq>:
    548b:	55                   	push   %ebp
    548c:	89 e5                	mov    %esp,%ebp
    548e:	53                   	push   %ebx
    548f:	83 ec 04             	sub    $0x4,%esp
    5492:	8b 45 08             	mov    0x8(%ebp),%eax
    5495:	ba 00 00 00 00       	mov    $0x0,%edx
    549a:	83 f8 63             	cmp    $0x63,%eax
    549d:	77 6a                	ja     5509 <freeq+0x7e>
    549f:	89 c2                	mov    %eax,%edx
    54a1:	c1 e2 05             	shl    $0x5,%edx
    54a4:	80 ba 40 ba 00 00 00 	cmpb   $0x0,0xba40(%edx)
    54ab:	74 09                	je     54b6 <freeq+0x2b>
    54ad:	83 ba 4c ba 00 00 00 	cmpl   $0x0,0xba4c(%edx)
    54b4:	74 07                	je     54bd <freeq+0x32>
    54b6:	ba 00 00 00 00       	mov    $0x0,%edx
    54bb:	eb 4c                	jmp    5509 <freeq+0x7e>
    54bd:	c1 e0 05             	shl    $0x5,%eax
    54c0:	8d 98 40 ba 00 00    	lea    0xba40(%eax),%ebx
    54c6:	83 ec 08             	sub    $0x8,%esp
    54c9:	8b 43 08             	mov    0x8(%ebx),%eax
    54cc:	c1 e0 02             	shl    $0x2,%eax
    54cf:	50                   	push   %eax
    54d0:	ff 73 18             	pushl  0x18(%ebx)
    54d3:	e8 c8 f6 ff ff       	call   4ba0 <freemem>
    54d8:	83 c4 08             	add    $0x8,%esp
    54db:	8b 43 08             	mov    0x8(%ebx),%eax
    54de:	c1 e0 02             	shl    $0x2,%eax
    54e1:	50                   	push   %eax
    54e2:	ff 73 1c             	pushl  0x1c(%ebx)
    54e5:	e8 b6 f6 ff ff       	call   4ba0 <freemem>
    54ea:	83 c4 10             	add    $0x10,%esp
    54ed:	83 7b 04 01          	cmpl   $0x1,0x4(%ebx)
    54f1:	74 0e                	je     5501 <freeq+0x76>
    54f3:	83 ec 0c             	sub    $0xc,%esp
    54f6:	ff 73 14             	pushl  0x14(%ebx)
    54f9:	e8 f2 0d 00 00       	call   62f0 <sdelete>
    54fe:	83 c4 10             	add    $0x10,%esp
    5501:	c6 03 00             	movb   $0x0,(%ebx)
    5504:	ba 01 00 00 00       	mov    $0x1,%edx
    5509:	89 d0                	mov    %edx,%eax
    550b:	8b 5d fc             	mov    0xfffffffc(%ebp),%ebx
    550e:	c9                   	leave  
    550f:	c3                   	ret    

00005510 <lenq>:
    5510:	55                   	push   %ebp
    5511:	89 e5                	mov    %esp,%ebp
    5513:	8b 55 08             	mov    0x8(%ebp),%edx
    5516:	83 fa 63             	cmp    $0x63,%edx
    5519:	77 0e                	ja     5529 <lenq+0x19>
    551b:	89 d0                	mov    %edx,%eax
    551d:	c1 e0 05             	shl    $0x5,%eax
    5520:	80 b8 40 ba 00 00 00 	cmpb   $0x0,0xba40(%eax)
    5527:	75 07                	jne    5530 <lenq+0x20>
    5529:	b8 ff ff ff ff       	mov    $0xffffffff,%eax
    552e:	eb 0b                	jmp    553b <lenq+0x2b>
    5530:	89 d0                	mov    %edx,%eax
    5532:	c1 e0 05             	shl    $0x5,%eax
    5535:	8b 80 4c ba 00 00    	mov    0xba4c(%eax),%eax
    553b:	5d                   	pop    %ebp
    553c:	c3                   	ret    

0000553d <initq>:
    553d:	55                   	push   %ebp
    553e:	89 e5                	mov    %esp,%ebp
    5540:	ba 00 00 00 00       	mov    $0x0,%edx
    5545:	89 d0                	mov    %edx,%eax
    5547:	c1 e0 05             	shl    $0x5,%eax
    554a:	c6 80 40 ba 00 00 00 	movb   $0x0,0xba40(%eax)
    5551:	42                   	inc    %edx
    5552:	83 fa 63             	cmp    $0x63,%edx
    5555:	7e ee                	jle    5545 <initq+0x8>
    5557:	c7 05 20 ba 00 00 01 	movl   $0x1,0xba20
    555e:	00 00 00 
    5561:	b8 01 00 00 00       	mov    $0x1,%eax
    5566:	5d                   	pop    %ebp
    5567:	c3                   	ret    

00005568 <setsegs>:
    5568:	55                   	push   %ebp
    5569:	89 e5                	mov    %esp,%ebp
    556b:	53                   	push   %ebx
    556c:	83 ec 04             	sub    $0x4,%esp
    556f:	e8 20 af ff ff       	call   494 <sizmem>
    5574:	89 c3                	mov    %eax,%ebx
    5576:	c7 05 c4 75 01 00 ff 	movl   $0x3fffff,0x175c4
    557d:	ff 3f 00 
    5580:	b9 08 b5 00 00       	mov    $0xb508,%ecx
    5585:	b8 5d a8 00 00       	mov    $0xa85d,%eax
    558a:	85 c0                	test   %eax,%eax
    558c:	79 05                	jns    5593 <setsegs+0x2b>
    558e:	b8 5c b8 00 00       	mov    $0xb85c,%eax
    5593:	89 c2                	mov    %eax,%edx
    5595:	c1 fa 0c             	sar    $0xc,%edx
    5598:	66 89 11             	mov    %dx,(%ecx)
    559b:	c1 ea 10             	shr    $0x10,%edx
    559e:	83 e2 0f             	and    $0xf,%edx
    55a1:	8a 41 06             	mov    0x6(%ecx),%al
    55a4:	83 e0 f0             	and    $0xfffffff0,%eax
    55a7:	09 d0                	or     %edx,%eax
    55a9:	88 41 06             	mov    %al,0x6(%ecx)
    55ac:	66 89 1d 20 b5 00 00 	mov    %bx,0xb520
    55b3:	89 da                	mov    %ebx,%edx
    55b5:	c1 ea 10             	shr    $0x10,%edx
    55b8:	83 e2 0f             	and    $0xf,%edx
    55bb:	a0 26 b5 00 00       	mov    0xb526,%al
    55c0:	83 e0 f0             	and    $0xfffffff0,%eax
    55c3:	09 d0                	or     %edx,%eax
    55c5:	a2 26 b5 00 00       	mov    %al,0xb526
    55ca:	ba 40 b5 00 00       	mov    $0xb540,%edx
    55cf:	89 d0                	mov    %edx,%eax
    55d1:	c1 e8 18             	shr    $0x18,%eax
    55d4:	a2 2f b5 00 00       	mov    %al,0xb52f
    55d9:	89 d0                	mov    %edx,%eax
    55db:	c1 e8 10             	shr    $0x10,%eax
    55de:	a2 2c b5 00 00       	mov    %al,0xb52c
    55e3:	66 89 15 2a b5 00 00 	mov    %dx,0xb52a
    55ea:	ba a8 b5 00 00       	mov    $0xb5a8,%edx
    55ef:	89 d0                	mov    %edx,%eax
    55f1:	c1 e8 18             	shr    $0x18,%eax
    55f4:	a2 37 b5 00 00       	mov    %al,0xb537
    55f9:	89 d0                	mov    %edx,%eax
    55fb:	c1 e8 10             	shr    $0x10,%eax
    55fe:	a2 34 b5 00 00       	mov    %al,0xb534
    5603:	66 89 15 32 b5 00 00 	mov    %dx,0xb532
    560a:	83 ec 04             	sub    $0x4,%esp
    560d:	6a 40                	push   $0x40
    560f:	68 00 b5 00 00       	push   $0xb500
    5614:	68 00 b0 00 00       	push   $0xb000
    5619:	e8 42 3a 00 00       	call   9060 <blkcopy>
    561e:	c7 05 80 8f 01 00 fc 	movl   $0x3ffffc,0x18f80
    5625:	ff 3f 00 
    5628:	8b 5d fc             	mov    0xfffffffc(%ebp),%ebx
    562b:	c9                   	leave  
    562c:	c3                   	ret    

0000562d <init8259>:
    562d:	55                   	push   %ebp
    562e:	89 e5                	mov    %esp,%ebp
    5630:	83 ec 10             	sub    $0x10,%esp
    5633:	6a 11                	push   $0x11
    5635:	6a 20                	push   $0x20
    5637:	e8 69 aa ff ff       	call   a5 <outb>
    563c:	83 c4 08             	add    $0x8,%esp
    563f:	6a 20                	push   $0x20
    5641:	6a 21                	push   $0x21
    5643:	e8 5d aa ff ff       	call   a5 <outb>
    5648:	83 c4 08             	add    $0x8,%esp
    564b:	6a 04                	push   $0x4
    564d:	6a 21                	push   $0x21
    564f:	e8 51 aa ff ff       	call   a5 <outb>
    5654:	83 c4 08             	add    $0x8,%esp
    5657:	6a 01                	push   $0x1
    5659:	6a 21                	push   $0x21
    565b:	e8 45 aa ff ff       	call   a5 <outb>
    5660:	83 c4 08             	add    $0x8,%esp
    5663:	6a 0b                	push   $0xb
    5665:	6a 20                	push   $0x20
    5667:	e8 39 aa ff ff       	call   a5 <outb>
    566c:	83 c4 08             	add    $0x8,%esp
    566f:	6a 11                	push   $0x11
    5671:	68 a0 00 00 00       	push   $0xa0
    5676:	e8 2a aa ff ff       	call   a5 <outb>
    567b:	83 c4 08             	add    $0x8,%esp
    567e:	6a 28                	push   $0x28
    5680:	68 a1 00 00 00       	push   $0xa1
    5685:	e8 1b aa ff ff       	call   a5 <outb>
    568a:	83 c4 08             	add    $0x8,%esp
    568d:	6a 02                	push   $0x2
    568f:	68 a1 00 00 00       	push   $0xa1
    5694:	e8 0c aa ff ff       	call   a5 <outb>
    5699:	83 c4 08             	add    $0x8,%esp
    569c:	6a 0b                	push   $0xb
    569e:	68 a1 00 00 00       	push   $0xa1
    56a3:	e8 fd a9 ff ff       	call   a5 <outb>
    56a8:	83 c4 08             	add    $0x8,%esp
    56ab:	6a 0b                	push   $0xb
    56ad:	68 a0 00 00 00       	push   $0xa0
    56b2:	e8 ee a9 ff ff       	call   a5 <outb>
    56b7:	8d 45 fe             	lea    0xfffffffe(%ebp),%eax
    56ba:	89 04 24             	mov    %eax,(%esp)
    56bd:	e8 fa b0 ff ff       	call   7bc <disable>
    56c2:	c9                   	leave  
    56c3:	c3                   	ret    

000056c4 <pseg>:
    56c4:	55                   	push   %ebp
    56c5:	89 e5                	mov    %esp,%ebp
    56c7:	57                   	push   %edi
    56c8:	56                   	push   %esi
    56c9:	53                   	push   %ebx
    56ca:	83 ec 14             	sub    $0x14,%esp
    56cd:	8b 7d 08             	mov    0x8(%ebp),%edi
    56d0:	57                   	push   %edi
    56d1:	68 c7 a3 00 00       	push   $0xa3c7
    56d6:	e8 8d 03 00 00       	call   5a68 <kprintf>
    56db:	83 c4 08             	add    $0x8,%esp
    56de:	b8 00 00 00 00       	mov    $0x0,%eax
    56e3:	8a 07                	mov    (%edi),%al
    56e5:	50                   	push   %eax
    56e6:	8d 5f 01             	lea    0x1(%edi),%ebx
    56e9:	68 d2 a3 00 00       	push   $0xa3d2
    56ee:	e8 75 03 00 00       	call   5a68 <kprintf>
    56f3:	be 01 00 00 00       	mov    $0x1,%esi
    56f8:	83 c4 10             	add    $0x10,%esp
    56fb:	83 ec 08             	sub    $0x8,%esp
    56fe:	53                   	push   %ebx
    56ff:	68 de a3 00 00       	push   $0xa3de
    5704:	e8 5f 03 00 00       	call   5a68 <kprintf>
    5709:	83 c4 08             	add    $0x8,%esp
    570c:	b8 00 00 00 00       	mov    $0x0,%eax
    5711:	8a 03                	mov    (%ebx),%al
    5713:	50                   	push   %eax
    5714:	43                   	inc    %ebx
    5715:	68 d8 a3 00 00       	push   $0xa3d8
    571a:	e8 49 03 00 00       	call   5a68 <kprintf>
    571f:	83 c4 10             	add    $0x10,%esp
    5722:	46                   	inc    %esi
    5723:	83 fe 07             	cmp    $0x7,%esi
    5726:	7e d3                	jle    56fb <pseg+0x37>
    5728:	b9 00 00 00 00       	mov    $0x0,%ecx
    572d:	8a 4f 06             	mov    0x6(%edi),%cl
    5730:	83 e1 0f             	and    $0xf,%ecx
    5733:	c1 e1 10             	shl    $0x10,%ecx
    5736:	66 8b 07             	mov    (%edi),%ax
    5739:	25 ff ff 00 00       	and    $0xffff,%eax
    573e:	09 c1                	or     %eax,%ecx
    5740:	ba 00 00 00 00       	mov    $0x0,%edx
    5745:	8a 57 07             	mov    0x7(%edi),%dl
    5748:	c1 e2 18             	shl    $0x18,%edx
    574b:	b8 00 00 00 00       	mov    $0x0,%eax
    5750:	8a 47 04             	mov    0x4(%edi),%al
    5753:	c1 e0 10             	shl    $0x10,%eax
    5756:	09 c2                	or     %eax,%edx
    5758:	66 8b 47 02          	mov    0x2(%edi),%ax
    575c:	25 ff ff 00 00       	and    $0xffff,%eax
    5761:	09 c2                	or     %eax,%edx
    5763:	b8 00 00 00 00       	mov    $0x0,%eax
    5768:	8a 47 05             	mov    0x5(%edi),%al
    576b:	83 e0 07             	and    $0x7,%eax
    576e:	50                   	push   %eax
    576f:	51                   	push   %ecx
    5770:	52                   	push   %edx
    5771:	68 fc a3 00 00       	push   $0xa3fc
    5776:	e8 ed 02 00 00       	call   5a68 <kprintf>
    577b:	83 c4 08             	add    $0x8,%esp
    577e:	8a 47 06             	mov    0x6(%edi),%al
    5781:	c0 e8 04             	shr    $0x4,%al
    5784:	83 e0 01             	and    $0x1,%eax
    5787:	50                   	push   %eax
    5788:	8a 57 05             	mov    0x5(%edi),%dl
    578b:	88 d0                	mov    %dl,%al
    578d:	c0 e8 07             	shr    $0x7,%al
    5790:	25 ff 00 00 00       	and    $0xff,%eax
    5795:	50                   	push   %eax
    5796:	88 d0                	mov    %dl,%al
    5798:	c0 e8 05             	shr    $0x5,%al
    579b:	83 e0 03             	and    $0x3,%eax
    579e:	50                   	push   %eax
    579f:	88 d0                	mov    %dl,%al
    57a1:	c0 e8 04             	shr    $0x4,%al
    57a4:	83 e0 01             	and    $0x1,%eax
    57a7:	50                   	push   %eax
    57a8:	c0 ea 03             	shr    $0x3,%dl
    57ab:	83 e2 01             	and    $0x1,%edx
    57ae:	52                   	push   %edx
    57af:	68 24 a4 00 00       	push   $0xa424
    57b4:	e8 af 02 00 00       	call   5a68 <kprintf>
    57b9:	83 c4 20             	add    $0x20,%esp
    57bc:	8a 57 06             	mov    0x6(%edi),%dl
    57bf:	88 d0                	mov    %dl,%al
    57c1:	c0 e8 07             	shr    $0x7,%al
    57c4:	25 ff 00 00 00       	and    $0xff,%eax
    57c9:	50                   	push   %eax
    57ca:	88 d0                	mov    %dl,%al
    57cc:	c0 e8 06             	shr    $0x6,%al
    57cf:	83 e0 01             	and    $0x1,%eax
    57d2:	50                   	push   %eax
    57d3:	c0 ea 05             	shr    $0x5,%dl
    57d6:	83 e2 01             	and    $0x1,%edx
    57d9:	52                   	push   %edx
    57da:	68 e4 a3 00 00       	push   $0xa3e4
    57df:	e8 84 02 00 00       	call   5a68 <kprintf>
    57e4:	8d 65 f4             	lea    0xfffffff4(%ebp),%esp
    57e7:	5b                   	pop    %ebx
    57e8:	5e                   	pop    %esi
    57e9:	5f                   	pop    %edi
    57ea:	5d                   	pop    %ebp
    57eb:	c3                   	ret    

000057ec <init_dev>:
    57ec:	55                   	push   %ebp
    57ed:	89 e5                	mov    %esp,%ebp
    57ef:	83 ec 08             	sub    $0x8,%esp
    57f2:	8b 55 08             	mov    0x8(%ebp),%edx
    57f5:	b8 ff ff ff ff       	mov    $0xffffffff,%eax
    57fa:	83 fa 05             	cmp    $0x5,%edx
    57fd:	77 11                	ja     5810 <init_dev+0x24>
    57ff:	8d 04 d2             	lea    (%edx,%edx,8),%eax
    5802:	8d 04 c5 e0 b2 00 00 	lea    0xb2e0(,%eax,8),%eax
    5809:	83 ec 0c             	sub    $0xc,%esp
    580c:	50                   	push   %eax
    580d:	ff 50 08             	call   *0x8(%eax)
    5810:	c9                   	leave  
    5811:	c3                   	ret    
    5812:	90                   	nop    
    5813:	90                   	nop    

00005814 <insert>:
    5814:	55                   	push   %ebp
    5815:	89 e5                	mov    %esp,%ebp
    5817:	56                   	push   %esi
    5818:	53                   	push   %ebx
    5819:	8b 75 08             	mov    0x8(%ebp),%esi
    581c:	8b 45 0c             	mov    0xc(%ebp),%eax
    581f:	8b 5d 10             	mov    0x10(%ebp),%ebx
    5822:	8d 04 40             	lea    (%eax,%eax,2),%eax
    5825:	8b 14 85 84 7f 01 00 	mov    0x17f84(,%eax,4),%edx
    582c:	8d 04 12             	lea    (%edx,%edx,1),%eax
    582f:	89 c1                	mov    %eax,%ecx
    5831:	01 d0                	add    %edx,%eax
    5833:	39 1c 85 80 7f 01 00 	cmp    %ebx,0x17f80(,%eax,4)
    583a:	7d 19                	jge    5855 <insert+0x41>
    583c:	8d 04 11             	lea    (%ecx,%edx,1),%eax
    583f:	8b 14 85 84 7f 01 00 	mov    0x17f84(,%eax,4),%edx
    5846:	8d 0c 12             	lea    (%edx,%edx,1),%ecx
    5849:	8d 04 11             	lea    (%ecx,%edx,1),%eax
    584c:	39 1c 85 80 7f 01 00 	cmp    %ebx,0x17f80(,%eax,4)
    5853:	7c e7                	jl     583c <insert+0x28>
    5855:	8d 04 76             	lea    (%esi,%esi,2),%eax
    5858:	c1 e0 02             	shl    $0x2,%eax
    585b:	89 90 84 7f 01 00    	mov    %edx,0x17f84(%eax)
    5861:	8d 0c 52             	lea    (%edx,%edx,2),%ecx
    5864:	c1 e1 02             	shl    $0x2,%ecx
    5867:	8b 91 88 7f 01 00    	mov    0x17f88(%ecx),%edx
    586d:	89 90 88 7f 01 00    	mov    %edx,0x17f88(%eax)
    5873:	89 98 80 7f 01 00    	mov    %ebx,0x17f80(%eax)
    5879:	8d 14 52             	lea    (%edx,%edx,2),%edx
    587c:	89 34 95 84 7f 01 00 	mov    %esi,0x17f84(,%edx,4)
    5883:	89 b1 88 7f 01 00    	mov    %esi,0x17f88(%ecx)
    5889:	b8 01 00 00 00       	mov    $0x1,%eax
    588e:	5b                   	pop    %ebx
    588f:	5e                   	pop    %esi
    5890:	5d                   	pop    %ebp
    5891:	c3                   	ret    
    5892:	90                   	nop    
    5893:	90                   	nop    

00005894 <insertd>:
    5894:	55                   	push   %ebp
    5895:	89 e5                	mov    %esp,%ebp
    5897:	57                   	push   %edi
    5898:	56                   	push   %esi
    5899:	53                   	push   %ebx
    589a:	8b 7d 08             	mov    0x8(%ebp),%edi
    589d:	8b 5d 10             	mov    0x10(%ebp),%ebx
    58a0:	8b 75 0c             	mov    0xc(%ebp),%esi
    58a3:	8d 04 76             	lea    (%esi,%esi,2),%eax
    58a6:	8b 14 85 84 7f 01 00 	mov    0x17f84(,%eax,4),%edx
    58ad:	8d 04 12             	lea    (%edx,%edx,1),%eax
    58b0:	89 c1                	mov    %eax,%ecx
    58b2:	01 d0                	add    %edx,%eax
    58b4:	39 1c 85 80 7f 01 00 	cmp    %ebx,0x17f80(,%eax,4)
    58bb:	7d 23                	jge    58e0 <insertd+0x4c>
    58bd:	8d 04 11             	lea    (%ecx,%edx,1),%eax
    58c0:	c1 e0 02             	shl    $0x2,%eax
    58c3:	2b 98 80 7f 01 00    	sub    0x17f80(%eax),%ebx
    58c9:	89 d6                	mov    %edx,%esi
    58cb:	8b 90 84 7f 01 00    	mov    0x17f84(%eax),%edx
    58d1:	8d 0c 12             	lea    (%edx,%edx,1),%ecx
    58d4:	8d 04 11             	lea    (%ecx,%edx,1),%eax
    58d7:	39 1c 85 80 7f 01 00 	cmp    %ebx,0x17f80(,%eax,4)
    58de:	7c dd                	jl     58bd <insertd+0x29>
    58e0:	8d 04 7f             	lea    (%edi,%edi,2),%eax
    58e3:	c1 e0 02             	shl    $0x2,%eax
    58e6:	89 90 84 7f 01 00    	mov    %edx,0x17f84(%eax)
    58ec:	89 b0 88 7f 01 00    	mov    %esi,0x17f88(%eax)
    58f2:	89 98 80 7f 01 00    	mov    %ebx,0x17f80(%eax)
    58f8:	8d 04 76             	lea    (%esi,%esi,2),%eax
    58fb:	89 3c 85 84 7f 01 00 	mov    %edi,0x17f84(,%eax,4)
    5902:	8d 04 52             	lea    (%edx,%edx,2),%eax
    5905:	c1 e0 02             	shl    $0x2,%eax
    5908:	89 b8 88 7f 01 00    	mov    %edi,0x17f88(%eax)
    590e:	83 fa 31             	cmp    $0x31,%edx
    5911:	7f 06                	jg     5919 <insertd+0x85>
    5913:	29 98 80 7f 01 00    	sub    %ebx,0x17f80(%eax)
    5919:	b8 01 00 00 00       	mov    $0x1,%eax
    591e:	5b                   	pop    %ebx
    591f:	5e                   	pop    %esi
    5920:	5f                   	pop    %edi
    5921:	5d                   	pop    %ebp
    5922:	c3                   	ret    
    5923:	90                   	nop    

00005924 <ioerr>:
    5924:	55                   	push   %ebp
    5925:	89 e5                	mov    %esp,%ebp
    5927:	b8 ff ff ff ff       	mov    $0xffffffff,%eax
    592c:	5d                   	pop    %ebp
    592d:	c3                   	ret    
    592e:	90                   	nop    
    592f:	90                   	nop    

00005930 <ionull>:
    5930:	55                   	push   %ebp
    5931:	89 e5                	mov    %esp,%ebp
    5933:	b8 01 00 00 00       	mov    $0x1,%eax
    5938:	5d                   	pop    %ebp
    5939:	c3                   	ret    
    593a:	90                   	nop    
    593b:	90                   	nop    

0000593c <kill>:
    593c:	55                   	push   %ebp
    593d:	89 e5                	mov    %esp,%ebp
    593f:	56                   	push   %esi
    5940:	53                   	push   %ebx
    5941:	83 ec 1c             	sub    $0x1c,%esp
    5944:	8b 75 08             	mov    0x8(%ebp),%esi
    5947:	8d 45 f6             	lea    0xfffffff6(%ebp),%eax
    594a:	50                   	push   %eax
    594b:	e8 6c ae ff ff       	call   7bc <disable>
    5950:	8d 46 ff             	lea    0xffffffff(%esi),%eax
    5953:	83 c4 10             	add    $0x10,%esp
    5956:	83 f8 30             	cmp    $0x30,%eax
    5959:	77 1a                	ja     5975 <kill+0x39>
    595b:	8d 04 76             	lea    (%esi,%esi,2),%eax
    595e:	c1 e0 04             	shl    $0x4,%eax
    5961:	01 f0                	add    %esi,%eax
    5963:	c1 e0 02             	shl    $0x2,%eax
    5966:	8d 98 00 c9 00 00    	lea    0xc900(%eax),%ebx
    596c:	80 b8 00 c9 00 00 02 	cmpb   $0x2,0xc900(%eax)
    5973:	75 16                	jne    598b <kill+0x4f>
    5975:	83 ec 0c             	sub    $0xc,%esp
    5978:	8d 45 f6             	lea    0xfffffff6(%ebp),%eax
    597b:	50                   	push   %eax
    597c:	e8 63 ae ff ff       	call   7e4 <restore>
    5981:	b8 ff ff ff ff       	mov    $0xffffffff,%eax
    5986:	e9 d3 00 00 00       	jmp    5a5e <kill+0x122>
    598b:	ff 0d e0 c8 00 00    	decl   0xc8e0
    5991:	83 3d e0 c8 00 00 00 	cmpl   $0x0,0xc8e0
    5998:	75 05                	jne    599f <kill+0x63>
    599a:	e8 6d 12 00 00       	call   6c0c <xdone>
    599f:	0f bf 43 46          	movswl 0x46(%ebx),%eax
    59a3:	83 f8 05             	cmp    $0x5,%eax
    59a6:	77 0c                	ja     59b4 <kill+0x78>
    59a8:	83 ec 0c             	sub    $0xc,%esp
    59ab:	50                   	push   %eax
    59ac:	e8 67 ec ff ff       	call   4618 <close>
    59b1:	83 c4 10             	add    $0x10,%esp
    59b4:	0f bf 43 48          	movswl 0x48(%ebx),%eax
    59b8:	83 f8 05             	cmp    $0x5,%eax
    59bb:	77 0c                	ja     59c9 <kill+0x8d>
    59bd:	83 ec 0c             	sub    $0xc,%esp
    59c0:	50                   	push   %eax
    59c1:	e8 52 ec ff ff       	call   4618 <close>
    59c6:	83 c4 10             	add    $0x10,%esp
    59c9:	8b 83 9c 00 00 00    	mov    0x9c(%ebx),%eax
    59cf:	83 f8 05             	cmp    $0x5,%eax
    59d2:	77 0c                	ja     59e0 <kill+0xa4>
    59d4:	83 ec 0c             	sub    $0xc,%esp
    59d7:	50                   	push   %eax
    59d8:	e8 3b ec ff ff       	call   4618 <close>
    59dd:	83 c4 10             	add    $0x10,%esp
    59e0:	83 ec 08             	sub    $0x8,%esp
    59e3:	56                   	push   %esi
    59e4:	ff 73 40             	pushl  0x40(%ebx)
    59e7:	e8 b8 09 00 00       	call   63a4 <send>
    59ec:	83 c4 08             	add    $0x8,%esp
    59ef:	8b 53 20             	mov    0x20(%ebx),%edx
    59f2:	83 c2 07             	add    $0x7,%edx
    59f5:	83 e2 f8             	and    $0xfffffff8,%edx
    59f8:	52                   	push   %edx
    59f9:	8b 43 1c             	mov    0x1c(%ebx),%eax
    59fc:	29 d0                	sub    %edx,%eax
    59fe:	83 c0 04             	add    $0x4,%eax
    5a01:	50                   	push   %eax
    5a02:	e8 99 f1 ff ff       	call   4ba0 <freemem>
    5a07:	83 c4 10             	add    $0x10,%esp
    5a0a:	0f be 03             	movsbl (%ebx),%eax
    5a0d:	83 f8 08             	cmp    $0x8,%eax
    5a10:	77 38                	ja     5a4a <kill+0x10e>
    5a12:	ff 24 85 54 a4 00 00 	jmp    *0xa454(,%eax,4)
    5a19:	c6 03 02             	movb   $0x2,(%ebx)
    5a1c:	e8 47 06 00 00       	call   6068 <resched>
    5a21:	8b 43 10             	mov    0x10(%ebx),%eax
    5a24:	c1 e0 04             	shl    $0x4,%eax
    5a27:	ff 80 64 ef 00 00    	incl   0xef64(%eax)
    5a2d:	83 ec 0c             	sub    $0xc,%esp
    5a30:	56                   	push   %esi
    5a31:	e8 fc 03 00 00       	call   5e32 <dequeue>
    5a36:	c6 03 02             	movb   $0x2,(%ebx)
    5a39:	83 c4 10             	add    $0x10,%esp
    5a3c:	eb 0f                	jmp    5a4d <kill+0x111>
    5a3e:	83 ec 0c             	sub    $0xc,%esp
    5a41:	56                   	push   %esi
    5a42:	e8 75 0f 00 00       	call   69bc <unsleep>
    5a47:	83 c4 10             	add    $0x10,%esp
    5a4a:	c6 03 02             	movb   $0x2,(%ebx)
    5a4d:	83 ec 0c             	sub    $0xc,%esp
    5a50:	8d 45 f6             	lea    0xfffffff6(%ebp),%eax
    5a53:	50                   	push   %eax
    5a54:	e8 8b ad ff ff       	call   7e4 <restore>
    5a59:	b8 01 00 00 00       	mov    $0x1,%eax
    5a5e:	8d 65 f8             	lea    0xfffffff8(%ebp),%esp
    5a61:	5b                   	pop    %ebx
    5a62:	5e                   	pop    %esi
    5a63:	5d                   	pop    %ebp
    5a64:	c3                   	ret    
    5a65:	90                   	nop    
    5a66:	90                   	nop    
    5a67:	90                   	nop    

00005a68 <kprintf>:
    5a68:	55                   	push   %ebp
    5a69:	89 e5                	mov    %esp,%ebp
    5a6b:	83 ec 14             	sub    $0x14,%esp
    5a6e:	8d 45 fe             	lea    0xfffffffe(%ebp),%eax
    5a71:	50                   	push   %eax
    5a72:	e8 45 ad ff ff       	call   7bc <disable>
    5a77:	6a 00                	push   $0x0
    5a79:	68 a0 5a 00 00       	push   $0x5aa0
    5a7e:	8d 45 0c             	lea    0xc(%ebp),%eax
    5a81:	50                   	push   %eax
    5a82:	ff 75 08             	pushl  0x8(%ebp)
    5a85:	e8 1a 36 00 00       	call   90a4 <_doprnt>
    5a8a:	83 c4 14             	add    $0x14,%esp
    5a8d:	8d 45 fe             	lea    0xfffffffe(%ebp),%eax
    5a90:	50                   	push   %eax
    5a91:	e8 4e ad ff ff       	call   7e4 <restore>
    5a96:	b8 01 00 00 00       	mov    $0x1,%eax
    5a9b:	c9                   	leave  
    5a9c:	c3                   	ret    
    5a9d:	90                   	nop    
    5a9e:	90                   	nop    
    5a9f:	90                   	nop    

00005aa0 <kputc>:
    5aa0:	55                   	push   %ebp
    5aa1:	89 e5                	mov    %esp,%ebp
    5aa3:	83 ec 10             	sub    $0x10,%esp
    5aa6:	b8 00 00 00 00       	mov    $0x0,%eax
    5aab:	8a 45 0c             	mov    0xc(%ebp),%al
    5aae:	50                   	push   %eax
    5aaf:	a1 68 7f 01 00       	mov    0x17f68,%eax
    5ab4:	8d 04 c0             	lea    (%eax,%eax,8),%eax
    5ab7:	8d 04 c5 e0 b2 00 00 	lea    0xb2e0(,%eax,8),%eax
    5abe:	50                   	push   %eax
    5abf:	e8 99 b3 ff ff       	call   e5d <comsputc>
    5ac4:	b8 01 00 00 00       	mov    $0x1,%eax
    5ac9:	c9                   	leave  
    5aca:	c3                   	ret    
    5acb:	90                   	nop    

00005acc <_mkinit>:
    5acc:	55                   	push   %ebp
    5acd:	89 e5                	mov    %esp,%ebp
    5acf:	83 ec 14             	sub    $0x14,%esp
    5ad2:	6a 01                	push   $0x1
    5ad4:	e8 6b 07 00 00       	call   6244 <screate>
    5ad9:	a3 f4 8f 01 00       	mov    %eax,0x18ff4
    5ade:	c7 05 f0 8f 01 00 00 	movl   $0x0,0x18ff0
    5ae5:	00 00 00 
    5ae8:	b8 01 00 00 00       	mov    $0x1,%eax
    5aed:	c9                   	leave  
    5aee:	c3                   	ret    

00005aef <mark>:
    5aef:	55                   	push   %ebp
    5af0:	89 e5                	mov    %esp,%ebp
    5af2:	53                   	push   %ebx
    5af3:	83 ec 04             	sub    $0x4,%esp
    5af6:	8b 5d 08             	mov    0x8(%ebp),%ebx
    5af9:	83 3b 00             	cmpl   $0x0,(%ebx)
    5afc:	78 18                	js     5b16 <mark+0x27>
    5afe:	8b 13                	mov    (%ebx),%edx
    5b00:	3b 15 f0 8f 01 00    	cmp    0x18ff0,%edx
    5b06:	7d 0e                	jge    5b16 <mark+0x27>
    5b08:	b8 00 00 00 00       	mov    $0x0,%eax
    5b0d:	39 1c 95 a0 8f 01 00 	cmp    %ebx,0x18fa0(,%edx,4)
    5b14:	74 46                	je     5b5c <mark+0x6d>
    5b16:	b8 ff ff ff ff       	mov    $0xffffffff,%eax
    5b1b:	83 3d f0 8f 01 00 13 	cmpl   $0x13,0x18ff0
    5b22:	7f 38                	jg     5b5c <mark+0x6d>
    5b24:	83 ec 0c             	sub    $0xc,%esp
    5b27:	ff 35 f4 8f 01 00    	pushl  0x18ff4
    5b2d:	e8 66 0f 00 00       	call   6a98 <wait>
    5b32:	a1 f0 8f 01 00       	mov    0x18ff0,%eax
    5b37:	8d 50 01             	lea    0x1(%eax),%edx
    5b3a:	89 15 f0 8f 01 00    	mov    %edx,0x18ff0
    5b40:	89 03                	mov    %eax,(%ebx)
    5b42:	89 1c 85 a0 8f 01 00 	mov    %ebx,0x18fa0(,%eax,4)
    5b49:	83 c4 04             	add    $0x4,%esp
    5b4c:	ff 35 f4 8f 01 00    	pushl  0x18ff4
    5b52:	e8 89 09 00 00       	call   64e0 <signal>
    5b57:	b8 01 00 00 00       	mov    $0x1,%eax
    5b5c:	8b 5d fc             	mov    0xfffffffc(%ebp),%ebx
    5b5f:	c9                   	leave  
    5b60:	c3                   	ret    
    5b61:	90                   	nop    
    5b62:	90                   	nop    
    5b63:	90                   	nop    

00005b64 <mkpool>:
    5b64:	55                   	push   %ebp
    5b65:	89 e5                	mov    %esp,%ebp
    5b67:	57                   	push   %edi
    5b68:	56                   	push   %esi
    5b69:	53                   	push   %ebx
    5b6a:	83 ec 0c             	sub    $0xc,%esp
    5b6d:	8b 75 0c             	mov    0xc(%ebp),%esi
    5b70:	83 3d 90 91 01 00 00 	cmpl   $0x0,0x19190
    5b77:	78 1a                	js     5b93 <mkpool+0x2f>
    5b79:	a1 90 91 01 00       	mov    0x19190,%eax
    5b7e:	3b 05 f0 8f 01 00    	cmp    0x18ff0,%eax
    5b84:	7d 0d                	jge    5b93 <mkpool+0x2f>
    5b86:	81 3c 85 a0 8f 01 00 	cmpl   $0x19190,0x18fa0(,%eax,4)
    5b8d:	90 91 01 00 
    5b91:	74 05                	je     5b98 <mkpool+0x34>
    5b93:	e8 dc 01 00 00       	call   5d74 <poolinit>
    5b98:	83 ec 0c             	sub    $0xc,%esp
    5b9b:	8d 45 f2             	lea    0xfffffff2(%ebp),%eax
    5b9e:	50                   	push   %eax
    5b9f:	e8 18 ac ff ff       	call   7bc <disable>
    5ba4:	8b 45 08             	mov    0x8(%ebp),%eax
    5ba7:	83 e8 02             	sub    $0x2,%eax
    5baa:	83 c4 10             	add    $0x10,%esp
    5bad:	3d fe ff 01 00       	cmp    $0x1fffe,%eax
    5bb2:	0f 97 c2             	seta   %dl
    5bb5:	85 f6                	test   %esi,%esi
    5bb7:	0f 9e c0             	setle  %al
    5bba:	09 d0                	or     %edx,%eax
    5bbc:	a8 01                	test   $0x1,%al
    5bbe:	75 2d                	jne    5bed <mkpool+0x89>
    5bc0:	81 fe 00 01 00 00    	cmp    $0x100,%esi
    5bc6:	7f 25                	jg     5bed <mkpool+0x89>
    5bc8:	83 3d 94 91 01 00 13 	cmpl   $0x13,0x19194
    5bcf:	7f 1c                	jg     5bed <mkpool+0x89>
    5bd1:	83 ec 0c             	sub    $0xc,%esp
    5bd4:	8b 45 08             	mov    0x8(%ebp),%eax
    5bd7:	83 c0 04             	add    $0x4,%eax
    5bda:	0f af c6             	imul   %esi,%eax
    5bdd:	50                   	push   %eax
    5bde:	e8 e9 f2 ff ff       	call   4ecc <getmem>
    5be3:	89 c7                	mov    %eax,%edi
    5be5:	83 c4 10             	add    $0x10,%esp
    5be8:	83 f8 ff             	cmp    $0xffffffff,%eax
    5beb:	75 13                	jne    5c00 <mkpool+0x9c>
    5bed:	83 ec 0c             	sub    $0xc,%esp
    5bf0:	8d 45 f2             	lea    0xfffffff2(%ebp),%eax
    5bf3:	50                   	push   %eax
    5bf4:	e8 eb ab ff ff       	call   7e4 <restore>
    5bf9:	b8 ff ff ff ff       	mov    $0xffffffff,%eax
    5bfe:	eb 78                	jmp    5c78 <mkpool+0x114>
    5c00:	8b 15 94 91 01 00    	mov    0x19194,%edx
    5c06:	8d 42 01             	lea    0x1(%edx),%eax
    5c09:	a3 94 91 01 00       	mov    %eax,0x19194
    5c0e:	89 55 ec             	mov    %edx,0xffffffec(%ebp)
    5c11:	8d 1c 92             	lea    (%edx,%edx,4),%ebx
    5c14:	c1 e3 02             	shl    $0x2,%ebx
    5c17:	89 b3 08 90 01 00    	mov    %esi,0x19008(%ebx)
    5c1d:	c7 83 04 90 01 00 00 	movl   $0x0,0x19004(%ebx)
    5c24:	00 00 00 
    5c27:	89 bb 0c 90 01 00    	mov    %edi,0x1900c(%ebx)
    5c2d:	8b 45 08             	mov    0x8(%ebp),%eax
    5c30:	89 83 00 90 01 00    	mov    %eax,0x19000(%ebx)
    5c36:	81 c3 00 90 01 00    	add    $0x19000,%ebx
    5c3c:	83 ec 0c             	sub    $0xc,%esp
    5c3f:	56                   	push   %esi
    5c40:	e8 ff 05 00 00       	call   6244 <screate>
    5c45:	89 43 10             	mov    %eax,0x10(%ebx)
    5c48:	83 45 08 04          	addl   $0x4,0x8(%ebp)
    5c4c:	4e                   	dec    %esi
    5c4d:	83 c4 10             	add    $0x10,%esp
    5c50:	85 f6                	test   %esi,%esi
    5c52:	7e 0f                	jle    5c63 <mkpool+0xff>
    5c54:	8b 55 08             	mov    0x8(%ebp),%edx
    5c57:	8d 04 17             	lea    (%edi,%edx,1),%eax
    5c5a:	89 07                	mov    %eax,(%edi)
    5c5c:	4e                   	dec    %esi
    5c5d:	89 c7                	mov    %eax,%edi
    5c5f:	85 f6                	test   %esi,%esi
    5c61:	7f f1                	jg     5c54 <mkpool+0xf0>
    5c63:	c7 07 00 00 00 00    	movl   $0x0,(%edi)
    5c69:	83 ec 0c             	sub    $0xc,%esp
    5c6c:	8d 45 f2             	lea    0xfffffff2(%ebp),%eax
    5c6f:	50                   	push   %eax
    5c70:	e8 6f ab ff ff       	call   7e4 <restore>
    5c75:	8b 45 ec             	mov    0xffffffec(%ebp),%eax
    5c78:	8d 65 f4             	lea    0xfffffff4(%ebp),%esp
    5c7b:	5b                   	pop    %ebx
    5c7c:	5e                   	pop    %esi
    5c7d:	5f                   	pop    %edi
    5c7e:	5d                   	pop    %ebp
    5c7f:	c3                   	ret    

00005c80 <newqueue>:
    5c80:	55                   	push   %ebp
    5c81:	89 e5                	mov    %esp,%ebp
    5c83:	57                   	push   %edi
    5c84:	56                   	push   %esi
    5c85:	53                   	push   %ebx
    5c86:	a1 a4 f5 00 00       	mov    0xf5a4,%eax
    5c8b:	8d 58 01             	lea    0x1(%eax),%ebx
    5c8e:	8d 0c 40             	lea    (%eax,%eax,2),%ecx
    5c91:	c1 e1 02             	shl    $0x2,%ecx
    5c94:	8d b9 80 7f 01 00    	lea    0x17f80(%ecx),%edi
    5c9a:	8d 50 02             	lea    0x2(%eax),%edx
    5c9d:	89 15 a4 f5 00 00    	mov    %edx,0xf5a4
    5ca3:	8d 14 5b             	lea    (%ebx,%ebx,2),%edx
    5ca6:	c1 e2 02             	shl    $0x2,%edx
    5ca9:	8d b2 80 7f 01 00    	lea    0x17f80(%edx),%esi
    5caf:	89 5f 04             	mov    %ebx,0x4(%edi)
    5cb2:	c7 47 08 ff ff ff ff 	movl   $0xffffffff,0x8(%edi)
    5cb9:	c7 81 80 7f 01 00 00 	movl   $0x80000000,0x17f80(%ecx)
    5cc0:	00 00 80 
    5cc3:	c7 46 04 ff ff ff ff 	movl   $0xffffffff,0x4(%esi)
    5cca:	89 46 08             	mov    %eax,0x8(%esi)
    5ccd:	c7 82 80 7f 01 00 ff 	movl   $0x7fffffff,0x17f80(%edx)
    5cd4:	ff ff 7f 
    5cd7:	5b                   	pop    %ebx
    5cd8:	5e                   	pop    %esi
    5cd9:	5f                   	pop    %edi
    5cda:	5d                   	pop    %ebp
    5cdb:	c3                   	ret    

00005cdc <open>:
    5cdc:	55                   	push   %ebp
    5cdd:	89 e5                	mov    %esp,%ebp
    5cdf:	83 ec 08             	sub    $0x8,%esp
    5ce2:	8b 55 08             	mov    0x8(%ebp),%edx
    5ce5:	b8 ff ff ff ff       	mov    $0xffffffff,%eax
    5cea:	83 fa 05             	cmp    $0x5,%edx
    5ced:	77 17                	ja     5d06 <open+0x2a>
    5cef:	8d 04 d2             	lea    (%edx,%edx,8),%eax
    5cf2:	8d 04 c5 e0 b2 00 00 	lea    0xb2e0(,%eax,8),%eax
    5cf9:	83 ec 04             	sub    $0x4,%esp
    5cfc:	ff 75 10             	pushl  0x10(%ebp)
    5cff:	ff 75 0c             	pushl  0xc(%ebp)
    5d02:	50                   	push   %eax
    5d03:	ff 50 0c             	call   *0xc(%eax)
    5d06:	c9                   	leave  
    5d07:	c3                   	ret    

00005d08 <panic>:
    5d08:	55                   	push   %ebp
    5d09:	89 e5                	mov    %esp,%ebp
    5d0b:	83 ec 14             	sub    $0x14,%esp
    5d0e:	8d 45 fe             	lea    0xfffffffe(%ebp),%eax
    5d11:	50                   	push   %eax
    5d12:	e8 a5 aa ff ff       	call   7bc <disable>
    5d17:	83 c4 0c             	add    $0xc,%esp
    5d1a:	8b 15 e4 c8 00 00    	mov    0xc8e4,%edx
    5d20:	8d 04 52             	lea    (%edx,%edx,2),%eax
    5d23:	c1 e0 04             	shl    $0x4,%eax
    5d26:	01 d0                	add    %edx,%eax
    5d28:	8d 04 85 28 c9 00 00 	lea    0xc928(,%eax,4),%eax
    5d2f:	50                   	push   %eax
    5d30:	52                   	push   %edx
    5d31:	68 cb a2 00 00       	push   $0xa2cb
    5d36:	e8 2d fd ff ff       	call   5a68 <kprintf>
    5d3b:	83 c4 08             	add    $0x8,%esp
    5d3e:	ff 75 08             	pushl  0x8(%ebp)
    5d41:	68 78 a4 00 00       	push   $0xa478
    5d46:	e8 1d fd ff ff       	call   5a68 <kprintf>
    5d4b:	83 c4 10             	add    $0x10,%esp
    5d4e:	83 ec 0c             	sub    $0xc,%esp
    5d51:	a1 68 7f 01 00       	mov    0x17f68,%eax
    5d56:	8d 04 c0             	lea    (%eax,%eax,8),%eax
    5d59:	66 8b 04 c5 0c b3 00 	mov    0xb30c(,%eax,8),%ax
    5d60:	00 
    5d61:	25 ff ff 00 00       	and    $0xffff,%eax
    5d66:	50                   	push   %eax
    5d67:	e8 d4 b3 ff ff       	call   1140 <monitor>
    5d6c:	83 c4 10             	add    $0x10,%esp
    5d6f:	eb dd                	jmp    5d4e <panic+0x46>
    5d71:	90                   	nop    
    5d72:	90                   	nop    
    5d73:	90                   	nop    

00005d74 <poolinit>:
    5d74:	55                   	push   %ebp
    5d75:	89 e5                	mov    %esp,%ebp
    5d77:	53                   	push   %ebx
    5d78:	83 ec 10             	sub    $0x10,%esp
    5d7b:	8d 45 fa             	lea    0xfffffffa(%ebp),%eax
    5d7e:	50                   	push   %eax
    5d7f:	e8 38 aa ff ff       	call   7bc <disable>
    5d84:	c7 04 24 90 91 01 00 	movl   $0x19190,(%esp)
    5d8b:	e8 5f fd ff ff       	call   5aef <mark>
    5d90:	89 c3                	mov    %eax,%ebx
    5d92:	83 c4 10             	add    $0x10,%esp
    5d95:	83 f8 01             	cmp    $0x1,%eax
    5d98:	75 0a                	jne    5da4 <poolinit+0x30>
    5d9a:	c7 05 94 91 01 00 00 	movl   $0x0,0x19194
    5da1:	00 00 00 
    5da4:	83 ec 0c             	sub    $0xc,%esp
    5da7:	8d 45 fa             	lea    0xfffffffa(%ebp),%eax
    5daa:	50                   	push   %eax
    5dab:	e8 34 aa ff ff       	call   7e4 <restore>
    5db0:	83 c4 10             	add    $0x10,%esp
    5db3:	83 fb 01             	cmp    $0x1,%ebx
    5db6:	0f 94 c0             	sete   %al
    5db9:	25 ff 00 00 00       	and    $0xff,%eax
    5dbe:	8d 44 00 ff          	lea    0xffffffff(%eax,%eax,1),%eax
    5dc2:	8b 5d fc             	mov    0xfffffffc(%ebp),%ebx
    5dc5:	c9                   	leave  
    5dc6:	c3                   	ret    
    5dc7:	90                   	nop    

00005dc8 <putc>:
    5dc8:	55                   	push   %ebp
    5dc9:	89 e5                	mov    %esp,%ebp
    5dcb:	83 ec 08             	sub    $0x8,%esp
    5dce:	8b 55 08             	mov    0x8(%ebp),%edx
    5dd1:	8a 4d 0c             	mov    0xc(%ebp),%cl
    5dd4:	b8 ff ff ff ff       	mov    $0xffffffff,%eax
    5dd9:	83 fa 05             	cmp    $0x5,%edx
    5ddc:	77 15                	ja     5df3 <putc+0x2b>
    5dde:	8d 14 d2             	lea    (%edx,%edx,8),%edx
    5de1:	8d 14 d5 e0 b2 00 00 	lea    0xb2e0(,%edx,8),%edx
    5de8:	83 ec 08             	sub    $0x8,%esp
    5deb:	0f be c1             	movsbl %cl,%eax
    5dee:	50                   	push   %eax
    5def:	52                   	push   %edx
    5df0:	ff 52 24             	call   *0x24(%edx)
    5df3:	c9                   	leave  
    5df4:	c3                   	ret    
    5df5:	90                   	nop    
    5df6:	90                   	nop    
    5df7:	90                   	nop    

00005df8 <enqueue>:
    5df8:	55                   	push   %ebp
    5df9:	89 e5                	mov    %esp,%ebp
    5dfb:	53                   	push   %ebx
    5dfc:	8b 45 08             	mov    0x8(%ebp),%eax
    5dff:	8b 4d 0c             	mov    0xc(%ebp),%ecx
    5e02:	8d 1c 49             	lea    (%ecx,%ecx,2),%ebx
    5e05:	8d 1c 9d 80 7f 01 00 	lea    0x17f80(,%ebx,4),%ebx
    5e0c:	8d 14 40             	lea    (%eax,%eax,2),%edx
    5e0f:	8d 14 95 80 7f 01 00 	lea    0x17f80(,%edx,4),%edx
    5e16:	89 4a 04             	mov    %ecx,0x4(%edx)
    5e19:	8b 4b 08             	mov    0x8(%ebx),%ecx
    5e1c:	89 4a 08             	mov    %ecx,0x8(%edx)
    5e1f:	8b 53 08             	mov    0x8(%ebx),%edx
    5e22:	8d 14 52             	lea    (%edx,%edx,2),%edx
    5e25:	89 04 95 84 7f 01 00 	mov    %eax,0x17f84(,%edx,4)
    5e2c:	89 43 08             	mov    %eax,0x8(%ebx)
    5e2f:	5b                   	pop    %ebx
    5e30:	5d                   	pop    %ebp
    5e31:	c3                   	ret    

00005e32 <dequeue>:
    5e32:	55                   	push   %ebp
    5e33:	89 e5                	mov    %esp,%ebp
    5e35:	56                   	push   %esi
    5e36:	53                   	push   %ebx
    5e37:	8b 45 08             	mov    0x8(%ebp),%eax
    5e3a:	8d 14 40             	lea    (%eax,%eax,2),%edx
    5e3d:	8d 14 95 80 7f 01 00 	lea    0x17f80(,%edx,4),%edx
    5e44:	8b 5a 08             	mov    0x8(%edx),%ebx
    5e47:	8d 34 5b             	lea    (%ebx,%ebx,2),%esi
    5e4a:	8b 4a 04             	mov    0x4(%edx),%ecx
    5e4d:	89 0c b5 84 7f 01 00 	mov    %ecx,0x17f84(,%esi,4)
    5e54:	8b 52 04             	mov    0x4(%edx),%edx
    5e57:	8d 14 52             	lea    (%edx,%edx,2),%edx
    5e5a:	89 1c 95 88 7f 01 00 	mov    %ebx,0x17f88(,%edx,4)
    5e61:	5b                   	pop    %ebx
    5e62:	5e                   	pop    %esi
    5e63:	5d                   	pop    %ebp
    5e64:	c3                   	ret    
    5e65:	90                   	nop    
    5e66:	90                   	nop    
    5e67:	90                   	nop    

00005e68 <read>:
    5e68:	55                   	push   %ebp
    5e69:	89 e5                	mov    %esp,%ebp
    5e6b:	83 ec 08             	sub    $0x8,%esp
    5e6e:	8b 55 08             	mov    0x8(%ebp),%edx
    5e71:	b8 ff ff ff ff       	mov    $0xffffffff,%eax
    5e76:	83 fa 05             	cmp    $0x5,%edx
    5e79:	77 17                	ja     5e92 <read+0x2a>
    5e7b:	8d 04 d2             	lea    (%edx,%edx,8),%eax
    5e7e:	8d 04 c5 e0 b2 00 00 	lea    0xb2e0(,%eax,8),%eax
    5e85:	83 ec 04             	sub    $0x4,%esp
    5e88:	ff 75 10             	pushl  0x10(%ebp)
    5e8b:	ff 75 0c             	pushl  0xc(%ebp)
    5e8e:	50                   	push   %eax
    5e8f:	ff 50 14             	call   *0x14(%eax)
    5e92:	c9                   	leave  
    5e93:	c3                   	ret    

00005e94 <ready>:
    5e94:	55                   	push   %ebp
    5e95:	89 e5                	mov    %esp,%ebp
    5e97:	83 ec 08             	sub    $0x8,%esp
    5e9a:	8b 55 08             	mov    0x8(%ebp),%edx
    5e9d:	8d 42 ff             	lea    0xffffffff(%edx),%eax
    5ea0:	b9 ff ff ff ff       	mov    $0xffffffff,%ecx
    5ea5:	83 f8 30             	cmp    $0x30,%eax
    5ea8:	77 3a                	ja     5ee4 <ready+0x50>
    5eaa:	8d 04 52             	lea    (%edx,%edx,2),%eax
    5ead:	c1 e0 04             	shl    $0x4,%eax
    5eb0:	01 d0                	add    %edx,%eax
    5eb2:	c1 e0 02             	shl    $0x2,%eax
    5eb5:	c6 80 00 c9 00 00 03 	movb   $0x3,0xc900(%eax)
    5ebc:	83 ec 04             	sub    $0x4,%esp
    5ebf:	ff b0 04 c9 00 00    	pushl  0xc904(%eax)
    5ec5:	ff 35 64 7f 01 00    	pushl  0x17f64
    5ecb:	52                   	push   %edx
    5ecc:	e8 43 f9 ff ff       	call   5814 <insert>
    5ed1:	83 c4 10             	add    $0x10,%esp
    5ed4:	83 7d 0c 00          	cmpl   $0x0,0xc(%ebp)
    5ed8:	74 05                	je     5edf <ready+0x4b>
    5eda:	e8 89 01 00 00       	call   6068 <resched>
    5edf:	b9 01 00 00 00       	mov    $0x1,%ecx
    5ee4:	89 c8                	mov    %ecx,%eax
    5ee6:	c9                   	leave  
    5ee7:	c3                   	ret    

00005ee8 <receive>:
    5ee8:	55                   	push   %ebp
    5ee9:	89 e5                	mov    %esp,%ebp
    5eeb:	56                   	push   %esi
    5eec:	53                   	push   %ebx
    5eed:	83 ec 1c             	sub    $0x1c,%esp
    5ef0:	8d 45 f6             	lea    0xfffffff6(%ebp),%eax
    5ef3:	50                   	push   %eax
    5ef4:	e8 c3 a8 ff ff       	call   7bc <disable>
    5ef9:	8b 15 e4 c8 00 00    	mov    0xc8e4,%edx
    5eff:	8d 04 52             	lea    (%edx,%edx,2),%eax
    5f02:	c1 e0 04             	shl    $0x4,%eax
    5f05:	01 d0                	add    %edx,%eax
    5f07:	c1 e0 02             	shl    $0x2,%eax
    5f0a:	8d b0 00 c9 00 00    	lea    0xc900(%eax),%esi
    5f10:	83 c4 10             	add    $0x10,%esp
    5f13:	80 7e 18 00          	cmpb   $0x0,0x18(%esi)
    5f17:	75 0c                	jne    5f25 <receive+0x3d>
    5f19:	c6 80 00 c9 00 00 04 	movb   $0x4,0xc900(%eax)
    5f20:	e8 43 01 00 00       	call   6068 <resched>
    5f25:	8b 5e 14             	mov    0x14(%esi),%ebx
    5f28:	c6 46 18 00          	movb   $0x0,0x18(%esi)
    5f2c:	83 ec 0c             	sub    $0xc,%esp
    5f2f:	8d 45 f6             	lea    0xfffffff6(%ebp),%eax
    5f32:	50                   	push   %eax
    5f33:	e8 ac a8 ff ff       	call   7e4 <restore>
    5f38:	89 d8                	mov    %ebx,%eax
    5f3a:	8d 65 f8             	lea    0xfffffff8(%ebp),%esp
    5f3d:	5b                   	pop    %ebx
    5f3e:	5e                   	pop    %esi
    5f3f:	5d                   	pop    %ebp
    5f40:	c3                   	ret    
    5f41:	90                   	nop    
    5f42:	90                   	nop    
    5f43:	90                   	nop    

00005f44 <recvclr>:
    5f44:	55                   	push   %ebp
    5f45:	89 e5                	mov    %esp,%ebp
    5f47:	53                   	push   %ebx
    5f48:	83 ec 10             	sub    $0x10,%esp
    5f4b:	8d 45 fa             	lea    0xfffffffa(%ebp),%eax
    5f4e:	50                   	push   %eax
    5f4f:	e8 68 a8 ff ff       	call   7bc <disable>
    5f54:	8b 15 e4 c8 00 00    	mov    0xc8e4,%edx
    5f5a:	b9 10 c9 00 00       	mov    $0xc910,%ecx
    5f5f:	8d 04 52             	lea    (%edx,%edx,2),%eax
    5f62:	c1 e0 04             	shl    $0x4,%eax
    5f65:	01 d0                	add    %edx,%eax
    5f67:	c1 e0 02             	shl    $0x2,%eax
    5f6a:	83 c4 10             	add    $0x10,%esp
    5f6d:	bb 01 00 00 00       	mov    $0x1,%ebx
    5f72:	80 7c 08 08 00       	cmpb   $0x0,0x8(%eax,%ecx,1)
    5f77:	74 0b                	je     5f84 <recvclr+0x40>
    5f79:	c6 44 08 08 00       	movb   $0x0,0x8(%eax,%ecx,1)
    5f7e:	8b 98 14 c9 00 00    	mov    0xc914(%eax),%ebx
    5f84:	83 ec 0c             	sub    $0xc,%esp
    5f87:	8d 45 fa             	lea    0xfffffffa(%ebp),%eax
    5f8a:	50                   	push   %eax
    5f8b:	e8 54 a8 ff ff       	call   7e4 <restore>
    5f90:	89 d8                	mov    %ebx,%eax
    5f92:	8b 5d fc             	mov    0xfffffffc(%ebp),%ebx
    5f95:	c9                   	leave  
    5f96:	c3                   	ret    
    5f97:	90                   	nop    

00005f98 <recvtim>:
    5f98:	55                   	push   %ebp
    5f99:	89 e5                	mov    %esp,%ebp
    5f9b:	57                   	push   %edi
    5f9c:	56                   	push   %esi
    5f9d:	53                   	push   %ebx
    5f9e:	83 ec 0c             	sub    $0xc,%esp
    5fa1:	8b 5d 08             	mov    0x8(%ebp),%ebx
    5fa4:	85 db                	test   %ebx,%ebx
    5fa6:	78 09                	js     5fb1 <recvtim+0x19>
    5fa8:	83 3d 78 8f 01 00 00 	cmpl   $0x0,0x18f78
    5faf:	75 0a                	jne    5fbb <recvtim+0x23>
    5fb1:	b8 ff ff ff ff       	mov    $0xffffffff,%eax
    5fb6:	e9 a3 00 00 00       	jmp    605e <recvtim+0xc6>
    5fbb:	83 ec 0c             	sub    $0xc,%esp
    5fbe:	8d 45 f2             	lea    0xfffffff2(%ebp),%eax
    5fc1:	50                   	push   %eax
    5fc2:	e8 f5 a7 ff ff       	call   7bc <disable>
    5fc7:	8b 15 e4 c8 00 00    	mov    0xc8e4,%edx
    5fcd:	8d 04 52             	lea    (%edx,%edx,2),%eax
    5fd0:	c1 e0 04             	shl    $0x4,%eax
    5fd3:	01 d0                	add    %edx,%eax
    5fd5:	8d 3c 85 00 00 00 00 	lea    0x0(,%eax,4),%edi
    5fdc:	8d b7 00 c9 00 00    	lea    0xc900(%edi),%esi
    5fe2:	83 c4 10             	add    $0x10,%esp
    5fe5:	80 7e 18 00          	cmpb   $0x0,0x18(%esi)
    5fe9:	75 5e                	jne    6049 <recvtim+0xb1>
    5feb:	83 ec 04             	sub    $0x4,%esp
    5fee:	8d 04 9b             	lea    (%ebx,%ebx,4),%eax
    5ff1:	8d 04 80             	lea    (%eax,%eax,4),%eax
    5ff4:	8d 04 80             	lea    (%eax,%eax,4),%eax
    5ff7:	c1 e0 03             	shl    $0x3,%eax
    5ffa:	50                   	push   %eax
    5ffb:	ff 35 50 8f 01 00    	pushl  0x18f50
    6001:	52                   	push   %edx
    6002:	e8 8d f8 ff ff       	call   5894 <insertd>
    6007:	c7 05 68 8f 01 00 01 	movl   $0x1,0x18f68
    600e:	00 00 00 
    6011:	a1 50 8f 01 00       	mov    0x18f50,%eax
    6016:	8d 04 40             	lea    (%eax,%eax,2),%eax
    6019:	8b 04 85 84 7f 01 00 	mov    0x17f84(,%eax,4),%eax
    6020:	8d 04 40             	lea    (%eax,%eax,2),%eax
    6023:	8d 04 85 80 7f 01 00 	lea    0x17f80(,%eax,4),%eax
    602a:	a3 54 8f 01 00       	mov    %eax,0x18f54
    602f:	c6 87 00 c9 00 00 08 	movb   $0x8,0xc900(%edi)
    6036:	e8 2d 00 00 00       	call   6068 <resched>
    603b:	83 c4 10             	add    $0x10,%esp
    603e:	bb fd ff ff ff       	mov    $0xfffffffd,%ebx
    6043:	80 7e 18 00          	cmpb   $0x0,0x18(%esi)
    6047:	74 07                	je     6050 <recvtim+0xb8>
    6049:	8b 5e 14             	mov    0x14(%esi),%ebx
    604c:	c6 46 18 00          	movb   $0x0,0x18(%esi)
    6050:	83 ec 0c             	sub    $0xc,%esp
    6053:	8d 45 f2             	lea    0xfffffff2(%ebp),%eax
    6056:	50                   	push   %eax
    6057:	e8 88 a7 ff ff       	call   7e4 <restore>
    605c:	89 d8                	mov    %ebx,%eax
    605e:	8d 65 f4             	lea    0xfffffff4(%ebp),%esp
    6061:	5b                   	pop    %ebx
    6062:	5e                   	pop    %esi
    6063:	5f                   	pop    %edi
    6064:	5d                   	pop    %ebp
    6065:	c3                   	ret    
    6066:	90                   	nop    
    6067:	90                   	nop    

00006068 <resched>:
    6068:	55                   	push   %ebp
    6069:	89 e5                	mov    %esp,%ebp
    606b:	56                   	push   %esi
    606c:	53                   	push   %ebx
    606d:	83 ec 1c             	sub    $0x1c,%esp
    6070:	8d 45 f6             	lea    0xfffffff6(%ebp),%eax
    6073:	50                   	push   %eax
    6074:	e8 43 a7 ff ff       	call   7bc <disable>
    6079:	8b 15 e4 c8 00 00    	mov    0xc8e4,%edx
    607f:	8d 04 52             	lea    (%edx,%edx,2),%eax
    6082:	c1 e0 04             	shl    $0x4,%eax
    6085:	01 d0                	add    %edx,%eax
    6087:	c1 e0 02             	shl    $0x2,%eax
    608a:	8d b0 00 c9 00 00    	lea    0xc900(%eax),%esi
    6090:	83 c4 10             	add    $0x10,%esp
    6093:	80 b8 00 c9 00 00 01 	cmpb   $0x1,0xc900(%eax)
    609a:	75 34                	jne    60d0 <resched+0x68>
    609c:	a1 60 7f 01 00       	mov    0x17f60,%eax
    60a1:	8d 04 40             	lea    (%eax,%eax,2),%eax
    60a4:	8b 04 85 88 7f 01 00 	mov    0x17f88(,%eax,4),%eax
    60ab:	8d 04 40             	lea    (%eax,%eax,2),%eax
    60ae:	8b 04 85 80 7f 01 00 	mov    0x17f80(,%eax,4),%eax
    60b5:	3b 46 04             	cmp    0x4(%esi),%eax
    60b8:	7d 16                	jge    60d0 <resched+0x68>
    60ba:	83 ec 0c             	sub    $0xc,%esp
    60bd:	8d 45 f6             	lea    0xfffffff6(%ebp),%eax
    60c0:	50                   	push   %eax
    60c1:	e8 1e a7 ff ff       	call   7e4 <restore>
    60c6:	b8 01 00 00 00       	mov    $0x1,%eax
    60cb:	e9 cc 00 00 00       	jmp    619c <resched+0x134>
    60d0:	89 25 98 91 01 00    	mov    %esp,0x19198
    60d6:	8b 4e 24             	mov    0x24(%esi),%ecx
    60d9:	8b 15 98 91 01 00    	mov    0x19198,%edx
    60df:	89 d0                	mov    %edx,%eax
    60e1:	29 c8                	sub    %ecx,%eax
    60e3:	83 f8 2f             	cmp    $0x2f,%eax
    60e6:	77 29                	ja     6111 <resched+0xa9>
    60e8:	83 ec 0c             	sub    $0xc,%esp
    60eb:	52                   	push   %edx
    60ec:	51                   	push   %ecx
    60ed:	8d 46 28             	lea    0x28(%esi),%eax
    60f0:	50                   	push   %eax
    60f1:	ff 35 e4 c8 00 00    	pushl  0xc8e4
    60f7:	68 84 a4 00 00       	push   $0xa484
    60fc:	e8 67 f9 ff ff       	call   5a68 <kprintf>
    6101:	83 c4 14             	add    $0x14,%esp
    6104:	68 c8 a4 00 00       	push   $0xa4c8
    6109:	e8 fa fb ff ff       	call   5d08 <panic>
    610e:	83 c4 10             	add    $0x10,%esp
    6111:	80 3e 01             	cmpb   $0x1,(%esi)
    6114:	75 1d                	jne    6133 <resched+0xcb>
    6116:	c6 06 03             	movb   $0x3,(%esi)
    6119:	83 ec 04             	sub    $0x4,%esp
    611c:	ff 76 04             	pushl  0x4(%esi)
    611f:	ff 35 64 7f 01 00    	pushl  0x17f64
    6125:	ff 35 e4 c8 00 00    	pushl  0xc8e4
    612b:	e8 e4 f6 ff ff       	call   5814 <insert>
    6130:	83 c4 10             	add    $0x10,%esp
    6133:	83 ec 0c             	sub    $0xc,%esp
    6136:	ff 35 60 7f 01 00    	pushl  0x17f60
    613c:	e8 63 ed ff ff       	call   4ea4 <getlast>
    6141:	a3 e4 c8 00 00       	mov    %eax,0xc8e4
    6146:	8d 14 40             	lea    (%eax,%eax,2),%edx
    6149:	c1 e2 04             	shl    $0x4,%edx
    614c:	01 c2                	add    %eax,%edx
    614e:	c1 e2 02             	shl    $0x2,%edx
    6151:	8d 9a 00 c9 00 00    	lea    0xc900(%edx),%ebx
    6157:	c6 82 00 c9 00 00 01 	movb   $0x1,0xc900(%edx)
    615e:	c7 05 60 8f 01 00 0a 	movl   $0xa,0x18f60
    6165:	00 00 00 
    6168:	83 c4 04             	add    $0x4,%esp
    616b:	ff b3 b0 00 00 00    	pushl  0xb0(%ebx)
    6171:	e8 5c 1b 00 00       	call   7cd2 <write_cr3>
    6176:	8d 43 0c             	lea    0xc(%ebx),%eax
    6179:	50                   	push   %eax
    617a:	83 c3 08             	add    $0x8,%ebx
    617d:	53                   	push   %ebx
    617e:	8d 46 0c             	lea    0xc(%esi),%eax
    6181:	50                   	push   %eax
    6182:	8d 46 08             	lea    0x8(%esi),%eax
    6185:	50                   	push   %eax
    6186:	e8 d7 a6 ff ff       	call   862 <ctxsw>
    618b:	83 c4 14             	add    $0x14,%esp
    618e:	8d 45 f6             	lea    0xfffffff6(%ebp),%eax
    6191:	50                   	push   %eax
    6192:	e8 4d a6 ff ff       	call   7e4 <restore>
    6197:	b8 01 00 00 00       	mov    $0x1,%eax
    619c:	8d 65 f8             	lea    0xfffffff8(%ebp),%esp
    619f:	5b                   	pop    %ebx
    61a0:	5e                   	pop    %esi
    61a1:	5d                   	pop    %ebp
    61a2:	c3                   	ret    
    61a3:	90                   	nop    

000061a4 <resume>:
    61a4:	55                   	push   %ebp
    61a5:	89 e5                	mov    %esp,%ebp
    61a7:	56                   	push   %esi
    61a8:	53                   	push   %ebx
    61a9:	83 ec 1c             	sub    $0x1c,%esp
    61ac:	8b 75 08             	mov    0x8(%ebp),%esi
    61af:	8d 45 f6             	lea    0xfffffff6(%ebp),%eax
    61b2:	50                   	push   %eax
    61b3:	e8 04 a6 ff ff       	call   7bc <disable>
    61b8:	8d 46 ff             	lea    0xffffffff(%esi),%eax
    61bb:	83 c4 10             	add    $0x10,%esp
    61be:	83 f8 30             	cmp    $0x30,%eax
    61c1:	77 1a                	ja     61dd <resume+0x39>
    61c3:	8d 04 76             	lea    (%esi,%esi,2),%eax
    61c6:	c1 e0 04             	shl    $0x4,%eax
    61c9:	01 f0                	add    %esi,%eax
    61cb:	c1 e0 02             	shl    $0x2,%eax
    61ce:	8d 90 00 c9 00 00    	lea    0xc900(%eax),%edx
    61d4:	80 b8 00 c9 00 00 06 	cmpb   $0x6,0xc900(%eax)
    61db:	74 13                	je     61f0 <resume+0x4c>
    61dd:	83 ec 0c             	sub    $0xc,%esp
    61e0:	8d 45 f6             	lea    0xfffffff6(%ebp),%eax
    61e3:	50                   	push   %eax
    61e4:	e8 fb a5 ff ff       	call   7e4 <restore>
    61e9:	b8 ff ff ff ff       	mov    $0xffffffff,%eax
    61ee:	eb 1b                	jmp    620b <resume+0x67>
    61f0:	8b 5a 04             	mov    0x4(%edx),%ebx
    61f3:	83 ec 08             	sub    $0x8,%esp
    61f6:	6a 01                	push   $0x1
    61f8:	56                   	push   %esi
    61f9:	e8 96 fc ff ff       	call   5e94 <ready>
    61fe:	8d 45 f6             	lea    0xfffffff6(%ebp),%eax
    6201:	89 04 24             	mov    %eax,(%esp)
    6204:	e8 db a5 ff ff       	call   7e4 <restore>
    6209:	89 d8                	mov    %ebx,%eax
    620b:	8d 65 f8             	lea    0xfffffff8(%ebp),%esp
    620e:	5b                   	pop    %ebx
    620f:	5e                   	pop    %esi
    6210:	5d                   	pop    %ebp
    6211:	c3                   	ret    
    6212:	90                   	nop    
    6213:	90                   	nop    

00006214 <scount>:
    6214:	55                   	push   %ebp
    6215:	89 e5                	mov    %esp,%ebp
    6217:	8b 55 08             	mov    0x8(%ebp),%edx
    621a:	83 fa 63             	cmp    $0x63,%edx
    621d:	77 0e                	ja     622d <scount+0x19>
    621f:	89 d0                	mov    %edx,%eax
    6221:	c1 e0 04             	shl    $0x4,%eax
    6224:	80 b8 60 ef 00 00 01 	cmpb   $0x1,0xef60(%eax)
    622b:	75 07                	jne    6234 <scount+0x20>
    622d:	b8 ff ff ff ff       	mov    $0xffffffff,%eax
    6232:	eb 0b                	jmp    623f <scount+0x2b>
    6234:	89 d0                	mov    %edx,%eax
    6236:	c1 e0 04             	shl    $0x4,%eax
    6239:	8b 80 64 ef 00 00    	mov    0xef64(%eax),%eax
    623f:	5d                   	pop    %ebp
    6240:	c3                   	ret    
    6241:	90                   	nop    
    6242:	90                   	nop    
    6243:	90                   	nop    

00006244 <screate>:
    6244:	55                   	push   %ebp
    6245:	89 e5                	mov    %esp,%ebp
    6247:	56                   	push   %esi
    6248:	53                   	push   %ebx
    6249:	83 ec 1c             	sub    $0x1c,%esp
    624c:	8b 75 08             	mov    0x8(%ebp),%esi
    624f:	8d 45 f6             	lea    0xfffffff6(%ebp),%eax
    6252:	50                   	push   %eax
    6253:	e8 64 a5 ff ff       	call   7bc <disable>
    6258:	83 c4 10             	add    $0x10,%esp
    625b:	85 f6                	test   %esi,%esi
    625d:	78 0c                	js     626b <screate+0x27>
    625f:	e8 38 00 00 00       	call   629c <newsem>
    6264:	89 c3                	mov    %eax,%ebx
    6266:	83 f8 ff             	cmp    $0xffffffff,%eax
    6269:	75 13                	jne    627e <screate+0x3a>
    626b:	83 ec 0c             	sub    $0xc,%esp
    626e:	8d 45 f6             	lea    0xfffffff6(%ebp),%eax
    6271:	50                   	push   %eax
    6272:	e8 6d a5 ff ff       	call   7e4 <restore>
    6277:	b8 ff ff ff ff       	mov    $0xffffffff,%eax
    627c:	eb 17                	jmp    6295 <screate+0x51>
    627e:	c1 e0 04             	shl    $0x4,%eax
    6281:	89 b0 64 ef 00 00    	mov    %esi,0xef64(%eax)
    6287:	83 ec 0c             	sub    $0xc,%esp
    628a:	8d 45 f6             	lea    0xfffffff6(%ebp),%eax
    628d:	50                   	push   %eax
    628e:	e8 51 a5 ff ff       	call   7e4 <restore>
    6293:	89 d8                	mov    %ebx,%eax
    6295:	8d 65 f8             	lea    0xfffffff8(%ebp),%esp
    6298:	5b                   	pop    %ebx
    6299:	5e                   	pop    %esi
    629a:	5d                   	pop    %ebp
    629b:	c3                   	ret    

0000629c <newsem>:
    629c:	55                   	push   %ebp
    629d:	89 e5                	mov    %esp,%ebp
    629f:	53                   	push   %ebx
    62a0:	bb 00 00 00 00       	mov    $0x0,%ebx
    62a5:	8b 15 a0 f5 00 00    	mov    0xf5a0,%edx
    62ab:	8d 42 ff             	lea    0xffffffff(%edx),%eax
    62ae:	a3 a0 f5 00 00       	mov    %eax,0xf5a0
    62b3:	89 d0                	mov    %edx,%eax
    62b5:	83 3d a0 f5 00 00 00 	cmpl   $0x0,0xf5a0
    62bc:	79 0a                	jns    62c8 <newsem+0x2c>
    62be:	c7 05 a0 f5 00 00 63 	movl   $0x63,0xf5a0
    62c5:	00 00 00 
    62c8:	89 c1                	mov    %eax,%ecx
    62ca:	c1 e1 04             	shl    $0x4,%ecx
    62cd:	80 b9 60 ef 00 00 01 	cmpb   $0x1,0xef60(%ecx)
    62d4:	75 09                	jne    62df <newsem+0x43>
    62d6:	c6 81 60 ef 00 00 02 	movb   $0x2,0xef60(%ecx)
    62dd:	eb 0b                	jmp    62ea <newsem+0x4e>
    62df:	43                   	inc    %ebx
    62e0:	83 fb 63             	cmp    $0x63,%ebx
    62e3:	7e c0                	jle    62a5 <newsem+0x9>
    62e5:	b8 ff ff ff ff       	mov    $0xffffffff,%eax
    62ea:	5b                   	pop    %ebx
    62eb:	5d                   	pop    %ebp
    62ec:	c3                   	ret    
    62ed:	90                   	nop    
    62ee:	90                   	nop    
    62ef:	90                   	nop    

000062f0 <sdelete>:
    62f0:	55                   	push   %ebp
    62f1:	89 e5                	mov    %esp,%ebp
    62f3:	53                   	push   %ebx
    62f4:	83 ec 10             	sub    $0x10,%esp
    62f7:	8b 5d 08             	mov    0x8(%ebp),%ebx
    62fa:	8d 45 fa             	lea    0xfffffffa(%ebp),%eax
    62fd:	50                   	push   %eax
    62fe:	e8 b9 a4 ff ff       	call   7bc <disable>
    6303:	83 c4 10             	add    $0x10,%esp
    6306:	83 fb 63             	cmp    $0x63,%ebx
    6309:	77 0e                	ja     6319 <sdelete+0x29>
    630b:	89 d8                	mov    %ebx,%eax
    630d:	c1 e0 04             	shl    $0x4,%eax
    6310:	80 b8 60 ef 00 00 01 	cmpb   $0x1,0xef60(%eax)
    6317:	75 13                	jne    632c <sdelete+0x3c>
    6319:	83 ec 0c             	sub    $0xc,%esp
    631c:	8d 45 fa             	lea    0xfffffffa(%ebp),%eax
    631f:	50                   	push   %eax
    6320:	e8 bf a4 ff ff       	call   7e4 <restore>
    6325:	b8 ff ff ff ff       	mov    $0xffffffff,%eax
    632a:	eb 70                	jmp    639c <sdelete+0xac>
    632c:	89 d8                	mov    %ebx,%eax
    632e:	c1 e0 04             	shl    $0x4,%eax
    6331:	8d 98 60 ef 00 00    	lea    0xef60(%eax),%ebx
    6337:	c6 80 60 ef 00 00 01 	movb   $0x1,0xef60(%eax)
    633e:	8b 43 08             	mov    0x8(%ebx),%eax
    6341:	8d 04 40             	lea    (%eax,%eax,2),%eax
    6344:	83 3c 85 84 7f 01 00 	cmpl   $0x31,0x17f84(,%eax,4)
    634b:	31 
    634c:	7f 3d                	jg     638b <sdelete+0x9b>
    634e:	eb 21                	jmp    6371 <sdelete+0x81>
    6350:	8d 04 52             	lea    (%edx,%edx,2),%eax
    6353:	c1 e0 04             	shl    $0x4,%eax
    6356:	01 d0                	add    %edx,%eax
    6358:	c7 04 85 a0 c9 00 00 	movl   $0xfffffffa,0xc9a0(,%eax,4)
    635f:	fa ff ff ff 
    6363:	83 ec 08             	sub    $0x8,%esp
    6366:	6a 00                	push   $0x0
    6368:	52                   	push   %edx
    6369:	e8 26 fb ff ff       	call   5e94 <ready>
    636e:	83 c4 10             	add    $0x10,%esp
    6371:	83 ec 0c             	sub    $0xc,%esp
    6374:	ff 73 08             	pushl  0x8(%ebx)
    6377:	e8 00 eb ff ff       	call   4e7c <getfirst>
    637c:	89 c2                	mov    %eax,%edx
    637e:	83 c4 10             	add    $0x10,%esp
    6381:	83 f8 ff             	cmp    $0xffffffff,%eax
    6384:	75 ca                	jne    6350 <sdelete+0x60>
    6386:	e8 dd fc ff ff       	call   6068 <resched>
    638b:	83 ec 0c             	sub    $0xc,%esp
    638e:	8d 45 fa             	lea    0xfffffffa(%ebp),%eax
    6391:	50                   	push   %eax
    6392:	e8 4d a4 ff ff       	call   7e4 <restore>
    6397:	b8 01 00 00 00       	mov    $0x1,%eax
    639c:	8b 5d fc             	mov    0xfffffffc(%ebp),%ebx
    639f:	c9                   	leave  
    63a0:	c3                   	ret    
    63a1:	90                   	nop    
    63a2:	90                   	nop    
    63a3:	90                   	nop    

000063a4 <send>:
    63a4:	55                   	push   %ebp
    63a5:	89 e5                	mov    %esp,%ebp
    63a7:	53                   	push   %ebx
    63a8:	83 ec 10             	sub    $0x10,%esp
    63ab:	8b 5d 08             	mov    0x8(%ebp),%ebx
    63ae:	8d 45 fa             	lea    0xfffffffa(%ebp),%eax
    63b1:	50                   	push   %eax
    63b2:	e8 05 a4 ff ff       	call   7bc <disable>
    63b7:	8d 43 ff             	lea    0xffffffff(%ebx),%eax
    63ba:	83 c4 10             	add    $0x10,%esp
    63bd:	83 f8 30             	cmp    $0x30,%eax
    63c0:	77 20                	ja     63e2 <send+0x3e>
    63c2:	8d 04 5b             	lea    (%ebx,%ebx,2),%eax
    63c5:	c1 e0 04             	shl    $0x4,%eax
    63c8:	01 d8                	add    %ebx,%eax
    63ca:	c1 e0 02             	shl    $0x2,%eax
    63cd:	8d 90 00 c9 00 00    	lea    0xc900(%eax),%edx
    63d3:	80 b8 00 c9 00 00 02 	cmpb   $0x2,0xc900(%eax)
    63da:	74 06                	je     63e2 <send+0x3e>
    63dc:	80 7a 18 00          	cmpb   $0x0,0x18(%edx)
    63e0:	74 13                	je     63f5 <send+0x51>
    63e2:	83 ec 0c             	sub    $0xc,%esp
    63e5:	8d 45 fa             	lea    0xfffffffa(%ebp),%eax
    63e8:	50                   	push   %eax
    63e9:	e8 f6 a3 ff ff       	call   7e4 <restore>
    63ee:	b8 ff ff ff ff       	mov    $0xffffffff,%eax
    63f3:	eb 4c                	jmp    6441 <send+0x9d>
    63f5:	8b 45 0c             	mov    0xc(%ebp),%eax
    63f8:	89 42 14             	mov    %eax,0x14(%edx)
    63fb:	c6 42 18 01          	movb   $0x1,0x18(%edx)
    63ff:	80 3a 04             	cmpb   $0x4,(%edx)
    6402:	75 10                	jne    6414 <send+0x70>
    6404:	83 ec 08             	sub    $0x8,%esp
    6407:	6a 01                	push   $0x1
    6409:	53                   	push   %ebx
    640a:	e8 85 fa ff ff       	call   5e94 <ready>
    640f:	83 c4 10             	add    $0x10,%esp
    6412:	eb 1c                	jmp    6430 <send+0x8c>
    6414:	80 3a 08             	cmpb   $0x8,(%edx)
    6417:	75 17                	jne    6430 <send+0x8c>
    6419:	83 ec 0c             	sub    $0xc,%esp
    641c:	53                   	push   %ebx
    641d:	e8 9a 05 00 00       	call   69bc <unsleep>
    6422:	83 c4 08             	add    $0x8,%esp
    6425:	6a 01                	push   $0x1
    6427:	53                   	push   %ebx
    6428:	e8 67 fa ff ff       	call   5e94 <ready>
    642d:	83 c4 10             	add    $0x10,%esp
    6430:	83 ec 0c             	sub    $0xc,%esp
    6433:	8d 45 fa             	lea    0xfffffffa(%ebp),%eax
    6436:	50                   	push   %eax
    6437:	e8 a8 a3 ff ff       	call   7e4 <restore>
    643c:	b8 01 00 00 00       	mov    $0x1,%eax
    6441:	8b 5d fc             	mov    0xfffffffc(%ebp),%ebx
    6444:	c9                   	leave  
    6445:	c3                   	ret    
    6446:	90                   	nop    
    6447:	90                   	nop    

00006448 <setdev>:
    6448:	55                   	push   %ebp
    6449:	89 e5                	mov    %esp,%ebp
    644b:	8b 55 08             	mov    0x8(%ebp),%edx
    644e:	8d 42 ff             	lea    0xffffffff(%edx),%eax
    6451:	b9 ff ff ff ff       	mov    $0xffffffff,%ecx
    6456:	83 f8 30             	cmp    $0x30,%eax
    6459:	77 24                	ja     647f <setdev+0x37>
    645b:	8d 04 52             	lea    (%edx,%edx,2),%eax
    645e:	c1 e0 04             	shl    $0x4,%eax
    6461:	01 d0                	add    %edx,%eax
    6463:	c1 e0 02             	shl    $0x2,%eax
    6466:	8b 55 0c             	mov    0xc(%ebp),%edx
    6469:	66 89 90 46 c9 00 00 	mov    %dx,0xc946(%eax)
    6470:	8b 55 10             	mov    0x10(%ebp),%edx
    6473:	66 89 90 48 c9 00 00 	mov    %dx,0xc948(%eax)
    647a:	b9 01 00 00 00       	mov    $0x1,%ecx
    647f:	89 c8                	mov    %ecx,%eax
    6481:	5d                   	pop    %ebp
    6482:	c3                   	ret    
    6483:	90                   	nop    

00006484 <setnok>:
    6484:	55                   	push   %ebp
    6485:	89 e5                	mov    %esp,%ebp
    6487:	53                   	push   %ebx
    6488:	83 ec 10             	sub    $0x10,%esp
    648b:	8b 5d 0c             	mov    0xc(%ebp),%ebx
    648e:	8d 45 fa             	lea    0xfffffffa(%ebp),%eax
    6491:	50                   	push   %eax
    6492:	e8 25 a3 ff ff       	call   7bc <disable>
    6497:	8d 43 ff             	lea    0xffffffff(%ebx),%eax
    649a:	83 c4 10             	add    $0x10,%esp
    649d:	83 f8 30             	cmp    $0x30,%eax
    64a0:	76 13                	jbe    64b5 <setnok+0x31>
    64a2:	83 ec 0c             	sub    $0xc,%esp
    64a5:	8d 45 fa             	lea    0xfffffffa(%ebp),%eax
    64a8:	50                   	push   %eax
    64a9:	e8 36 a3 ff ff       	call   7e4 <restore>
    64ae:	b8 ff ff ff ff       	mov    $0xffffffff,%eax
    64b3:	eb 23                	jmp    64d8 <setnok+0x54>
    64b5:	8d 04 5b             	lea    (%ebx,%ebx,2),%eax
    64b8:	c1 e0 04             	shl    $0x4,%eax
    64bb:	01 d8                	add    %ebx,%eax
    64bd:	8b 55 08             	mov    0x8(%ebp),%edx
    64c0:	89 14 85 40 c9 00 00 	mov    %edx,0xc940(,%eax,4)
    64c7:	83 ec 0c             	sub    $0xc,%esp
    64ca:	8d 45 fa             	lea    0xfffffffa(%ebp),%eax
    64cd:	50                   	push   %eax
    64ce:	e8 11 a3 ff ff       	call   7e4 <restore>
    64d3:	b8 01 00 00 00       	mov    $0x1,%eax
    64d8:	8b 5d fc             	mov    0xfffffffc(%ebp),%ebx
    64db:	c9                   	leave  
    64dc:	c3                   	ret    
    64dd:	90                   	nop    
    64de:	90                   	nop    
    64df:	90                   	nop    

000064e0 <signal>:
    64e0:	55                   	push   %ebp
    64e1:	89 e5                	mov    %esp,%ebp
    64e3:	53                   	push   %ebx
    64e4:	83 ec 10             	sub    $0x10,%esp
    64e7:	8b 5d 08             	mov    0x8(%ebp),%ebx
    64ea:	8d 45 fa             	lea    0xfffffffa(%ebp),%eax
    64ed:	50                   	push   %eax
    64ee:	e8 c9 a2 ff ff       	call   7bc <disable>
    64f3:	83 c4 10             	add    $0x10,%esp
    64f6:	83 fb 63             	cmp    $0x63,%ebx
    64f9:	77 14                	ja     650f <signal+0x2f>
    64fb:	89 d8                	mov    %ebx,%eax
    64fd:	c1 e0 04             	shl    $0x4,%eax
    6500:	8d 88 60 ef 00 00    	lea    0xef60(%eax),%ecx
    6506:	80 b8 60 ef 00 00 01 	cmpb   $0x1,0xef60(%eax)
    650d:	75 13                	jne    6522 <signal+0x42>
    650f:	83 ec 0c             	sub    $0xc,%esp
    6512:	8d 45 fa             	lea    0xfffffffa(%ebp),%eax
    6515:	50                   	push   %eax
    6516:	e8 c9 a2 ff ff       	call   7e4 <restore>
    651b:	b8 ff ff ff ff       	mov    $0xffffffff,%eax
    6520:	eb 36                	jmp    6558 <signal+0x78>
    6522:	8b 51 04             	mov    0x4(%ecx),%edx
    6525:	8d 42 01             	lea    0x1(%edx),%eax
    6528:	89 41 04             	mov    %eax,0x4(%ecx)
    652b:	85 d2                	test   %edx,%edx
    652d:	79 18                	jns    6547 <signal+0x67>
    652f:	83 ec 08             	sub    $0x8,%esp
    6532:	6a 01                	push   $0x1
    6534:	ff 71 08             	pushl  0x8(%ecx)
    6537:	e8 40 e9 ff ff       	call   4e7c <getfirst>
    653c:	89 04 24             	mov    %eax,(%esp)
    653f:	e8 50 f9 ff ff       	call   5e94 <ready>
    6544:	83 c4 10             	add    $0x10,%esp
    6547:	83 ec 0c             	sub    $0xc,%esp
    654a:	8d 45 fa             	lea    0xfffffffa(%ebp),%eax
    654d:	50                   	push   %eax
    654e:	e8 91 a2 ff ff       	call   7e4 <restore>
    6553:	b8 01 00 00 00       	mov    $0x1,%eax
    6558:	8b 5d fc             	mov    0xfffffffc(%ebp),%ebx
    655b:	c9                   	leave  
    655c:	c3                   	ret    
    655d:	90                   	nop    
    655e:	90                   	nop    
    655f:	90                   	nop    

00006560 <signaln>:
    6560:	55                   	push   %ebp
    6561:	89 e5                	mov    %esp,%ebp
    6563:	56                   	push   %esi
    6564:	53                   	push   %ebx
    6565:	83 ec 1c             	sub    $0x1c,%esp
    6568:	8b 5d 08             	mov    0x8(%ebp),%ebx
    656b:	8b 75 0c             	mov    0xc(%ebp),%esi
    656e:	8d 45 f6             	lea    0xfffffff6(%ebp),%eax
    6571:	50                   	push   %eax
    6572:	e8 45 a2 ff ff       	call   7bc <disable>
    6577:	83 c4 10             	add    $0x10,%esp
    657a:	83 fb 63             	cmp    $0x63,%ebx
    657d:	77 1a                	ja     6599 <signaln+0x39>
    657f:	89 d8                	mov    %ebx,%eax
    6581:	c1 e0 04             	shl    $0x4,%eax
    6584:	80 b8 60 ef 00 00 01 	cmpb   $0x1,0xef60(%eax)
    658b:	0f 94 c2             	sete   %dl
    658e:	85 f6                	test   %esi,%esi
    6590:	0f 9e c0             	setle  %al
    6593:	09 d0                	or     %edx,%eax
    6595:	a8 01                	test   $0x1,%al
    6597:	74 13                	je     65ac <signaln+0x4c>
    6599:	83 ec 0c             	sub    $0xc,%esp
    659c:	8d 45 f6             	lea    0xfffffff6(%ebp),%eax
    659f:	50                   	push   %eax
    65a0:	e8 3f a2 ff ff       	call   7e4 <restore>
    65a5:	b8 ff ff ff ff       	mov    $0xffffffff,%eax
    65aa:	eb 4f                	jmp    65fb <signaln+0x9b>
    65ac:	89 d8                	mov    %ebx,%eax
    65ae:	c1 e0 04             	shl    $0x4,%eax
    65b1:	8d 98 60 ef 00 00    	lea    0xef60(%eax),%ebx
    65b7:	85 f6                	test   %esi,%esi
    65b9:	7e 2a                	jle    65e5 <signaln+0x85>
    65bb:	8b 53 04             	mov    0x4(%ebx),%edx
    65be:	8d 42 01             	lea    0x1(%edx),%eax
    65c1:	89 43 04             	mov    %eax,0x4(%ebx)
    65c4:	85 d2                	test   %edx,%edx
    65c6:	79 18                	jns    65e0 <signaln+0x80>
    65c8:	83 ec 08             	sub    $0x8,%esp
    65cb:	6a 00                	push   $0x0
    65cd:	ff 73 08             	pushl  0x8(%ebx)
    65d0:	e8 a7 e8 ff ff       	call   4e7c <getfirst>
    65d5:	89 04 24             	mov    %eax,(%esp)
    65d8:	e8 b7 f8 ff ff       	call   5e94 <ready>
    65dd:	83 c4 10             	add    $0x10,%esp
    65e0:	4e                   	dec    %esi
    65e1:	85 f6                	test   %esi,%esi
    65e3:	7f d6                	jg     65bb <signaln+0x5b>
    65e5:	e8 7e fa ff ff       	call   6068 <resched>
    65ea:	83 ec 0c             	sub    $0xc,%esp
    65ed:	8d 45 f6             	lea    0xfffffff6(%ebp),%eax
    65f0:	50                   	push   %eax
    65f1:	e8 ee a1 ff ff       	call   7e4 <restore>
    65f6:	b8 01 00 00 00       	mov    $0x1,%eax
    65fb:	8d 65 f8             	lea    0xfffffff8(%ebp),%esp
    65fe:	5b                   	pop    %ebx
    65ff:	5e                   	pop    %esi
    6600:	5d                   	pop    %ebp
    6601:	c3                   	ret    
    6602:	90                   	nop    
    6603:	90                   	nop    

00006604 <sleep>:
    6604:	55                   	push   %ebp
    6605:	89 e5                	mov    %esp,%ebp
    6607:	53                   	push   %ebx
    6608:	83 ec 04             	sub    $0x4,%esp
    660b:	8b 5d 08             	mov    0x8(%ebp),%ebx
    660e:	85 db                	test   %ebx,%ebx
    6610:	78 09                	js     661b <sleep+0x17>
    6612:	83 3d 78 8f 01 00 00 	cmpl   $0x0,0x18f78
    6619:	75 07                	jne    6622 <sleep+0x1e>
    661b:	b8 ff ff ff ff       	mov    $0xffffffff,%eax
    6620:	eb 67                	jmp    6689 <sleep+0x85>
    6622:	85 db                	test   %ebx,%ebx
    6624:	75 23                	jne    6649 <sleep+0x45>
    6626:	83 ec 0c             	sub    $0xc,%esp
    6629:	8d 45 fa             	lea    0xfffffffa(%ebp),%eax
    662c:	50                   	push   %eax
    662d:	e8 8a a1 ff ff       	call   7bc <disable>
    6632:	e8 31 fa ff ff       	call   6068 <resched>
    6637:	8d 45 fa             	lea    0xfffffffa(%ebp),%eax
    663a:	89 04 24             	mov    %eax,(%esp)
    663d:	e8 a2 a1 ff ff       	call   7e4 <restore>
    6642:	b8 01 00 00 00       	mov    $0x1,%eax
    6647:	eb 40                	jmp    6689 <sleep+0x85>
    6649:	81 fb e7 03 00 00    	cmp    $0x3e7,%ebx
    664f:	7e 1e                	jle    666f <sleep+0x6b>
    6651:	83 ec 0c             	sub    $0xc,%esp
    6654:	68 10 27 00 00       	push   $0x2710
    6659:	e8 32 00 00 00       	call   6690 <sleep10>
    665e:	81 eb e8 03 00 00    	sub    $0x3e8,%ebx
    6664:	83 c4 10             	add    $0x10,%esp
    6667:	81 fb e7 03 00 00    	cmp    $0x3e7,%ebx
    666d:	7f e2                	jg     6651 <sleep+0x4d>
    666f:	85 db                	test   %ebx,%ebx
    6671:	7e 11                	jle    6684 <sleep+0x80>
    6673:	83 ec 0c             	sub    $0xc,%esp
    6676:	8d 04 9b             	lea    (%ebx,%ebx,4),%eax
    6679:	01 c0                	add    %eax,%eax
    667b:	50                   	push   %eax
    667c:	e8 0f 00 00 00       	call   6690 <sleep10>
    6681:	83 c4 10             	add    $0x10,%esp
    6684:	b8 01 00 00 00       	mov    $0x1,%eax
    6689:	8b 5d fc             	mov    0xfffffffc(%ebp),%ebx
    668c:	c9                   	leave  
    668d:	c3                   	ret    
    668e:	90                   	nop    
    668f:	90                   	nop    

00006690 <sleep10>:
    6690:	55                   	push   %ebp
    6691:	89 e5                	mov    %esp,%ebp
    6693:	53                   	push   %ebx
    6694:	83 ec 04             	sub    $0x4,%esp
    6697:	8b 5d 08             	mov    0x8(%ebp),%ebx
    669a:	85 db                	test   %ebx,%ebx
    669c:	78 09                	js     66a7 <sleep10+0x17>
    669e:	83 3d 78 8f 01 00 00 	cmpl   $0x0,0x18f78
    66a5:	75 0a                	jne    66b1 <sleep10+0x21>
    66a7:	b8 ff ff ff ff       	mov    $0xffffffff,%eax
    66ac:	e9 88 00 00 00       	jmp    6739 <sleep10+0xa9>
    66b1:	83 ec 0c             	sub    $0xc,%esp
    66b4:	8d 45 fa             	lea    0xfffffffa(%ebp),%eax
    66b7:	50                   	push   %eax
    66b8:	e8 ff a0 ff ff       	call   7bc <disable>
    66bd:	83 c4 10             	add    $0x10,%esp
    66c0:	85 db                	test   %ebx,%ebx
    66c2:	74 5f                	je     6723 <sleep10+0x93>
    66c4:	83 ec 04             	sub    $0x4,%esp
    66c7:	8d 04 9b             	lea    (%ebx,%ebx,4),%eax
    66ca:	8d 04 80             	lea    (%eax,%eax,4),%eax
    66cd:	c1 e0 02             	shl    $0x2,%eax
    66d0:	50                   	push   %eax
    66d1:	ff 35 50 8f 01 00    	pushl  0x18f50
    66d7:	ff 35 e4 c8 00 00    	pushl  0xc8e4
    66dd:	e8 b2 f1 ff ff       	call   5894 <insertd>
    66e2:	c7 05 68 8f 01 00 01 	movl   $0x1,0x18f68
    66e9:	00 00 00 
    66ec:	a1 50 8f 01 00       	mov    0x18f50,%eax
    66f1:	8d 04 40             	lea    (%eax,%eax,2),%eax
    66f4:	8b 04 85 84 7f 01 00 	mov    0x17f84(,%eax,4),%eax
    66fb:	8d 04 40             	lea    (%eax,%eax,2),%eax
    66fe:	8d 04 85 80 7f 01 00 	lea    0x17f80(,%eax,4),%eax
    6705:	a3 54 8f 01 00       	mov    %eax,0x18f54
    670a:	8b 15 e4 c8 00 00    	mov    0xc8e4,%edx
    6710:	8d 04 52             	lea    (%edx,%edx,2),%eax
    6713:	c1 e0 04             	shl    $0x4,%eax
    6716:	01 d0                	add    %edx,%eax
    6718:	c6 04 85 00 c9 00 00 	movb   $0x5,0xc900(,%eax,4)
    671f:	05 
    6720:	83 c4 10             	add    $0x10,%esp
    6723:	e8 40 f9 ff ff       	call   6068 <resched>
    6728:	83 ec 0c             	sub    $0xc,%esp
    672b:	8d 45 fa             	lea    0xfffffffa(%ebp),%eax
    672e:	50                   	push   %eax
    672f:	e8 b0 a0 ff ff       	call   7e4 <restore>
    6734:	b8 01 00 00 00       	mov    $0x1,%eax
    6739:	8b 5d fc             	mov    0xfffffffc(%ebp),%ebx
    673c:	c9                   	leave  
    673d:	c3                   	ret    
    673e:	90                   	nop    
    673f:	90                   	nop    

00006740 <sleep100>:
    6740:	55                   	push   %ebp
    6741:	89 e5                	mov    %esp,%ebp
    6743:	53                   	push   %ebx
    6744:	83 ec 04             	sub    $0x4,%esp
    6747:	8b 5d 08             	mov    0x8(%ebp),%ebx
    674a:	85 db                	test   %ebx,%ebx
    674c:	78 09                	js     6757 <sleep100+0x17>
    674e:	83 3d 78 8f 01 00 00 	cmpl   $0x0,0x18f78
    6755:	75 0a                	jne    6761 <sleep100+0x21>
    6757:	b8 ff ff ff ff       	mov    $0xffffffff,%eax
    675c:	e9 84 00 00 00       	jmp    67e5 <sleep100+0xa5>
    6761:	83 ec 0c             	sub    $0xc,%esp
    6764:	8d 45 fa             	lea    0xfffffffa(%ebp),%eax
    6767:	50                   	push   %eax
    6768:	e8 4f a0 ff ff       	call   7bc <disable>
    676d:	83 c4 10             	add    $0x10,%esp
    6770:	85 db                	test   %ebx,%ebx
    6772:	74 5b                	je     67cf <sleep100+0x8f>
    6774:	83 ec 04             	sub    $0x4,%esp
    6777:	8d 04 9b             	lea    (%ebx,%ebx,4),%eax
    677a:	01 c0                	add    %eax,%eax
    677c:	50                   	push   %eax
    677d:	ff 35 50 8f 01 00    	pushl  0x18f50
    6783:	ff 35 e4 c8 00 00    	pushl  0xc8e4
    6789:	e8 06 f1 ff ff       	call   5894 <insertd>
    678e:	c7 05 68 8f 01 00 01 	movl   $0x1,0x18f68
    6795:	00 00 00 
    6798:	a1 50 8f 01 00       	mov    0x18f50,%eax
    679d:	8d 04 40             	lea    (%eax,%eax,2),%eax
    67a0:	8b 04 85 84 7f 01 00 	mov    0x17f84(,%eax,4),%eax
    67a7:	8d 04 40             	lea    (%eax,%eax,2),%eax
    67aa:	8d 04 85 80 7f 01 00 	lea    0x17f80(,%eax,4),%eax
    67b1:	a3 54 8f 01 00       	mov    %eax,0x18f54
    67b6:	8b 15 e4 c8 00 00    	mov    0xc8e4,%edx
    67bc:	8d 04 52             	lea    (%edx,%edx,2),%eax
    67bf:	c1 e0 04             	shl    $0x4,%eax
    67c2:	01 d0                	add    %edx,%eax
    67c4:	c6 04 85 00 c9 00 00 	movb   $0x5,0xc900(,%eax,4)
    67cb:	05 
    67cc:	83 c4 10             	add    $0x10,%esp
    67cf:	e8 94 f8 ff ff       	call   6068 <resched>
    67d4:	83 ec 0c             	sub    $0xc,%esp
    67d7:	8d 45 fa             	lea    0xfffffffa(%ebp),%eax
    67da:	50                   	push   %eax
    67db:	e8 04 a0 ff ff       	call   7e4 <restore>
    67e0:	b8 01 00 00 00       	mov    $0x1,%eax
    67e5:	8b 5d fc             	mov    0xfffffffc(%ebp),%ebx
    67e8:	c9                   	leave  
    67e9:	c3                   	ret    
    67ea:	90                   	nop    
    67eb:	90                   	nop    

000067ec <sleep1000>:
    67ec:	55                   	push   %ebp
    67ed:	89 e5                	mov    %esp,%ebp
    67ef:	53                   	push   %ebx
    67f0:	83 ec 04             	sub    $0x4,%esp
    67f3:	8b 5d 08             	mov    0x8(%ebp),%ebx
    67f6:	85 db                	test   %ebx,%ebx
    67f8:	78 09                	js     6803 <sleep1000+0x17>
    67fa:	83 3d 78 8f 01 00 00 	cmpl   $0x0,0x18f78
    6801:	75 07                	jne    680a <sleep1000+0x1e>
    6803:	b8 ff ff ff ff       	mov    $0xffffffff,%eax
    6808:	eb 7f                	jmp    6889 <sleep1000+0x9d>
    680a:	83 ec 0c             	sub    $0xc,%esp
    680d:	8d 45 fa             	lea    0xfffffffa(%ebp),%eax
    6810:	50                   	push   %eax
    6811:	e8 a6 9f ff ff       	call   7bc <disable>
    6816:	83 c4 10             	add    $0x10,%esp
    6819:	85 db                	test   %ebx,%ebx
    681b:	74 56                	je     6873 <sleep1000+0x87>
    681d:	83 ec 04             	sub    $0x4,%esp
    6820:	53                   	push   %ebx
    6821:	ff 35 50 8f 01 00    	pushl  0x18f50
    6827:	ff 35 e4 c8 00 00    	pushl  0xc8e4
    682d:	e8 62 f0 ff ff       	call   5894 <insertd>
    6832:	c7 05 68 8f 01 00 01 	movl   $0x1,0x18f68
    6839:	00 00 00 
    683c:	a1 50 8f 01 00       	mov    0x18f50,%eax
    6841:	8d 04 40             	lea    (%eax,%eax,2),%eax
    6844:	8b 04 85 84 7f 01 00 	mov    0x17f84(,%eax,4),%eax
    684b:	8d 04 40             	lea    (%eax,%eax,2),%eax
    684e:	8d 04 85 80 7f 01 00 	lea    0x17f80(,%eax,4),%eax
    6855:	a3 54 8f 01 00       	mov    %eax,0x18f54
    685a:	8b 15 e4 c8 00 00    	mov    0xc8e4,%edx
    6860:	8d 04 52             	lea    (%edx,%edx,2),%eax
    6863:	c1 e0 04             	shl    $0x4,%eax
    6866:	01 d0                	add    %edx,%eax
    6868:	c6 04 85 00 c9 00 00 	movb   $0x5,0xc900(,%eax,4)
    686f:	05 
    6870:	83 c4 10             	add    $0x10,%esp
    6873:	e8 f0 f7 ff ff       	call   6068 <resched>
    6878:	83 ec 0c             	sub    $0xc,%esp
    687b:	8d 45 fa             	lea    0xfffffffa(%ebp),%eax
    687e:	50                   	push   %eax
    687f:	e8 60 9f ff ff       	call   7e4 <restore>
    6884:	b8 01 00 00 00       	mov    $0x1,%eax
    6889:	8b 5d fc             	mov    0xfffffffc(%ebp),%ebx
    688c:	c9                   	leave  
    688d:	c3                   	ret    
    688e:	90                   	nop    
    688f:	90                   	nop    

00006890 <sreset>:
    6890:	55                   	push   %ebp
    6891:	89 e5                	mov    %esp,%ebp
    6893:	57                   	push   %edi
    6894:	56                   	push   %esi
    6895:	53                   	push   %ebx
    6896:	83 ec 18             	sub    $0x18,%esp
    6899:	8b 5d 08             	mov    0x8(%ebp),%ebx
    689c:	8b 7d 0c             	mov    0xc(%ebp),%edi
    689f:	8d 45 f2             	lea    0xfffffff2(%ebp),%eax
    68a2:	50                   	push   %eax
    68a3:	e8 14 9f ff ff       	call   7bc <disable>
    68a8:	83 c4 10             	add    $0x10,%esp
    68ab:	83 fb 63             	cmp    $0x63,%ebx
    68ae:	0f 97 c0             	seta   %al
    68b1:	25 ff 00 00 00       	and    $0xff,%eax
    68b6:	89 fa                	mov    %edi,%edx
    68b8:	c1 ea 1f             	shr    $0x1f,%edx
    68bb:	09 d0                	or     %edx,%eax
    68bd:	75 0e                	jne    68cd <sreset+0x3d>
    68bf:	89 d8                	mov    %ebx,%eax
    68c1:	c1 e0 04             	shl    $0x4,%eax
    68c4:	80 b8 60 ef 00 00 01 	cmpb   $0x1,0xef60(%eax)
    68cb:	75 13                	jne    68e0 <sreset+0x50>
    68cd:	83 ec 0c             	sub    $0xc,%esp
    68d0:	8d 45 f2             	lea    0xfffffff2(%ebp),%eax
    68d3:	50                   	push   %eax
    68d4:	e8 0b 9f ff ff       	call   7e4 <restore>
    68d9:	b8 ff ff ff ff       	mov    $0xffffffff,%eax
    68de:	eb 48                	jmp    6928 <sreset+0x98>
    68e0:	89 d8                	mov    %ebx,%eax
    68e2:	c1 e0 04             	shl    $0x4,%eax
    68e5:	8d b0 60 ef 00 00    	lea    0xef60(%eax),%esi
    68eb:	8b 5e 08             	mov    0x8(%esi),%ebx
    68ee:	eb 0e                	jmp    68fe <sreset+0x6e>
    68f0:	83 ec 08             	sub    $0x8,%esp
    68f3:	6a 00                	push   $0x0
    68f5:	50                   	push   %eax
    68f6:	e8 99 f5 ff ff       	call   5e94 <ready>
    68fb:	83 c4 10             	add    $0x10,%esp
    68fe:	83 ec 0c             	sub    $0xc,%esp
    6901:	53                   	push   %ebx
    6902:	e8 75 e5 ff ff       	call   4e7c <getfirst>
    6907:	83 c4 10             	add    $0x10,%esp
    690a:	83 f8 ff             	cmp    $0xffffffff,%eax
    690d:	75 e1                	jne    68f0 <sreset+0x60>
    690f:	89 7e 04             	mov    %edi,0x4(%esi)
    6912:	e8 51 f7 ff ff       	call   6068 <resched>
    6917:	83 ec 0c             	sub    $0xc,%esp
    691a:	8d 45 f2             	lea    0xfffffff2(%ebp),%eax
    691d:	50                   	push   %eax
    691e:	e8 c1 9e ff ff       	call   7e4 <restore>
    6923:	b8 01 00 00 00       	mov    $0x1,%eax
    6928:	8d 65 f4             	lea    0xfffffff4(%ebp),%esp
    692b:	5b                   	pop    %ebx
    692c:	5e                   	pop    %esi
    692d:	5f                   	pop    %edi
    692e:	5d                   	pop    %ebp
    692f:	c3                   	ret    

00006930 <suspend>:
    6930:	55                   	push   %ebp
    6931:	89 e5                	mov    %esp,%ebp
    6933:	56                   	push   %esi
    6934:	53                   	push   %ebx
    6935:	83 ec 1c             	sub    $0x1c,%esp
    6938:	8b 75 08             	mov    0x8(%ebp),%esi
    693b:	8d 45 f6             	lea    0xfffffff6(%ebp),%eax
    693e:	50                   	push   %eax
    693f:	e8 78 9e ff ff       	call   7bc <disable>
    6944:	8d 46 ff             	lea    0xffffffff(%esi),%eax
    6947:	83 c4 10             	add    $0x10,%esp
    694a:	83 f8 30             	cmp    $0x30,%eax
    694d:	77 23                	ja     6972 <suspend+0x42>
    694f:	8d 04 76             	lea    (%esi,%esi,2),%eax
    6952:	c1 e0 04             	shl    $0x4,%eax
    6955:	01 f0                	add    %esi,%eax
    6957:	c1 e0 02             	shl    $0x2,%eax
    695a:	8d 98 00 c9 00 00    	lea    0xc900(%eax),%ebx
    6960:	80 b8 00 c9 00 00 01 	cmpb   $0x1,0xc900(%eax)
    6967:	74 1c                	je     6985 <suspend+0x55>
    6969:	80 b8 00 c9 00 00 03 	cmpb   $0x3,0xc900(%eax)
    6970:	74 18                	je     698a <suspend+0x5a>
    6972:	83 ec 0c             	sub    $0xc,%esp
    6975:	8d 45 f6             	lea    0xfffffff6(%ebp),%eax
    6978:	50                   	push   %eax
    6979:	e8 66 9e ff ff       	call   7e4 <restore>
    697e:	b8 ff ff ff ff       	mov    $0xffffffff,%eax
    6983:	eb 2f                	jmp    69b4 <suspend+0x84>
    6985:	80 3b 03             	cmpb   $0x3,(%ebx)
    6988:	75 11                	jne    699b <suspend+0x6b>
    698a:	c6 03 06             	movb   $0x6,(%ebx)
    698d:	83 ec 0c             	sub    $0xc,%esp
    6990:	56                   	push   %esi
    6991:	e8 9c f4 ff ff       	call   5e32 <dequeue>
    6996:	83 c4 10             	add    $0x10,%esp
    6999:	eb 08                	jmp    69a3 <suspend+0x73>
    699b:	c6 03 06             	movb   $0x6,(%ebx)
    699e:	e8 c5 f6 ff ff       	call   6068 <resched>
    69a3:	8b 5b 04             	mov    0x4(%ebx),%ebx
    69a6:	83 ec 0c             	sub    $0xc,%esp
    69a9:	8d 45 f6             	lea    0xfffffff6(%ebp),%eax
    69ac:	50                   	push   %eax
    69ad:	e8 32 9e ff ff       	call   7e4 <restore>
    69b2:	89 d8                	mov    %ebx,%eax
    69b4:	8d 65 f8             	lea    0xfffffff8(%ebp),%esp
    69b7:	5b                   	pop    %ebx
    69b8:	5e                   	pop    %esi
    69b9:	5d                   	pop    %ebp
    69ba:	c3                   	ret    
    69bb:	90                   	nop    

000069bc <unsleep>:
    69bc:	55                   	push   %ebp
    69bd:	89 e5                	mov    %esp,%ebp
    69bf:	53                   	push   %ebx
    69c0:	83 ec 10             	sub    $0x10,%esp
    69c3:	8b 5d 08             	mov    0x8(%ebp),%ebx
    69c6:	8d 45 fa             	lea    0xfffffffa(%ebp),%eax
    69c9:	50                   	push   %eax
    69ca:	e8 ed 9d ff ff       	call   7bc <disable>
    69cf:	8d 43 ff             	lea    0xffffffff(%ebx),%eax
    69d2:	83 c4 10             	add    $0x10,%esp
    69d5:	83 f8 30             	cmp    $0x30,%eax
    69d8:	77 1d                	ja     69f7 <unsleep+0x3b>
    69da:	8d 04 5b             	lea    (%ebx,%ebx,2),%eax
    69dd:	c1 e0 04             	shl    $0x4,%eax
    69e0:	01 d8                	add    %ebx,%eax
    69e2:	c1 e0 02             	shl    $0x2,%eax
    69e5:	80 b8 00 c9 00 00 05 	cmpb   $0x5,0xc900(%eax)
    69ec:	74 1c                	je     6a0a <unsleep+0x4e>
    69ee:	80 b8 00 c9 00 00 08 	cmpb   $0x8,0xc900(%eax)
    69f5:	74 13                	je     6a0a <unsleep+0x4e>
    69f7:	83 ec 0c             	sub    $0xc,%esp
    69fa:	8d 45 fa             	lea    0xfffffffa(%ebp),%eax
    69fd:	50                   	push   %eax
    69fe:	e8 e1 9d ff ff       	call   7e4 <restore>
    6a03:	b8 ff ff ff ff       	mov    $0xffffffff,%eax
    6a08:	eb 6d                	jmp    6a77 <unsleep+0xbb>
    6a0a:	8d 04 5b             	lea    (%ebx,%ebx,2),%eax
    6a0d:	c1 e0 02             	shl    $0x2,%eax
    6a10:	8b 90 80 7f 01 00    	mov    0x17f80(%eax),%edx
    6a16:	8b 80 84 7f 01 00    	mov    0x17f84(%eax),%eax
    6a1c:	83 f8 31             	cmp    $0x31,%eax
    6a1f:	7f 0a                	jg     6a2b <unsleep+0x6f>
    6a21:	8d 04 40             	lea    (%eax,%eax,2),%eax
    6a24:	01 14 85 80 7f 01 00 	add    %edx,0x17f80(,%eax,4)
    6a2b:	83 ec 0c             	sub    $0xc,%esp
    6a2e:	53                   	push   %ebx
    6a2f:	e8 fe f3 ff ff       	call   5e32 <dequeue>
    6a34:	a1 50 8f 01 00       	mov    0x18f50,%eax
    6a39:	8d 04 40             	lea    (%eax,%eax,2),%eax
    6a3c:	8b 04 85 84 7f 01 00 	mov    0x17f84(,%eax,4),%eax
    6a43:	83 c4 10             	add    $0x10,%esp
    6a46:	83 f8 31             	cmp    $0x31,%eax
    6a49:	7f 11                	jg     6a5c <unsleep+0xa0>
    6a4b:	8d 04 40             	lea    (%eax,%eax,2),%eax
    6a4e:	8d 04 85 80 7f 01 00 	lea    0x17f80(,%eax,4),%eax
    6a55:	a3 54 8f 01 00       	mov    %eax,0x18f54
    6a5a:	eb 0a                	jmp    6a66 <unsleep+0xaa>
    6a5c:	c7 05 68 8f 01 00 00 	movl   $0x0,0x18f68
    6a63:	00 00 00 
    6a66:	83 ec 0c             	sub    $0xc,%esp
    6a69:	8d 45 fa             	lea    0xfffffffa(%ebp),%eax
    6a6c:	50                   	push   %eax
    6a6d:	e8 72 9d ff ff       	call   7e4 <restore>
    6a72:	b8 01 00 00 00       	mov    $0x1,%eax
    6a77:	8b 5d fc             	mov    0xfffffffc(%ebp),%ebx
    6a7a:	c9                   	leave  
    6a7b:	c3                   	ret    

00006a7c <userret>:
    6a7c:	55                   	push   %ebp
    6a7d:	89 e5                	mov    %esp,%ebp
    6a7f:	83 ec 18             	sub    $0x18,%esp
    6a82:	e8 f1 e4 ff ff       	call   4f78 <getpid>
    6a87:	89 04 24             	mov    %eax,(%esp)
    6a8a:	e8 ad ee ff ff       	call   593c <kill>
    6a8f:	b8 01 00 00 00       	mov    $0x1,%eax
    6a94:	c9                   	leave  
    6a95:	c3                   	ret    
    6a96:	90                   	nop    
    6a97:	90                   	nop    

00006a98 <wait>:
    6a98:	55                   	push   %ebp
    6a99:	89 e5                	mov    %esp,%ebp
    6a9b:	56                   	push   %esi
    6a9c:	53                   	push   %ebx
    6a9d:	83 ec 1c             	sub    $0x1c,%esp
    6aa0:	8b 75 08             	mov    0x8(%ebp),%esi
    6aa3:	8d 45 f6             	lea    0xfffffff6(%ebp),%eax
    6aa6:	50                   	push   %eax
    6aa7:	e8 10 9d ff ff       	call   7bc <disable>
    6aac:	83 c4 10             	add    $0x10,%esp
    6aaf:	83 fe 63             	cmp    $0x63,%esi
    6ab2:	77 14                	ja     6ac8 <wait+0x30>
    6ab4:	89 f0                	mov    %esi,%eax
    6ab6:	c1 e0 04             	shl    $0x4,%eax
    6ab9:	8d 88 60 ef 00 00    	lea    0xef60(%eax),%ecx
    6abf:	80 b8 60 ef 00 00 01 	cmpb   $0x1,0xef60(%eax)
    6ac6:	75 13                	jne    6adb <wait+0x43>
    6ac8:	83 ec 0c             	sub    $0xc,%esp
    6acb:	8d 45 f6             	lea    0xfffffff6(%ebp),%eax
    6ace:	50                   	push   %eax
    6acf:	e8 10 9d ff ff       	call   7e4 <restore>
    6ad4:	b8 ff ff ff ff       	mov    $0xffffffff,%eax
    6ad9:	eb 69                	jmp    6b44 <wait+0xac>
    6adb:	ff 49 04             	decl   0x4(%ecx)
    6ade:	83 79 04 00          	cmpl   $0x0,0x4(%ecx)
    6ae2:	79 4f                	jns    6b33 <wait+0x9b>
    6ae4:	8b 15 e4 c8 00 00    	mov    0xc8e4,%edx
    6aea:	8d 04 52             	lea    (%edx,%edx,2),%eax
    6aed:	c1 e0 04             	shl    $0x4,%eax
    6af0:	01 d0                	add    %edx,%eax
    6af2:	c1 e0 02             	shl    $0x2,%eax
    6af5:	8d 98 00 c9 00 00    	lea    0xc900(%eax),%ebx
    6afb:	c6 80 00 c9 00 00 07 	movb   $0x7,0xc900(%eax)
    6b02:	89 73 10             	mov    %esi,0x10(%ebx)
    6b05:	83 ec 08             	sub    $0x8,%esp
    6b08:	ff 71 0c             	pushl  0xc(%ecx)
    6b0b:	52                   	push   %edx
    6b0c:	e8 e7 f2 ff ff       	call   5df8 <enqueue>
    6b11:	c7 83 a0 00 00 00 01 	movl   $0x1,0xa0(%ebx)
    6b18:	00 00 00 
    6b1b:	e8 48 f5 ff ff       	call   6068 <resched>
    6b20:	8d 45 f6             	lea    0xfffffff6(%ebp),%eax
    6b23:	89 04 24             	mov    %eax,(%esp)
    6b26:	e8 b9 9c ff ff       	call   7e4 <restore>
    6b2b:	8b 83 a0 00 00 00    	mov    0xa0(%ebx),%eax
    6b31:	eb 11                	jmp    6b44 <wait+0xac>
    6b33:	83 ec 0c             	sub    $0xc,%esp
    6b36:	8d 45 f6             	lea    0xfffffff6(%ebp),%eax
    6b39:	50                   	push   %eax
    6b3a:	e8 a5 9c ff ff       	call   7e4 <restore>
    6b3f:	b8 01 00 00 00       	mov    $0x1,%eax
    6b44:	8d 65 f8             	lea    0xfffffff8(%ebp),%esp
    6b47:	5b                   	pop    %ebx
    6b48:	5e                   	pop    %esi
    6b49:	5d                   	pop    %ebp
    6b4a:	c3                   	ret    
    6b4b:	90                   	nop    

00006b4c <wakeup>:
    6b4c:	55                   	push   %ebp
    6b4d:	89 e5                	mov    %esp,%ebp
    6b4f:	83 ec 08             	sub    $0x8,%esp
    6b52:	eb 1b                	jmp    6b6f <wakeup+0x23>
    6b54:	83 ec 08             	sub    $0x8,%esp
    6b57:	6a 00                	push   $0x0
    6b59:	ff 35 50 8f 01 00    	pushl  0x18f50
    6b5f:	e8 18 e3 ff ff       	call   4e7c <getfirst>
    6b64:	89 04 24             	mov    %eax,(%esp)
    6b67:	e8 28 f3 ff ff       	call   5e94 <ready>
    6b6c:	83 c4 10             	add    $0x10,%esp
    6b6f:	a1 50 8f 01 00       	mov    0x18f50,%eax
    6b74:	8d 04 40             	lea    (%eax,%eax,2),%eax
    6b77:	c1 e0 02             	shl    $0x2,%eax
    6b7a:	83 b8 84 7f 01 00 31 	cmpl   $0x31,0x17f84(%eax)
    6b81:	7f 13                	jg     6b96 <wakeup+0x4a>
    6b83:	8b 80 84 7f 01 00    	mov    0x17f84(%eax),%eax
    6b89:	8d 04 40             	lea    (%eax,%eax,2),%eax
    6b8c:	83 3c 85 80 7f 01 00 	cmpl   $0x0,0x17f80(,%eax,4)
    6b93:	00 
    6b94:	7e be                	jle    6b54 <wakeup+0x8>
    6b96:	a1 50 8f 01 00       	mov    0x18f50,%eax
    6b9b:	8d 04 40             	lea    (%eax,%eax,2),%eax
    6b9e:	8d 14 85 00 00 00 00 	lea    0x0(,%eax,4),%edx
    6ba5:	83 ba 84 7f 01 00 31 	cmpl   $0x31,0x17f84(%edx)
    6bac:	0f 9e c0             	setle  %al
    6baf:	25 ff 00 00 00       	and    $0xff,%eax
    6bb4:	a3 68 8f 01 00       	mov    %eax,0x18f68
    6bb9:	85 c0                	test   %eax,%eax
    6bbb:	74 15                	je     6bd2 <wakeup+0x86>
    6bbd:	8b 82 84 7f 01 00    	mov    0x17f84(%edx),%eax
    6bc3:	8d 04 40             	lea    (%eax,%eax,2),%eax
    6bc6:	8d 04 85 80 7f 01 00 	lea    0x17f80(,%eax,4),%eax
    6bcd:	a3 54 8f 01 00       	mov    %eax,0x18f54
    6bd2:	e8 91 f4 ff ff       	call   6068 <resched>
    6bd7:	b8 01 00 00 00       	mov    $0x1,%eax
    6bdc:	c9                   	leave  
    6bdd:	c3                   	ret    
    6bde:	90                   	nop    
    6bdf:	90                   	nop    

00006be0 <write>:
    6be0:	55                   	push   %ebp
    6be1:	89 e5                	mov    %esp,%ebp
    6be3:	83 ec 08             	sub    $0x8,%esp
    6be6:	8b 55 08             	mov    0x8(%ebp),%edx
    6be9:	b8 ff ff ff ff       	mov    $0xffffffff,%eax
    6bee:	83 fa 05             	cmp    $0x5,%edx
    6bf1:	77 17                	ja     6c0a <write+0x2a>
    6bf3:	8d 04 d2             	lea    (%edx,%edx,8),%eax
    6bf6:	8d 04 c5 e0 b2 00 00 	lea    0xb2e0(,%eax,8),%eax
    6bfd:	83 ec 04             	sub    $0x4,%esp
    6c00:	ff 75 10             	pushl  0x10(%ebp)
    6c03:	ff 75 0c             	pushl  0xc(%ebp)
    6c06:	50                   	push   %eax
    6c07:	ff 50 18             	call   *0x18(%eax)
    6c0a:	c9                   	leave  
    6c0b:	c3                   	ret    

00006c0c <xdone>:
    6c0c:	55                   	push   %ebp
    6c0d:	89 e5                	mov    %esp,%ebp
    6c0f:	83 ec 14             	sub    $0x14,%esp
    6c12:	68 e8 a4 00 00       	push   $0xa4e8
    6c17:	e8 4c ee ff ff       	call   5a68 <kprintf>
    6c1c:	b8 01 00 00 00       	mov    $0x1,%eax
    6c21:	c9                   	leave  
    6c22:	c3                   	ret    
    6c23:	90                   	nop    

00006c24 <pci_init>:
    6c24:	55                   	push   %ebp
    6c25:	89 e5                	mov    %esp,%ebp
    6c27:	83 ec 08             	sub    $0x8,%esp
    6c2a:	e8 45 00 00 00       	call   6c74 <pcibios_init>
    6c2f:	83 f8 01             	cmp    $0x1,%eax
    6c32:	75 20                	jne    6c54 <pci_init+0x30>
    6c34:	83 ec 0c             	sub    $0xc,%esp
    6c37:	68 d8 9d 00 00       	push   $0x9dd8
    6c3c:	e8 27 ee ff ff       	call   5a68 <kprintf>
    6c41:	c7 04 24 04 a0 00 00 	movl   $0xa004,(%esp)
    6c48:	e8 1b ee ff ff       	call   5a68 <kprintf>
    6c4d:	b8 01 00 00 00       	mov    $0x1,%eax
    6c52:	eb 1e                	jmp    6c72 <pci_init+0x4e>
    6c54:	83 ec 0c             	sub    $0xc,%esp
    6c57:	68 d8 9d 00 00       	push   $0x9dd8
    6c5c:	e8 07 ee ff ff       	call   5a68 <kprintf>
    6c61:	c7 04 24 65 a0 00 00 	movl   $0xa065,(%esp)
    6c68:	e8 fb ed ff ff       	call   5a68 <kprintf>
    6c6d:	b8 ff ff ff ff       	mov    $0xffffffff,%eax
    6c72:	c9                   	leave  
    6c73:	c3                   	ret    

00006c74 <pcibios_init>:
    6c74:	55                   	push   %ebp
    6c75:	89 e5                	mov    %esp,%ebp
    6c77:	56                   	push   %esi
    6c78:	53                   	push   %ebx
    6c79:	be 00 00 0e 00       	mov    $0xe0000,%esi
    6c7e:	81 3e 5f 33 32 5f    	cmpl   $0x5f32335f,(%esi)
    6c84:	75 7b                	jne    6d01 <pcibios_init+0x8d>
    6c86:	b1 00                	mov    $0x0,%cl
    6c88:	b8 00 00 00 00       	mov    $0x0,%eax
    6c8d:	8a 46 09             	mov    0x9(%esi),%al
    6c90:	c1 e0 04             	shl    $0x4,%eax
    6c93:	89 f3                	mov    %esi,%ebx
    6c95:	ba 00 00 00 00       	mov    $0x0,%edx
    6c9a:	39 c2                	cmp    %eax,%edx
    6c9c:	7d 08                	jge    6ca6 <pcibios_init+0x32>
    6c9e:	02 0c 13             	add    (%ebx,%edx,1),%cl
    6ca1:	42                   	inc    %edx
    6ca2:	39 c2                	cmp    %eax,%edx
    6ca4:	7c f8                	jl     6c9e <pcibios_init+0x2a>
    6ca6:	84 c9                	test   %cl,%cl
    6ca8:	74 13                	je     6cbd <pcibios_init+0x49>
    6caa:	83 ec 08             	sub    $0x8,%esp
    6cad:	56                   	push   %esi
    6cae:	68 00 9e 00 00       	push   $0x9e00
    6cb3:	e8 b0 ed ff ff       	call   5a68 <kprintf>
    6cb8:	83 c4 10             	add    $0x10,%esp
    6cbb:	eb 44                	jmp    6d01 <pcibios_init+0x8d>
    6cbd:	80 7e 08 00          	cmpb   $0x0,0x8(%esi)
    6cc1:	74 1c                	je     6cdf <pcibios_init+0x6b>
    6cc3:	83 ec 04             	sub    $0x4,%esp
    6cc6:	56                   	push   %esi
    6cc7:	b8 00 00 00 00       	mov    $0x0,%eax
    6ccc:	8a 46 08             	mov    0x8(%esi),%al
    6ccf:	50                   	push   %eax
    6cd0:	68 30 9e 00 00       	push   $0x9e30
    6cd5:	e8 8e ed ff ff       	call   5a68 <kprintf>
    6cda:	83 c4 10             	add    $0x10,%esp
    6cdd:	eb 22                	jmp    6d01 <pcibios_init+0x8d>
    6cdf:	89 35 c8 c6 00 00    	mov    %esi,0xc6c8
    6ce5:	8b 46 04             	mov    0x4(%esi),%eax
    6ce8:	a3 c0 c6 00 00       	mov    %eax,0xc6c0
    6ced:	a3 10 b6 00 00       	mov    %eax,0xb610
    6cf2:	e8 32 00 00 00       	call   6d29 <check_pcibios>
    6cf7:	83 f8 01             	cmp    $0x1,%eax
    6cfa:	19 c0                	sbb    %eax,%eax
    6cfc:	83 c8 01             	or     $0x1,%eax
    6cff:	eb 21                	jmp    6d22 <pcibios_init+0xae>
    6d01:	83 c6 10             	add    $0x10,%esi
    6d04:	81 fe f0 ff 0f 00    	cmp    $0xffff0,%esi
    6d0a:	0f 86 6e ff ff ff    	jbe    6c7e <pcibios_init+0xa>
    6d10:	83 ec 0c             	sub    $0xc,%esp
    6d13:	68 64 9e 00 00       	push   $0x9e64
    6d18:	e8 4b ed ff ff       	call   5a68 <kprintf>
    6d1d:	b8 ff ff ff ff       	mov    $0xffffffff,%eax
    6d22:	8d 65 f8             	lea    0xfffffff8(%ebp),%esp
    6d25:	5b                   	pop    %ebx
    6d26:	5e                   	pop    %esi
    6d27:	5d                   	pop    %ebp
    6d28:	c3                   	ret    

00006d29 <check_pcibios>:
    6d29:	55                   	push   %ebp
    6d2a:	89 e5                	mov    %esp,%ebp
    6d2c:	57                   	push   %edi
    6d2d:	56                   	push   %esi
    6d2e:	53                   	push   %ebx
    6d2f:	83 ec 18             	sub    $0x18,%esp
    6d32:	68 24 50 43 49       	push   $0x49435024
    6d37:	e8 e3 00 00 00       	call   6e1f <bios32_service>
    6d3c:	a3 c4 c6 00 00       	mov    %eax,0xc6c4
    6d41:	83 c4 10             	add    $0x10,%esp
    6d44:	85 c0                	test   %eax,%eax
    6d46:	0f 84 c6 00 00 00    	je     6e12 <check_pcibios+0xe9>
    6d4c:	bf 18 b6 00 00       	mov    $0xb618,%edi
    6d51:	a3 18 b6 00 00       	mov    %eax,0xb618
    6d56:	9c                   	pushf  
    6d57:	5e                   	pop    %esi
    6d58:	fa                   	cli    
    6d59:	b8 01 b1 00 00       	mov    $0xb101,%eax
    6d5e:	ff 1f                	lcall  *(%edi)
    6d60:	72 02                	jb     6d64 <check_pcibios+0x3b>
    6d62:	30 e4                	xor    %ah,%ah
    6d64:	c1 e0 08             	shl    $0x8,%eax
    6d67:	66 89 d8             	mov    %bx,%ax
    6d6a:	89 d7                	mov    %edx,%edi
    6d6c:	56                   	push   %esi
    6d6d:	9d                   	popf   
    6d6e:	89 c1                	mov    %eax,%ecx
    6d70:	c1 e9 10             	shr    $0x10,%ecx
    6d73:	89 c6                	mov    %eax,%esi
    6d75:	c1 ee 08             	shr    $0x8,%esi
    6d78:	88 c3                	mov    %al,%bl
    6d7a:	84 c9                	test   %cl,%cl
    6d7c:	0f 95 c2             	setne  %dl
    6d7f:	81 ff 50 43 49 20    	cmp    $0x20494350,%edi
    6d85:	0f 95 c0             	setne  %al
    6d88:	09 d0                	or     %edx,%eax
    6d8a:	a8 01                	test   $0x1,%al
    6d8c:	74 54                	je     6de2 <check_pcibios+0xb9>
    6d8e:	89 f8                	mov    %edi,%eax
    6d90:	c1 f8 18             	sar    $0x18,%eax
    6d93:	50                   	push   %eax
    6d94:	89 f8                	mov    %edi,%eax
    6d96:	c1 e8 10             	shr    $0x10,%eax
    6d99:	0f be c0             	movsbl %al,%eax
    6d9c:	50                   	push   %eax
    6d9d:	89 fa                	mov    %edi,%edx
    6d9f:	0f be c6             	movsbl %dh,%eax
    6da2:	50                   	push   %eax
    6da3:	0f be c2             	movsbl %dl,%eax
    6da6:	50                   	push   %eax
    6da7:	57                   	push   %edi
    6da8:	b8 00 00 00 00       	mov    $0x0,%eax
    6dad:	88 c8                	mov    %cl,%al
    6daf:	50                   	push   %eax
    6db0:	b8 0f a0 00 00       	mov    $0xa00f,%eax
    6db5:	81 ff 50 43 49 20    	cmp    $0x20494350,%edi
    6dbb:	74 05                	je     6dc2 <check_pcibios+0x99>
    6dbd:	b8 17 a0 00 00       	mov    $0xa017,%eax
    6dc2:	50                   	push   %eax
    6dc3:	68 a0 9e 00 00       	push   $0x9ea0
    6dc8:	e8 9b ec ff ff       	call   5a68 <kprintf>
    6dcd:	83 c4 20             	add    $0x20,%esp
    6dd0:	81 ff 50 43 49 20    	cmp    $0x20494350,%edi
    6dd6:	74 0a                	je     6de2 <check_pcibios+0xb9>
    6dd8:	c7 05 c4 c6 00 00 00 	movl   $0x0,0xc6c4
    6ddf:	00 00 00 
    6de2:	83 3d c4 c6 00 00 00 	cmpl   $0x0,0xc6c4
    6de9:	74 27                	je     6e12 <check_pcibios+0xe9>
    6deb:	ff 35 c4 c6 00 00    	pushl  0xc6c4
    6df1:	b8 00 00 00 00       	mov    $0x0,%eax
    6df6:	88 d8                	mov    %bl,%al
    6df8:	50                   	push   %eax
    6df9:	89 f0                	mov    %esi,%eax
    6dfb:	25 ff 00 00 00       	and    $0xff,%eax
    6e00:	50                   	push   %eax
    6e01:	68 60 9f 00 00       	push   $0x9f60
    6e06:	e8 5d ec ff ff       	call   5a68 <kprintf>
    6e0b:	b8 01 00 00 00       	mov    $0x1,%eax
    6e10:	eb 05                	jmp    6e17 <check_pcibios+0xee>
    6e12:	b8 00 00 00 00       	mov    $0x0,%eax
    6e17:	8d 65 f4             	lea    0xfffffff4(%ebp),%esp
    6e1a:	5b                   	pop    %ebx
    6e1b:	5e                   	pop    %esi
    6e1c:	5f                   	pop    %edi
    6e1d:	5d                   	pop    %ebp
    6e1e:	c3                   	ret    

00006e1f <bios32_service>:
    6e1f:	55                   	push   %ebp
    6e20:	89 e5                	mov    %esp,%ebp
    6e22:	57                   	push   %edi
    6e23:	56                   	push   %esi
    6e24:	53                   	push   %ebx
    6e25:	83 ec 0c             	sub    $0xc,%esp
    6e28:	9c                   	pushf  
    6e29:	5e                   	pop    %esi
    6e2a:	fa                   	cli    
    6e2b:	bb 00 00 00 00       	mov    $0x0,%ebx
    6e30:	bf 10 b6 00 00       	mov    $0xb610,%edi
    6e35:	8b 45 08             	mov    0x8(%ebp),%eax
    6e38:	90                   	nop    
    6e39:	90                   	nop    
    6e3a:	ff 1f                	lcall  *(%edi)
    6e3c:	89 c7                	mov    %eax,%edi
    6e3e:	56                   	push   %esi
    6e3f:	9d                   	popf   
    6e40:	25 ff 00 00 00       	and    $0xff,%eax
    6e45:	85 c0                	test   %eax,%eax
    6e47:	74 09                	je     6e52 <bios32_service+0x33>
    6e49:	3d 80 00 00 00       	cmp    $0x80,%eax
    6e4e:	74 07                	je     6e57 <bios32_service+0x38>
    6e50:	eb 1c                	jmp    6e6e <bios32_service+0x4f>
    6e52:	8d 04 13             	lea    (%ebx,%edx,1),%eax
    6e55:	eb 34                	jmp    6e8b <bios32_service+0x6c>
    6e57:	83 ec 08             	sub    $0x8,%esp
    6e5a:	ff 75 08             	pushl  0x8(%ebp)
    6e5d:	68 a0 9f 00 00       	push   $0x9fa0
    6e62:	e8 01 ec ff ff       	call   5a68 <kprintf>
    6e67:	b8 00 00 00 00       	mov    $0x0,%eax
    6e6c:	eb 1d                	jmp    6e8b <bios32_service+0x6c>
    6e6e:	83 ec 04             	sub    $0x4,%esp
    6e71:	89 f8                	mov    %edi,%eax
    6e73:	25 ff 00 00 00       	and    $0xff,%eax
    6e78:	50                   	push   %eax
    6e79:	ff 75 08             	pushl  0x8(%ebp)
    6e7c:	68 cc 9f 00 00       	push   $0x9fcc
    6e81:	e8 e2 eb ff ff       	call   5a68 <kprintf>
    6e86:	b8 00 00 00 00       	mov    $0x0,%eax
    6e8b:	8d 65 f4             	lea    0xfffffff4(%ebp),%esp
    6e8e:	5b                   	pop    %ebx
    6e8f:	5e                   	pop    %esi
    6e90:	5f                   	pop    %edi
    6e91:	5d                   	pop    %ebp
    6e92:	c3                   	ret    

00006e93 <find_pci_device>:
    6e93:	55                   	push   %ebp
    6e94:	89 e5                	mov    %esp,%ebp
    6e96:	57                   	push   %edi
    6e97:	56                   	push   %esi
    6e98:	53                   	push   %ebx
    6e99:	8b 4d 08             	mov    0x8(%ebp),%ecx
    6e9c:	8b 55 0c             	mov    0xc(%ebp),%edx
    6e9f:	8b 75 10             	mov    0x10(%ebp),%esi
    6ea2:	b8 02 b1 00 00       	mov    $0xb102,%eax
    6ea7:	bf 18 b6 00 00       	mov    $0xb618,%edi
    6eac:	ff 1f                	lcall  *(%edi)
    6eae:	31 c9                	xor    %ecx,%ecx
    6eb0:	c1 e8 08             	shr    $0x8,%eax
    6eb3:	89 da                	mov    %ebx,%edx
    6eb5:	84 c0                	test   %al,%al
    6eb7:	74 05                	je     6ebe <find_pci_device+0x2b>
    6eb9:	ba ff ff ff ff       	mov    $0xffffffff,%edx
    6ebe:	89 d0                	mov    %edx,%eax
    6ec0:	5b                   	pop    %ebx
    6ec1:	5e                   	pop    %esi
    6ec2:	5f                   	pop    %edi
    6ec3:	5d                   	pop    %ebp
    6ec4:	c3                   	ret    

00006ec5 <find_pci_class>:
    6ec5:	55                   	push   %ebp
    6ec6:	89 e5                	mov    %esp,%ebp
    6ec8:	57                   	push   %edi
    6ec9:	56                   	push   %esi
    6eca:	53                   	push   %ebx
    6ecb:	83 ec 10             	sub    $0x10,%esp
    6ece:	8b 75 0c             	mov    0xc(%ebp),%esi
    6ed1:	56                   	push   %esi
    6ed2:	ff 75 08             	pushl  0x8(%ebp)
    6ed5:	68 10 a5 00 00       	push   $0xa510
    6eda:	e8 89 eb ff ff       	call   5a68 <kprintf>
    6edf:	9c                   	pushf  
    6ee0:	5a                   	pop    %edx
    6ee1:	fa                   	cli    
    6ee2:	b8 03 b1 00 00       	mov    $0xb103,%eax
    6ee7:	bf 18 b6 00 00       	mov    $0xb618,%edi
    6eec:	8b 4d 08             	mov    0x8(%ebp),%ecx
    6eef:	ff 1f                	lcall  *(%edi)
    6ef1:	89 ce                	mov    %ecx,%esi
    6ef3:	52                   	push   %edx
    6ef4:	9d                   	popf   
    6ef5:	83 c4 08             	add    $0x8,%esp
    6ef8:	50                   	push   %eax
    6ef9:	68 93 a5 00 00       	push   $0xa593
    6efe:	e8 65 eb ff ff       	call   5a68 <kprintf>
    6f03:	83 c4 08             	add    $0x8,%esp
    6f06:	53                   	push   %ebx
    6f07:	68 a4 a5 00 00       	push   $0xa5a4
    6f0c:	e8 57 eb ff ff       	call   5a68 <kprintf>
    6f11:	83 c4 08             	add    $0x8,%esp
    6f14:	56                   	push   %esi
    6f15:	68 b5 a5 00 00       	push   $0xa5b5
    6f1a:	e8 49 eb ff ff       	call   5a68 <kprintf>
    6f1f:	b8 01 00 00 00       	mov    $0x1,%eax
    6f24:	8d 65 f4             	lea    0xfffffff4(%ebp),%esp
    6f27:	5b                   	pop    %ebx
    6f28:	5e                   	pop    %esi
    6f29:	5f                   	pop    %edi
    6f2a:	5d                   	pop    %ebp
    6f2b:	c3                   	ret    

00006f2c <scan_pci_bios>:
    6f2c:	55                   	push   %ebp
    6f2d:	89 e5                	mov    %esp,%ebp
    6f2f:	57                   	push   %edi
    6f30:	56                   	push   %esi
    6f31:	53                   	push   %ebx
    6f32:	83 ec 3c             	sub    $0x3c,%esp
    6f35:	c7 45 d8 86 80 00 00 	movl   $0x8086,0xffffffd8(%ebp)
    6f3c:	c7 45 dc 27 a7 00 00 	movl   $0xa727,0xffffffdc(%ebp)
    6f43:	c7 45 e0 b7 10 00 00 	movl   $0x10b7,0xffffffe0(%ebp)
    6f4a:	c7 45 d0 00 00 00 00 	movl   $0x0,0xffffffd0(%ebp)
    6f51:	8b 45 d0             	mov    0xffffffd0(%ebp),%eax
    6f54:	8b 44 85 d8          	mov    0xffffffd8(%ebp,%eax,4),%eax
    6f58:	89 45 c4             	mov    %eax,0xffffffc4(%ebp)
    6f5b:	c7 45 d4 00 00 00 00 	movl   $0x0,0xffffffd4(%ebp)
    6f62:	be 00 00 00 00       	mov    $0x0,%esi
    6f67:	bf 18 b6 00 00       	mov    $0xb618,%edi
    6f6c:	b8 02 b1 00 00       	mov    $0xb102,%eax
    6f71:	8b 4d d4             	mov    0xffffffd4(%ebp),%ecx
    6f74:	8b 55 c4             	mov    0xffffffc4(%ebp),%edx
    6f77:	ff 1f                	lcall  *(%edi)
    6f79:	c1 e8 08             	shr    $0x8,%eax
    6f7c:	74 09                	je     6f87 <scan_pci_bios+0x5b>
    6f7e:	3d 86 00 00 00       	cmp    $0x86,%eax
    6f83:	74 1c                	je     6fa1 <scan_pci_bios+0x75>
    6f85:	eb 21                	jmp    6fa8 <scan_pci_bios+0x7c>
    6f87:	83 ec 0c             	sub    $0xc,%esp
    6f8a:	53                   	push   %ebx
    6f8b:	56                   	push   %esi
    6f8c:	ff 75 d4             	pushl  0xffffffd4(%ebp)
    6f8f:	ff 75 c4             	pushl  0xffffffc4(%ebp)
    6f92:	68 38 a5 00 00       	push   $0xa538
    6f97:	e8 cc ea ff ff       	call   5a68 <kprintf>
    6f9c:	83 c4 20             	add    $0x20,%esp
    6f9f:	eb 27                	jmp    6fc8 <scan_pci_bios+0x9c>
    6fa1:	be ff 00 00 00       	mov    $0xff,%esi
    6fa6:	eb 20                	jmp    6fc8 <scan_pci_bios+0x9c>
    6fa8:	56                   	push   %esi
    6fa9:	ff 75 d4             	pushl  0xffffffd4(%ebp)
    6fac:	ff 75 c4             	pushl  0xffffffc4(%ebp)
    6faf:	68 68 a5 00 00       	push   $0xa568
    6fb4:	e8 af ea ff ff       	call   5a68 <kprintf>
    6fb9:	c7 04 24 c6 a5 00 00 	movl   $0xa5c6,(%esp)
    6fc0:	e8 43 ed ff ff       	call   5d08 <panic>
    6fc5:	83 c4 10             	add    $0x10,%esp
    6fc8:	46                   	inc    %esi
    6fc9:	81 fe fe 00 00 00    	cmp    $0xfe,%esi
    6fcf:	76 96                	jbe    6f67 <scan_pci_bios+0x3b>
    6fd1:	ff 45 d4             	incl   0xffffffd4(%ebp)
    6fd4:	81 7d d4 fe ff 00 00 	cmpl   $0xfffe,0xffffffd4(%ebp)
    6fdb:	76 85                	jbe    6f62 <scan_pci_bios+0x36>
    6fdd:	ff 45 d0             	incl   0xffffffd0(%ebp)
    6fe0:	83 7d d0 02          	cmpl   $0x2,0xffffffd0(%ebp)
    6fe4:	0f 8e 67 ff ff ff    	jle    6f51 <scan_pci_bios+0x25>
    6fea:	b8 01 00 00 00       	mov    $0x1,%eax
    6fef:	8d 65 f4             	lea    0xfffffff4(%ebp),%esp
    6ff2:	5b                   	pop    %ebx
    6ff3:	5e                   	pop    %esi
    6ff4:	5f                   	pop    %edi
    6ff5:	5d                   	pop    %ebp
    6ff6:	c3                   	ret    

00006ff7 <pci_bios_read_config_byte>:
    6ff7:	55                   	push   %ebp
    6ff8:	89 e5                	mov    %esp,%ebp
    6ffa:	57                   	push   %edi
    6ffb:	56                   	push   %esi
    6ffc:	53                   	push   %ebx
    6ffd:	8b 5d 08             	mov    0x8(%ebp),%ebx
    7000:	8b 7d 0c             	mov    0xc(%ebp),%edi
    7003:	b8 08 b1 00 00       	mov    $0xb108,%eax
    7008:	be 18 b6 00 00       	mov    $0xb618,%esi
    700d:	ff 1e                	lcall  *(%esi)
    700f:	fc                   	cld    
    7010:	72 02                	jb     7014 <pci_bios_read_config_byte+0x1d>
    7012:	30 e4                	xor    %ah,%ah
    7014:	8b 55 10             	mov    0x10(%ebp),%edx
    7017:	88 0a                	mov    %cl,(%edx)
    7019:	0f b6 c4             	movzbl %ah,%eax
    701c:	5b                   	pop    %ebx
    701d:	5e                   	pop    %esi
    701e:	5f                   	pop    %edi
    701f:	5d                   	pop    %ebp
    7020:	c3                   	ret    

00007021 <pci_bios_read_config_word>:
    7021:	55                   	push   %ebp
    7022:	89 e5                	mov    %esp,%ebp
    7024:	57                   	push   %edi
    7025:	56                   	push   %esi
    7026:	53                   	push   %ebx
    7027:	8b 5d 08             	mov    0x8(%ebp),%ebx
    702a:	8b 7d 0c             	mov    0xc(%ebp),%edi
    702d:	b8 09 b1 00 00       	mov    $0xb109,%eax
    7032:	be 18 b6 00 00       	mov    $0xb618,%esi
    7037:	ff 1e                	lcall  *(%esi)
    7039:	fc                   	cld    
    703a:	72 02                	jb     703e <pci_bios_read_config_word+0x1d>
    703c:	30 e4                	xor    %ah,%ah
    703e:	8b 55 10             	mov    0x10(%ebp),%edx
    7041:	66 89 0a             	mov    %cx,(%edx)
    7044:	0f b6 c4             	movzbl %ah,%eax
    7047:	5b                   	pop    %ebx
    7048:	5e                   	pop    %esi
    7049:	5f                   	pop    %edi
    704a:	5d                   	pop    %ebp
    704b:	c3                   	ret    

0000704c <pci_bios_read_config_dword>:
    704c:	55                   	push   %ebp
    704d:	89 e5                	mov    %esp,%ebp
    704f:	57                   	push   %edi
    7050:	56                   	push   %esi
    7051:	53                   	push   %ebx
    7052:	8b 5d 08             	mov    0x8(%ebp),%ebx
    7055:	8b 7d 0c             	mov    0xc(%ebp),%edi
    7058:	b8 0a b1 00 00       	mov    $0xb10a,%eax
    705d:	be 18 b6 00 00       	mov    $0xb618,%esi
    7062:	ff 1e                	lcall  *(%esi)
    7064:	fc                   	cld    
    7065:	72 02                	jb     7069 <pci_bios_read_config_dword+0x1d>
    7067:	30 e4                	xor    %ah,%ah
    7069:	8b 55 10             	mov    0x10(%ebp),%edx
    706c:	89 0a                	mov    %ecx,(%edx)
    706e:	0f b6 c4             	movzbl %ah,%eax
    7071:	5b                   	pop    %ebx
    7072:	5e                   	pop    %esi
    7073:	5f                   	pop    %edi
    7074:	5d                   	pop    %ebp
    7075:	c3                   	ret    

00007076 <pci_bios_write_config_byte>:
    7076:	55                   	push   %ebp
    7077:	89 e5                	mov    %esp,%ebp
    7079:	57                   	push   %edi
    707a:	56                   	push   %esi
    707b:	53                   	push   %ebx
    707c:	8b 5d 08             	mov    0x8(%ebp),%ebx
    707f:	8b 7d 0c             	mov    0xc(%ebp),%edi
    7082:	8a 4d 10             	mov    0x10(%ebp),%cl
    7085:	b8 0b b1 00 00       	mov    $0xb10b,%eax
    708a:	be 18 b6 00 00       	mov    $0xb618,%esi
    708f:	ff 1e                	lcall  *(%esi)
    7091:	fc                   	cld    
    7092:	72 02                	jb     7096 <pci_bios_write_config_byte+0x20>
    7094:	30 e4                	xor    %ah,%ah
    7096:	0f b6 c4             	movzbl %ah,%eax
    7099:	5b                   	pop    %ebx
    709a:	5e                   	pop    %esi
    709b:	5f                   	pop    %edi
    709c:	5d                   	pop    %ebp
    709d:	c3                   	ret    

0000709e <pci_bios_write_config_word>:
    709e:	55                   	push   %ebp
    709f:	89 e5                	mov    %esp,%ebp
    70a1:	57                   	push   %edi
    70a2:	56                   	push   %esi
    70a3:	53                   	push   %ebx
    70a4:	8b 5d 08             	mov    0x8(%ebp),%ebx
    70a7:	8b 7d 0c             	mov    0xc(%ebp),%edi
    70aa:	8b 4d 10             	mov    0x10(%ebp),%ecx
    70ad:	b8 0c b1 00 00       	mov    $0xb10c,%eax
    70b2:	be 18 b6 00 00       	mov    $0xb618,%esi
    70b7:	ff 1e                	lcall  *(%esi)
    70b9:	fc                   	cld    
    70ba:	72 02                	jb     70be <pci_bios_write_config_word+0x20>
    70bc:	30 e4                	xor    %ah,%ah
    70be:	0f b6 c4             	movzbl %ah,%eax
    70c1:	5b                   	pop    %ebx
    70c2:	5e                   	pop    %esi
    70c3:	5f                   	pop    %edi
    70c4:	5d                   	pop    %ebp
    70c5:	c3                   	ret    

000070c6 <pci_bios_write_config_dword>:
    70c6:	55                   	push   %ebp
    70c7:	89 e5                	mov    %esp,%ebp
    70c9:	57                   	push   %edi
    70ca:	56                   	push   %esi
    70cb:	53                   	push   %ebx
    70cc:	8b 5d 08             	mov    0x8(%ebp),%ebx
    70cf:	8b 7d 0c             	mov    0xc(%ebp),%edi
    70d2:	8b 4d 10             	mov    0x10(%ebp),%ecx
    70d5:	b8 0d b1 00 00       	mov    $0xb10d,%eax
    70da:	be 18 b6 00 00       	mov    $0xb618,%esi
    70df:	ff 1e                	lcall  *(%esi)
    70e1:	fc                   	cld    
    70e2:	72 02                	jb     70e6 <pci_bios_write_config_dword+0x20>
    70e4:	30 e4                	xor    %ah,%ah
    70e6:	0f b6 c4             	movzbl %ah,%eax
    70e9:	5b                   	pop    %ebx
    70ea:	5e                   	pop    %esi
    70eb:	5f                   	pop    %edi
    70ec:	5d                   	pop    %ebp
    70ed:	c3                   	ret    
    70ee:	90                   	nop    
    70ef:	90                   	nop    

000070f0 <ttyalloc>:
    70f0:	55                   	push   %ebp
    70f1:	89 e5                	mov    %esp,%ebp
    70f3:	53                   	push   %ebx
    70f4:	83 ec 10             	sub    $0x10,%esp
    70f7:	8d 45 fa             	lea    0xfffffffa(%ebp),%eax
    70fa:	50                   	push   %eax
    70fb:	e8 bc 96 ff ff       	call   7bc <disable>
    7100:	ba 00 00 00 00       	mov    $0x0,%edx
    7105:	83 c4 10             	add    $0x10,%esp
    7108:	8d 04 d2             	lea    (%edx,%edx,8),%eax
    710b:	8d 04 c2             	lea    (%edx,%eax,8),%eax
    710e:	8d 1c c5 00 00 00 00 	lea    0x0(,%eax,8),%ebx
    7115:	80 bb a0 91 01 00 00 	cmpb   $0x0,0x191a0(%ebx)
    711c:	75 1b                	jne    7139 <ttyalloc+0x49>
    711e:	c6 83 a0 91 01 00 01 	movb   $0x1,0x191a0(%ebx)
    7125:	83 ec 0c             	sub    $0xc,%esp
    7128:	8d 45 fa             	lea    0xfffffffa(%ebp),%eax
    712b:	50                   	push   %eax
    712c:	e8 b3 96 ff ff       	call   7e4 <restore>
    7131:	8d 83 a0 91 01 00    	lea    0x191a0(%ebx),%eax
    7137:	eb 17                	jmp    7150 <ttyalloc+0x60>
    7139:	42                   	inc    %edx
    713a:	83 fa 03             	cmp    $0x3,%edx
    713d:	7e c9                	jle    7108 <ttyalloc+0x18>
    713f:	83 ec 0c             	sub    $0xc,%esp
    7142:	8d 45 fa             	lea    0xfffffffa(%ebp),%eax
    7145:	50                   	push   %eax
    7146:	e8 99 96 ff ff       	call   7e4 <restore>
    714b:	b8 00 00 00 00       	mov    $0x0,%eax
    7150:	8b 5d fc             	mov    0xfffffffc(%ebp),%ebx
    7153:	c9                   	leave  
    7154:	c3                   	ret    
    7155:	90                   	nop    
    7156:	90                   	nop    
    7157:	90                   	nop    

00007158 <ttycntl>:
    7158:	55                   	push   %ebp
    7159:	89 e5                	mov    %esp,%ebp
    715b:	56                   	push   %esi
    715c:	53                   	push   %ebx
    715d:	83 ec 10             	sub    $0x10,%esp
    7160:	8b 55 0c             	mov    0xc(%ebp),%edx
    7163:	8b 4d 10             	mov    0x10(%ebp),%ecx
    7166:	8b 45 08             	mov    0x8(%ebp),%eax
    7169:	8b 70 40             	mov    0x40(%eax),%esi
    716c:	83 fa 07             	cmp    $0x7,%edx
    716f:	0f 87 a7 00 00 00    	ja     721c <ttycntl+0xc4>
    7175:	ff 24 95 d8 a5 00 00 	jmp    *0xa5d8(,%edx,4)
    717c:	89 4e 18             	mov    %ecx,0x18(%esi)
    717f:	b8 01 00 00 00       	mov    $0x1,%eax
    7184:	e9 98 00 00 00       	jmp    7221 <ttycntl+0xc9>
    7189:	85 c9                	test   %ecx,%ecx
    718b:	74 09                	je     7196 <ttycntl+0x3e>
    718d:	80 8e 2c 01 00 00 02 	orb    $0x2,0x12c(%esi)
    7194:	eb 07                	jmp    719d <ttycntl+0x45>
    7196:	80 a6 2c 01 00 00 fd 	andb   $0xfd,0x12c(%esi)
    719d:	b8 01 00 00 00       	mov    $0x1,%eax
    71a2:	eb 7d                	jmp    7221 <ttycntl+0xc9>
    71a4:	b8 00 00 00 00       	mov    $0x0,%eax
    71a9:	8a 46 20             	mov    0x20(%esi),%al
    71ac:	eb 73                	jmp    7221 <ttycntl+0xc9>
    71ae:	b8 00 00 00 00       	mov    $0x0,%eax
    71b3:	8a 86 2c 01 00 00    	mov    0x12c(%esi),%al
    71b9:	eb 66                	jmp    7221 <ttycntl+0xc9>
    71bb:	83 ec 0c             	sub    $0xc,%esp
    71be:	8d 45 f6             	lea    0xfffffff6(%ebp),%eax
    71c1:	50                   	push   %eax
    71c2:	e8 f5 95 ff ff       	call   7bc <disable>
    71c7:	83 c4 04             	add    $0x4,%esp
    71ca:	ff 76 1c             	pushl  0x1c(%esi)
    71cd:	e8 c6 f8 ff ff       	call   6a98 <wait>
    71d2:	66 8b 46 22          	mov    0x22(%esi),%ax
    71d6:	25 ff ff 00 00       	and    $0xffff,%eax
    71db:	8a 5c 30 26          	mov    0x26(%eax,%esi,1),%bl
    71df:	83 c4 04             	add    $0x4,%esp
    71e2:	ff 76 1c             	pushl  0x1c(%esi)
    71e5:	e8 f6 f2 ff ff       	call   64e0 <signal>
    71ea:	8d 45 f6             	lea    0xfffffff6(%ebp),%eax
    71ed:	89 04 24             	mov    %eax,(%esp)
    71f0:	e8 ef 95 ff ff       	call   7e4 <restore>
    71f5:	b8 00 00 00 00       	mov    $0x0,%eax
    71fa:	88 d8                	mov    %bl,%al
    71fc:	eb 23                	jmp    7221 <ttycntl+0xc9>
    71fe:	89 8e 3c 02 00 00    	mov    %ecx,0x23c(%esi)
    7204:	b8 01 00 00 00       	mov    $0x1,%eax
    7209:	eb 16                	jmp    7221 <ttycntl+0xc9>
    720b:	c7 86 3c 02 00 00 ff 	movl   $0xffffffff,0x23c(%esi)
    7212:	ff ff ff 
    7215:	b8 01 00 00 00       	mov    $0x1,%eax
    721a:	eb 05                	jmp    7221 <ttycntl+0xc9>
    721c:	b8 ff ff ff ff       	mov    $0xffffffff,%eax
    7221:	8d 65 f8             	lea    0xfffffff8(%ebp),%esp
    7224:	5b                   	pop    %ebx
    7225:	5e                   	pop    %esi
    7226:	5d                   	pop    %ebp
    7227:	c3                   	ret    

00007228 <ttygetc>:
    7228:	55                   	push   %ebp
    7229:	89 e5                	mov    %esp,%ebp
    722b:	83 ec 0c             	sub    $0xc,%esp
    722e:	6a 01                	push   $0x1
    7230:	8d 45 ff             	lea    0xffffffff(%ebp),%eax
    7233:	50                   	push   %eax
    7234:	ff 75 08             	pushl  0x8(%ebp)
    7237:	e8 84 06 00 00       	call   78c0 <ttyread>
    723c:	89 c2                	mov    %eax,%edx
    723e:	83 c4 10             	add    $0x10,%esp
    7241:	b8 ff ff ff ff       	mov    $0xffffffff,%eax
    7246:	85 d2                	test   %edx,%edx
    7248:	78 11                	js     725b <ttygetc+0x33>
    724a:	b8 fe ff ff ff       	mov    $0xfffffffe,%eax
    724f:	85 d2                	test   %edx,%edx
    7251:	74 08                	je     725b <ttygetc+0x33>
    7253:	b8 00 00 00 00       	mov    $0x0,%eax
    7258:	8a 45 ff             	mov    0xffffffff(%ebp),%al
    725b:	c9                   	leave  
    725c:	c3                   	ret    
    725d:	90                   	nop    
    725e:	90                   	nop    
    725f:	90                   	nop    

00007260 <ttyiin>:
    7260:	55                   	push   %ebp
    7261:	89 e5                	mov    %esp,%ebp
    7263:	56                   	push   %esi
    7264:	53                   	push   %ebx
    7265:	8a 5d 0c             	mov    0xc(%ebp),%bl
    7268:	8b 45 08             	mov    0x8(%ebp),%eax
    726b:	8b 70 40             	mov    0x40(%eax),%esi
    726e:	80 fb 0a             	cmp    $0xa,%bl
    7271:	75 12                	jne    7285 <ttyiin+0x25>
    7273:	b8 01 00 00 00       	mov    $0x1,%eax
    7278:	80 3d cc c6 00 00 0d 	cmpb   $0xd,0xc6cc
    727f:	0f 84 e7 00 00 00    	je     736c <ttyiin+0x10c>
    7285:	88 1d cc c6 00 00    	mov    %bl,0xc6cc
    728b:	80 fb 0d             	cmp    $0xd,%bl
    728e:	75 02                	jne    7292 <ttyiin+0x32>
    7290:	b3 0a                	mov    $0xa,%bl
    7292:	f6 46 20 04          	testb  $0x4,0x20(%esi)
    7296:	74 1b                	je     72b3 <ttyiin+0x53>
    7298:	83 ec 08             	sub    $0x8,%esp
    729b:	b8 00 00 00 00       	mov    $0x0,%eax
    72a0:	88 d8                	mov    %bl,%al
    72a2:	50                   	push   %eax
    72a3:	56                   	push   %esi
    72a4:	e8 ca 00 00 00       	call   7373 <iputchar>
    72a9:	b8 01 00 00 00       	mov    $0x1,%eax
    72ae:	e9 b9 00 00 00       	jmp    736c <ttyiin+0x10c>
    72b3:	8d 46 0c             	lea    0xc(%esi),%eax
    72b6:	38 5e 0c             	cmp    %bl,0xc(%esi)
    72b9:	75 13                	jne    72ce <ttyiin+0x6e>
    72bb:	83 ec 0c             	sub    $0xc,%esp
    72be:	56                   	push   %esi
    72bf:	e8 d9 01 00 00       	call   749d <delchar>
    72c4:	b8 01 00 00 00       	mov    $0x1,%eax
    72c9:	e9 9e 00 00 00       	jmp    736c <ttyiin+0x10c>
    72ce:	38 58 09             	cmp    %bl,0x9(%eax)
    72d1:	75 13                	jne    72e6 <ttyiin+0x86>
    72d3:	83 ec 0c             	sub    $0xc,%esp
    72d6:	56                   	push   %esi
    72d7:	e8 df 02 00 00       	call   75bb <delword>
    72dc:	b8 01 00 00 00       	mov    $0x1,%eax
    72e1:	e9 86 00 00 00       	jmp    736c <ttyiin+0x10c>
    72e6:	38 58 04             	cmp    %bl,0x4(%eax)
    72e9:	75 10                	jne    72fb <ttyiin+0x9b>
    72eb:	83 ec 0c             	sub    $0xc,%esp
    72ee:	56                   	push   %esi
    72ef:	e8 ae 03 00 00       	call   76a2 <reprint>
    72f4:	b8 01 00 00 00       	mov    $0x1,%eax
    72f9:	eb 71                	jmp    736c <ttyiin+0x10c>
    72fb:	38 58 01             	cmp    %bl,0x1(%eax)
    72fe:	75 14                	jne    7314 <ttyiin+0xb4>
    7300:	83 ec 08             	sub    $0x8,%esp
    7303:	6a fc                	push   $0xfffffffc
    7305:	ff 76 18             	pushl  0x18(%esi)
    7308:	e8 97 f0 ff ff       	call   63a4 <send>
    730d:	b8 01 00 00 00       	mov    $0x1,%eax
    7312:	eb 58                	jmp    736c <ttyiin+0x10c>
    7314:	38 58 05             	cmp    %bl,0x5(%eax)
    7317:	75 04                	jne    731d <ttyiin+0xbd>
    7319:	80 4e 20 20          	orb    $0x20,0x20(%esi)
    731d:	83 ec 08             	sub    $0x8,%esp
    7320:	b8 00 00 00 00       	mov    $0x0,%eax
    7325:	88 d8                	mov    %bl,%al
    7327:	50                   	push   %eax
    7328:	56                   	push   %esi
    7329:	e8 45 00 00 00       	call   7373 <iputchar>
    732e:	b8 00 00 00 00       	mov    $0x0,%eax
    7333:	8a 46 20             	mov    0x20(%esi),%al
    7336:	83 c4 10             	add    $0x10,%esp
    7339:	a8 0c                	test   $0xc,%al
    733b:	75 0a                	jne    7347 <ttyiin+0xe7>
    733d:	38 5e 16             	cmp    %bl,0x16(%esi)
    7340:	74 05                	je     7347 <ttyiin+0xe7>
    7342:	38 5e 11             	cmp    %bl,0x11(%esi)
    7345:	75 20                	jne    7367 <ttyiin+0x107>
    7347:	83 ec 0c             	sub    $0xc,%esp
    734a:	ff 76 1c             	pushl  0x1c(%esi)
    734d:	e8 c2 ee ff ff       	call   6214 <scount>
    7352:	83 c4 10             	add    $0x10,%esp
    7355:	85 c0                	test   %eax,%eax
    7357:	7f 0e                	jg     7367 <ttyiin+0x107>
    7359:	83 ec 0c             	sub    $0xc,%esp
    735c:	ff 76 1c             	pushl  0x1c(%esi)
    735f:	e8 7c f1 ff ff       	call   64e0 <signal>
    7364:	83 c4 10             	add    $0x10,%esp
    7367:	b8 01 00 00 00       	mov    $0x1,%eax
    736c:	8d 65 f8             	lea    0xfffffff8(%ebp),%esp
    736f:	5b                   	pop    %ebx
    7370:	5e                   	pop    %esi
    7371:	5d                   	pop    %ebp
    7372:	c3                   	ret    

00007373 <iputchar>:
    7373:	55                   	push   %ebp
    7374:	89 e5                	mov    %esp,%ebp
    7376:	53                   	push   %ebx
    7377:	83 ec 04             	sub    $0x4,%esp
    737a:	8b 4d 08             	mov    0x8(%ebp),%ecx
    737d:	8a 5d 0c             	mov    0xc(%ebp),%bl
    7380:	8b 41 04             	mov    0x4(%ecx),%eax
    7383:	66 81 79 24 ff 00    	cmpw   $0xff,0x24(%ecx)
    7389:	76 12                	jbe    739d <iputchar+0x2a>
    738b:	83 ec 08             	sub    $0x8,%esp
    738e:	6a 07                	push   $0x7
    7390:	50                   	push   %eax
    7391:	e8 0e 05 00 00       	call   78a4 <ttyputc>
    7396:	b8 01 00 00 00       	mov    $0x1,%eax
    739b:	eb 4e                	jmp    73eb <iputchar+0x78>
    739d:	66 8b 41 22          	mov    0x22(%ecx),%ax
    73a1:	89 c2                	mov    %eax,%edx
    73a3:	81 e2 ff ff 00 00    	and    $0xffff,%edx
    73a9:	66 8b 41 24          	mov    0x24(%ecx),%ax
    73ad:	25 ff ff 00 00       	and    $0xffff,%eax
    73b2:	01 c2                	add    %eax,%edx
    73b4:	81 fa ff 00 00 00    	cmp    $0xff,%edx
    73ba:	7e 06                	jle    73c2 <iputchar+0x4f>
    73bc:	81 ea 00 01 00 00    	sub    $0x100,%edx
    73c2:	88 5c 0a 26          	mov    %bl,0x26(%edx,%ecx,1)
    73c6:	66 ff 41 24          	incw   0x24(%ecx)
    73ca:	b8 01 00 00 00       	mov    $0x1,%eax
    73cf:	f6 41 20 02          	testb  $0x2,0x20(%ecx)
    73d3:	75 16                	jne    73eb <iputchar+0x78>
    73d5:	83 ec 08             	sub    $0x8,%esp
    73d8:	b8 00 00 00 00       	mov    $0x0,%eax
    73dd:	88 d8                	mov    %bl,%al
    73df:	50                   	push   %eax
    73e0:	51                   	push   %ecx
    73e1:	e8 0a 00 00 00       	call   73f0 <echo>
    73e6:	b8 01 00 00 00       	mov    $0x1,%eax
    73eb:	8b 5d fc             	mov    0xfffffffc(%ebp),%ebx
    73ee:	c9                   	leave  
    73ef:	c3                   	ret    

000073f0 <echo>:
    73f0:	55                   	push   %ebp
    73f1:	89 e5                	mov    %esp,%ebp
    73f3:	56                   	push   %esi
    73f4:	53                   	push   %ebx
    73f5:	8b 45 08             	mov    0x8(%ebp),%eax
    73f8:	8a 5d 0c             	mov    0xc(%ebp),%bl
    73fb:	8b 70 04             	mov    0x4(%eax),%esi
    73fe:	f6 40 20 04          	testb  $0x4,0x20(%eax)
    7402:	75 7c                	jne    7480 <echo+0x90>
    7404:	84 db                	test   %bl,%bl
    7406:	79 1c                	jns    7424 <echo+0x34>
    7408:	83 ec 08             	sub    $0x8,%esp
    740b:	6a 4d                	push   $0x4d
    740d:	56                   	push   %esi
    740e:	e8 91 04 00 00       	call   78a4 <ttyputc>
    7413:	83 c4 08             	add    $0x8,%esp
    7416:	6a 2d                	push   $0x2d
    7418:	56                   	push   %esi
    7419:	e8 86 04 00 00       	call   78a4 <ttyputc>
    741e:	83 c3 80             	add    $0xffffff80,%ebx
    7421:	83 c4 10             	add    $0x10,%esp
    7424:	80 fb 1f             	cmp    $0x1f,%bl
    7427:	77 42                	ja     746b <echo+0x7b>
    7429:	80 fb 0a             	cmp    $0xa,%bl
    742c:	0f 95 c0             	setne  %al
    742f:	80 fb 08             	cmp    $0x8,%bl
    7432:	0f 95 c2             	setne  %dl
    7435:	25 ff 00 00 00       	and    $0xff,%eax
    743a:	85 c2                	test   %eax,%edx
    743c:	74 2d                	je     746b <echo+0x7b>
    743e:	80 fb 0c             	cmp    $0xc,%bl
    7441:	0f 95 c0             	setne  %al
    7444:	80 fb 0d             	cmp    $0xd,%bl
    7447:	0f 95 c2             	setne  %dl
    744a:	25 ff 00 00 00       	and    $0xff,%eax
    744f:	85 c2                	test   %eax,%edx
    7451:	74 18                	je     746b <echo+0x7b>
    7453:	80 fb 09             	cmp    $0x9,%bl
    7456:	74 13                	je     746b <echo+0x7b>
    7458:	83 ec 08             	sub    $0x8,%esp
    745b:	6a 5e                	push   $0x5e
    745d:	56                   	push   %esi
    745e:	e8 41 04 00 00       	call   78a4 <ttyputc>
    7463:	83 c3 40             	add    $0x40,%ebx
    7466:	83 c4 10             	add    $0x10,%esp
    7469:	eb 15                	jmp    7480 <echo+0x90>
    746b:	80 fb 7f             	cmp    $0x7f,%bl
    746e:	75 10                	jne    7480 <echo+0x90>
    7470:	83 ec 08             	sub    $0x8,%esp
    7473:	6a 5e                	push   $0x5e
    7475:	56                   	push   %esi
    7476:	e8 29 04 00 00       	call   78a4 <ttyputc>
    747b:	b3 3f                	mov    $0x3f,%bl
    747d:	83 c4 10             	add    $0x10,%esp
    7480:	83 ec 08             	sub    $0x8,%esp
    7483:	b8 00 00 00 00       	mov    $0x0,%eax
    7488:	88 d8                	mov    %bl,%al
    748a:	50                   	push   %eax
    748b:	56                   	push   %esi
    748c:	e8 13 04 00 00       	call   78a4 <ttyputc>
    7491:	b8 01 00 00 00       	mov    $0x1,%eax
    7496:	8d 65 f8             	lea    0xfffffff8(%ebp),%esp
    7499:	5b                   	pop    %ebx
    749a:	5e                   	pop    %esi
    749b:	5d                   	pop    %ebp
    749c:	c3                   	ret    

0000749d <delchar>:
    749d:	55                   	push   %ebp
    749e:	89 e5                	mov    %esp,%ebp
    74a0:	56                   	push   %esi
    74a1:	53                   	push   %ebx
    74a2:	8b 4d 08             	mov    0x8(%ebp),%ecx
    74a5:	8b 59 04             	mov    0x4(%ecx),%ebx
    74a8:	b8 01 00 00 00       	mov    $0x1,%eax
    74ad:	66 83 79 24 00       	cmpw   $0x0,0x24(%ecx)
    74b2:	0f 84 fc 00 00 00    	je     75b4 <delchar+0x117>
    74b8:	66 8b 41 22          	mov    0x22(%ecx),%ax
    74bc:	89 c2                	mov    %eax,%edx
    74be:	81 e2 ff ff 00 00    	and    $0xffff,%edx
    74c4:	66 8b 41 24          	mov    0x24(%ecx),%ax
    74c8:	25 ff ff 00 00       	and    $0xffff,%eax
    74cd:	8d 54 02 ff          	lea    0xffffffff(%edx,%eax,1),%edx
    74d1:	81 fa ff 00 00 00    	cmp    $0xff,%edx
    74d7:	7e 06                	jle    74df <delchar+0x42>
    74d9:	81 ea 00 01 00 00    	sub    $0x100,%edx
    74df:	b8 01 00 00 00       	mov    $0x1,%eax
    74e4:	80 7c 0a 26 0a       	cmpb   $0xa,0x26(%edx,%ecx,1)
    74e9:	0f 84 c5 00 00 00    	je     75b4 <delchar+0x117>
    74ef:	66 ff 49 24          	decw   0x24(%ecx)
    74f3:	b8 01 00 00 00       	mov    $0x1,%eax
    74f8:	f6 41 20 02          	testb  $0x2,0x20(%ecx)
    74fc:	0f 85 b2 00 00 00    	jne    75b4 <delchar+0x117>
    7502:	8a 54 0a 26          	mov    0x26(%edx,%ecx,1),%dl
    7506:	81 e2 ff 00 00 00    	and    $0xff,%edx
    750c:	89 d6                	mov    %edx,%esi
    750e:	83 fa 7f             	cmp    $0x7f,%edx
    7511:	76 45                	jbe    7558 <delchar+0xbb>
    7513:	83 ec 08             	sub    $0x8,%esp
    7516:	6a 08                	push   $0x8
    7518:	53                   	push   %ebx
    7519:	e8 86 03 00 00       	call   78a4 <ttyputc>
    751e:	83 c4 08             	add    $0x8,%esp
    7521:	6a 20                	push   $0x20
    7523:	53                   	push   %ebx
    7524:	e8 7b 03 00 00       	call   78a4 <ttyputc>
    7529:	83 c4 08             	add    $0x8,%esp
    752c:	6a 08                	push   $0x8
    752e:	53                   	push   %ebx
    752f:	e8 70 03 00 00       	call   78a4 <ttyputc>
    7534:	83 c4 08             	add    $0x8,%esp
    7537:	6a 08                	push   $0x8
    7539:	53                   	push   %ebx
    753a:	e8 65 03 00 00       	call   78a4 <ttyputc>
    753f:	83 c4 08             	add    $0x8,%esp
    7542:	6a 20                	push   $0x20
    7544:	53                   	push   %ebx
    7545:	e8 5a 03 00 00       	call   78a4 <ttyputc>
    754a:	83 c4 08             	add    $0x8,%esp
    754d:	6a 08                	push   $0x8
    754f:	53                   	push   %ebx
    7550:	e8 4f 03 00 00       	call   78a4 <ttyputc>
    7555:	83 c4 10             	add    $0x10,%esp
    7558:	83 fe 7f             	cmp    $0x7f,%esi
    755b:	0f 94 c2             	sete   %dl
    755e:	83 fe 1f             	cmp    $0x1f,%esi
    7561:	0f 96 c0             	setbe  %al
    7564:	09 d0                	or     %edx,%eax
    7566:	a8 01                	test   $0x1,%al
    7568:	74 24                	je     758e <delchar+0xf1>
    756a:	83 ec 08             	sub    $0x8,%esp
    756d:	6a 08                	push   $0x8
    756f:	53                   	push   %ebx
    7570:	e8 2f 03 00 00       	call   78a4 <ttyputc>
    7575:	83 c4 08             	add    $0x8,%esp
    7578:	6a 20                	push   $0x20
    757a:	53                   	push   %ebx
    757b:	e8 24 03 00 00       	call   78a4 <ttyputc>
    7580:	83 c4 08             	add    $0x8,%esp
    7583:	6a 08                	push   $0x8
    7585:	53                   	push   %ebx
    7586:	e8 19 03 00 00       	call   78a4 <ttyputc>
    758b:	83 c4 10             	add    $0x10,%esp
    758e:	83 ec 08             	sub    $0x8,%esp
    7591:	6a 08                	push   $0x8
    7593:	53                   	push   %ebx
    7594:	e8 0b 03 00 00       	call   78a4 <ttyputc>
    7599:	83 c4 08             	add    $0x8,%esp
    759c:	6a 20                	push   $0x20
    759e:	53                   	push   %ebx
    759f:	e8 00 03 00 00       	call   78a4 <ttyputc>
    75a4:	83 c4 08             	add    $0x8,%esp
    75a7:	6a 08                	push   $0x8
    75a9:	53                   	push   %ebx
    75aa:	e8 f5 02 00 00       	call   78a4 <ttyputc>
    75af:	b8 01 00 00 00       	mov    $0x1,%eax
    75b4:	8d 65 f8             	lea    0xfffffff8(%ebp),%esp
    75b7:	5b                   	pop    %ebx
    75b8:	5e                   	pop    %esi
    75b9:	5d                   	pop    %ebp
    75ba:	c3                   	ret    

000075bb <delword>:
    75bb:	55                   	push   %ebp
    75bc:	89 e5                	mov    %esp,%ebp
    75be:	57                   	push   %edi
    75bf:	56                   	push   %esi
    75c0:	53                   	push   %ebx
    75c1:	83 ec 0c             	sub    $0xc,%esp
    75c4:	8b 7d 08             	mov    0x8(%ebp),%edi
    75c7:	b8 01 00 00 00       	mov    $0x1,%eax
    75cc:	66 83 7f 24 00       	cmpw   $0x0,0x24(%edi)
    75d1:	0f 84 c3 00 00 00    	je     769a <delword+0xdf>
    75d7:	66 8b 47 22          	mov    0x22(%edi),%ax
    75db:	89 c3                	mov    %eax,%ebx
    75dd:	81 e3 ff ff 00 00    	and    $0xffff,%ebx
    75e3:	66 8b 47 24          	mov    0x24(%edi),%ax
    75e7:	25 ff ff 00 00       	and    $0xffff,%eax
    75ec:	8d 5c 03 ff          	lea    0xffffffff(%ebx,%eax,1),%ebx
    75f0:	81 fb ff 00 00 00    	cmp    $0xff,%ebx
    75f6:	7e 06                	jle    75fe <delword+0x43>
    75f8:	81 eb 00 01 00 00    	sub    $0x100,%ebx
    75fe:	8a 4c 3b 26          	mov    0x26(%ebx,%edi,1),%cl
    7602:	80 f9 20             	cmp    $0x20,%cl
    7605:	0f 95 c0             	setne  %al
    7608:	80 f9 09             	cmp    $0x9,%cl
    760b:	0f 95 c2             	setne  %dl
    760e:	25 ff 00 00 00       	and    $0xff,%eax
    7613:	c7 45 f0 00 00 00 00 	movl   $0x0,0xfffffff0(%ebp)
    761a:	85 c2                	test   %eax,%edx
    761c:	74 11                	je     762f <delword+0x74>
    761e:	80 f9 2f             	cmp    $0x2f,%cl
    7621:	0f 94 c0             	sete   %al
    7624:	25 ff 00 00 00       	and    $0xff,%eax
    7629:	89 45 f0             	mov    %eax,0xfffffff0(%ebp)
    762c:	ff 45 f0             	incl   0xfffffff0(%ebp)
    762f:	66 83 7f 24 00       	cmpw   $0x0,0x24(%edi)
    7634:	74 5f                	je     7695 <delword+0xda>
    7636:	83 ec 0c             	sub    $0xc,%esp
    7639:	57                   	push   %edi
    763a:	e8 5e fe ff ff       	call   749d <delchar>
    763f:	4b                   	dec    %ebx
    7640:	83 c4 10             	add    $0x10,%esp
    7643:	83 fb ff             	cmp    $0xffffffff,%ebx
    7646:	75 05                	jne    764d <delword+0x92>
    7648:	bb ff 00 00 00       	mov    $0xff,%ebx
    764d:	8a 4c 3b 26          	mov    0x26(%ebx,%edi,1),%cl
    7651:	80 f9 0a             	cmp    $0xa,%cl
    7654:	74 3f                	je     7695 <delword+0xda>
    7656:	80 f9 20             	cmp    $0x20,%cl
    7659:	0f 95 c0             	setne  %al
    765c:	80 f9 09             	cmp    $0x9,%cl
    765f:	0f 95 c2             	setne  %dl
    7662:	25 ff 00 00 00       	and    $0xff,%eax
    7667:	be 00 00 00 00       	mov    $0x0,%esi
    766c:	85 c2                	test   %eax,%edx
    766e:	74 0e                	je     767e <delword+0xc3>
    7670:	80 f9 2f             	cmp    $0x2f,%cl
    7673:	0f 94 c0             	sete   %al
    7676:	25 ff 00 00 00       	and    $0xff,%eax
    767b:	89 c6                	mov    %eax,%esi
    767d:	46                   	inc    %esi
    767e:	66 83 7f 24 00       	cmpw   $0x0,0x24(%edi)
    7683:	0f 95 c0             	setne  %al
    7686:	3b 75 f0             	cmp    0xfffffff0(%ebp),%esi
    7689:	0f 94 c2             	sete   %dl
    768c:	25 ff 00 00 00       	and    $0xff,%eax
    7691:	85 c2                	test   %eax,%edx
    7693:	75 a1                	jne    7636 <delword+0x7b>
    7695:	b8 01 00 00 00       	mov    $0x1,%eax
    769a:	8d 65 f4             	lea    0xfffffff4(%ebp),%esp
    769d:	5b                   	pop    %ebx
    769e:	5e                   	pop    %esi
    769f:	5f                   	pop    %edi
    76a0:	5d                   	pop    %ebp
    76a1:	c3                   	ret    

000076a2 <reprint>:
    76a2:	55                   	push   %ebp
    76a3:	89 e5                	mov    %esp,%ebp
    76a5:	57                   	push   %edi
    76a6:	56                   	push   %esi
    76a7:	53                   	push   %ebx
    76a8:	83 ec 0c             	sub    $0xc,%esp
    76ab:	8b 7d 08             	mov    0x8(%ebp),%edi
    76ae:	66 8b 47 22          	mov    0x22(%edi),%ax
    76b2:	89 c3                	mov    %eax,%ebx
    76b4:	81 e3 ff ff 00 00    	and    $0xffff,%ebx
    76ba:	66 8b 47 24          	mov    0x24(%edi),%ax
    76be:	25 ff ff 00 00       	and    $0xffff,%eax
    76c3:	01 c3                	add    %eax,%ebx
    76c5:	81 fb 00 01 00 00    	cmp    $0x100,%ebx
    76cb:	7e 06                	jle    76d3 <reprint+0x31>
    76cd:	81 eb 00 01 00 00    	sub    $0x100,%ebx
    76d3:	c7 45 f0 00 00 00 00 	movl   $0x0,0xfffffff0(%ebp)
    76da:	66 8b 47 24          	mov    0x24(%edi),%ax
    76de:	89 c6                	mov    %eax,%esi
    76e0:	81 e6 ff ff 00 00    	and    $0xffff,%esi
    76e6:	85 f6                	test   %esi,%esi
    76e8:	7e 1a                	jle    7704 <reprint+0x62>
    76ea:	80 7c 3b 26 0a       	cmpb   $0xa,0x26(%ebx,%edi,1)
    76ef:	74 1a                	je     770b <reprint+0x69>
    76f1:	4b                   	dec    %ebx
    76f2:	83 fb ff             	cmp    $0xffffffff,%ebx
    76f5:	75 05                	jne    76fc <reprint+0x5a>
    76f7:	bb ff 00 00 00       	mov    $0xff,%ebx
    76fc:	ff 45 f0             	incl   0xfffffff0(%ebp)
    76ff:	4e                   	dec    %esi
    7700:	85 f6                	test   %esi,%esi
    7702:	7f e6                	jg     76ea <reprint+0x48>
    7704:	80 7c 3b 26 0a       	cmpb   $0xa,0x26(%ebx,%edi,1)
    7709:	75 0f                	jne    771a <reprint+0x78>
    770b:	43                   	inc    %ebx
    770c:	81 fb ff 00 00 00    	cmp    $0xff,%ebx
    7712:	7e 06                	jle    771a <reprint+0x78>
    7714:	81 eb 00 01 00 00    	sub    $0x100,%ebx
    771a:	83 ec 08             	sub    $0x8,%esp
    771d:	b8 00 00 00 00       	mov    $0x0,%eax
    7722:	8a 47 10             	mov    0x10(%edi),%al
    7725:	50                   	push   %eax
    7726:	57                   	push   %edi
    7727:	e8 c4 fc ff ff       	call   73f0 <echo>
    772c:	83 c4 08             	add    $0x8,%esp
    772f:	6a 0a                	push   $0xa
    7731:	57                   	push   %edi
    7732:	e8 b9 fc ff ff       	call   73f0 <echo>
    7737:	8b 75 f0             	mov    0xfffffff0(%ebp),%esi
    773a:	83 c4 10             	add    $0x10,%esp
    773d:	85 f6                	test   %esi,%esi
    773f:	7e 2e                	jle    776f <reprint+0xcd>
    7741:	83 ec 08             	sub    $0x8,%esp
    7744:	b8 00 00 00 00       	mov    $0x0,%eax
    7749:	8a 44 3b 26          	mov    0x26(%ebx,%edi,1),%al
    774d:	50                   	push   %eax
    774e:	57                   	push   %edi
    774f:	e8 9c fc ff ff       	call   73f0 <echo>
    7754:	43                   	inc    %ebx
    7755:	83 c4 10             	add    $0x10,%esp
    7758:	81 fb 00 01 00 00    	cmp    $0x100,%ebx
    775e:	0f 9c c0             	setl   %al
    7761:	25 ff 00 00 00       	and    $0xff,%eax
    7766:	f7 d8                	neg    %eax
    7768:	21 c3                	and    %eax,%ebx
    776a:	4e                   	dec    %esi
    776b:	85 f6                	test   %esi,%esi
    776d:	7f d2                	jg     7741 <reprint+0x9f>
    776f:	b8 01 00 00 00       	mov    $0x1,%eax
    7774:	8d 65 f4             	lea    0xfffffff4(%ebp),%esp
    7777:	5b                   	pop    %ebx
    7778:	5e                   	pop    %esi
    7779:	5f                   	pop    %edi
    777a:	5d                   	pop    %ebp
    777b:	c3                   	ret    

0000777c <ttyinit>:
    777c:	55                   	push   %ebp
    777d:	89 e5                	mov    %esp,%ebp
    777f:	8b 45 08             	mov    0x8(%ebp),%eax
    7782:	c7 40 40 00 00 00 00 	movl   $0x0,0x40(%eax)
    7789:	8b 40 44             	mov    0x44(%eax),%eax
    778c:	8d 14 c0             	lea    (%eax,%eax,8),%edx
    778f:	8d 14 d0             	lea    (%eax,%edx,8),%edx
    7792:	c6 04 d5 a0 91 01 00 	movb   $0x0,0x191a0(,%edx,8)
    7799:	00 
    779a:	b8 01 00 00 00       	mov    $0x1,%eax
    779f:	5d                   	pop    %ebp
    77a0:	c3                   	ret    
    77a1:	90                   	nop    
    77a2:	90                   	nop    
    77a3:	90                   	nop    

000077a4 <ttynew>:
    77a4:	55                   	push   %ebp
    77a5:	89 e5                	mov    %esp,%ebp
    77a7:	53                   	push   %ebx
    77a8:	83 ec 04             	sub    $0x4,%esp
    77ab:	e8 40 f9 ff ff       	call   70f0 <ttyalloc>
    77b0:	89 c3                	mov    %eax,%ebx
    77b2:	b8 00 00 00 00       	mov    $0x0,%eax
    77b7:	85 db                	test   %ebx,%ebx
    77b9:	74 74                	je     782f <ttynew+0x8b>
    77bb:	a1 20 b6 00 00       	mov    0xb620,%eax
    77c0:	89 43 0c             	mov    %eax,0xc(%ebx)
    77c3:	a1 24 b6 00 00       	mov    0xb624,%eax
    77c8:	89 43 10             	mov    %eax,0x10(%ebx)
    77cb:	66 a1 28 b6 00 00    	mov    0xb628,%ax
    77d1:	66 89 43 14          	mov    %ax,0x14(%ebx)
    77d5:	a0 2a b6 00 00       	mov    0xb62a,%al
    77da:	88 43 16             	mov    %al,0x16(%ebx)
    77dd:	e8 96 d7 ff ff       	call   4f78 <getpid>
    77e2:	89 43 18             	mov    %eax,0x18(%ebx)
    77e5:	83 ec 0c             	sub    $0xc,%esp
    77e8:	6a 00                	push   $0x0
    77ea:	e8 55 ea ff ff       	call   6244 <screate>
    77ef:	89 43 1c             	mov    %eax,0x1c(%ebx)
    77f2:	c6 43 20 00          	movb   $0x0,0x20(%ebx)
    77f6:	66 c7 43 22 00 00    	movw   $0x0,0x22(%ebx)
    77fc:	66 c7 43 24 00 00    	movw   $0x0,0x24(%ebx)
    7802:	c7 04 24 00 01 00 00 	movl   $0x100,(%esp)
    7809:	e8 36 ea ff ff       	call   6244 <screate>
    780e:	89 83 28 01 00 00    	mov    %eax,0x128(%ebx)
    7814:	c6 83 2c 01 00 00 00 	movb   $0x0,0x12c(%ebx)
    781b:	66 c7 83 2e 01 00 00 	movw   $0x0,0x12e(%ebx)
    7822:	00 00 
    7824:	66 c7 83 30 01 00 00 	movw   $0x0,0x130(%ebx)
    782b:	00 00 
    782d:	89 d8                	mov    %ebx,%eax
    782f:	8b 5d fc             	mov    0xfffffffc(%ebp),%ebx
    7832:	c9                   	leave  
    7833:	c3                   	ret    

00007834 <ttyopen>:
    7834:	55                   	push   %ebp
    7835:	89 e5                	mov    %esp,%ebp
    7837:	56                   	push   %esi
    7838:	53                   	push   %ebx
    7839:	8b 5d 08             	mov    0x8(%ebp),%ebx
    783c:	8b 75 0c             	mov    0xc(%ebp),%esi
    783f:	83 7b 40 00          	cmpl   $0x0,0x40(%ebx)
    7843:	74 18                	je     785d <ttyopen+0x29>
    7845:	b8 00 00 00 00       	mov    $0x0,%eax
    784a:	a0 20 00 00 00       	mov    0x20,%al
    784f:	83 e0 10             	and    $0x10,%eax
    7852:	83 f8 01             	cmp    $0x1,%eax
    7855:	19 c0                	sbb    %eax,%eax
    7857:	83 e0 02             	and    $0x2,%eax
    785a:	48                   	dec    %eax
    785b:	eb 40                	jmp    789d <ttyopen+0x69>
    785d:	e8 42 ff ff ff       	call   77a4 <ttynew>
    7862:	89 c2                	mov    %eax,%edx
    7864:	b8 ff ff ff ff       	mov    $0xffffffff,%eax
    7869:	85 d2                	test   %edx,%edx
    786b:	74 30                	je     789d <ttyopen+0x69>
    786d:	89 53 40             	mov    %edx,0x40(%ebx)
    7870:	89 5a 04             	mov    %ebx,0x4(%edx)
    7873:	8d 04 f6             	lea    (%esi,%esi,8),%eax
    7876:	8d 04 c5 e0 b2 00 00 	lea    0xb2e0(,%eax,8),%eax
    787d:	89 42 08             	mov    %eax,0x8(%edx)
    7880:	89 58 40             	mov    %ebx,0x40(%eax)
    7883:	c6 82 2c 01 00 00 00 	movb   $0x0,0x12c(%edx)
    788a:	c6 42 20 00          	movb   $0x0,0x20(%edx)
    788e:	c7 82 3c 02 00 00 ff 	movl   $0xffffffff,0x23c(%edx)
    7895:	ff ff ff 
    7898:	b8 01 00 00 00       	mov    $0x1,%eax
    789d:	5b                   	pop    %ebx
    789e:	5e                   	pop    %esi
    789f:	5d                   	pop    %ebp
    78a0:	c3                   	ret    
    78a1:	90                   	nop    
    78a2:	90                   	nop    
    78a3:	90                   	nop    

000078a4 <ttyputc>:
    78a4:	55                   	push   %ebp
    78a5:	89 e5                	mov    %esp,%ebp
    78a7:	83 ec 0c             	sub    $0xc,%esp
    78aa:	8b 45 0c             	mov    0xc(%ebp),%eax
    78ad:	88 45 ff             	mov    %al,0xffffffff(%ebp)
    78b0:	6a 01                	push   $0x1
    78b2:	8d 45 ff             	lea    0xffffffff(%ebp),%eax
    78b5:	50                   	push   %eax
    78b6:	ff 75 08             	pushl  0x8(%ebp)
    78b9:	e8 d2 00 00 00       	call   7990 <ttywrite>
    78be:	c9                   	leave  
    78bf:	c3                   	ret    

000078c0 <ttyread>:
    78c0:	55                   	push   %ebp
    78c1:	89 e5                	mov    %esp,%ebp
    78c3:	57                   	push   %edi
    78c4:	56                   	push   %esi
    78c5:	53                   	push   %ebx
    78c6:	83 ec 0c             	sub    $0xc,%esp
    78c9:	8b 7d 0c             	mov    0xc(%ebp),%edi
    78cc:	8b 45 08             	mov    0x8(%ebp),%eax
    78cf:	8b 58 40             	mov    0x40(%eax),%ebx
    78d2:	ba ff ff ff ff       	mov    $0xffffffff,%edx
    78d7:	80 3b 01             	cmpb   $0x1,(%ebx)
    78da:	0f 85 a4 00 00 00    	jne    7984 <ttyread+0xc4>
    78e0:	f6 43 20 20          	testb  $0x20,0x20(%ebx)
    78e4:	74 15                	je     78fb <ttyread+0x3b>
    78e6:	66 83 7b 24 00       	cmpw   $0x0,0x24(%ebx)
    78eb:	75 0e                	jne    78fb <ttyread+0x3b>
    78ed:	80 63 20 df          	andb   $0xdf,0x20(%ebx)
    78f1:	ba fe ff ff ff       	mov    $0xfffffffe,%edx
    78f6:	e9 89 00 00 00       	jmp    7984 <ttyread+0xc4>
    78fb:	f6 43 20 01          	testb  $0x1,0x20(%ebx)
    78ff:	74 17                	je     7918 <ttyread+0x58>
    7901:	83 ec 0c             	sub    $0xc,%esp
    7904:	ff 73 1c             	pushl  0x1c(%ebx)
    7907:	e8 08 e9 ff ff       	call   6214 <scount>
    790c:	83 c4 10             	add    $0x10,%esp
    790f:	ba ff ff ff ff       	mov    $0xffffffff,%edx
    7914:	85 c0                	test   %eax,%eax
    7916:	7e 6c                	jle    7984 <ttyread+0xc4>
    7918:	83 ec 0c             	sub    $0xc,%esp
    791b:	8d 45 f2             	lea    0xfffffff2(%ebp),%eax
    791e:	50                   	push   %eax
    791f:	e8 98 8e ff ff       	call   7bc <disable>
    7924:	83 c4 04             	add    $0x4,%esp
    7927:	ff 73 1c             	pushl  0x1c(%ebx)
    792a:	e8 69 f1 ff ff       	call   6a98 <wait>
    792f:	be 00 00 00 00       	mov    $0x0,%esi
    7934:	83 c4 10             	add    $0x10,%esp
    7937:	3b 75 10             	cmp    0x10(%ebp),%esi
    793a:	7d 3a                	jge    7976 <ttyread+0xb6>
    793c:	66 83 7b 24 00       	cmpw   $0x0,0x24(%ebx)
    7941:	74 33                	je     7976 <ttyread+0xb6>
    7943:	66 8b 43 22          	mov    0x22(%ebx),%ax
    7947:	25 ff ff 00 00       	and    $0xffff,%eax
    794c:	8a 44 18 26          	mov    0x26(%eax,%ebx,1),%al
    7950:	88 07                	mov    %al,(%edi)
    7952:	47                   	inc    %edi
    7953:	46                   	inc    %esi
    7954:	66 ff 4b 24          	decw   0x24(%ebx)
    7958:	66 ff 43 22          	incw   0x22(%ebx)
    795c:	66 81 7b 22 ff 00    	cmpw   $0xff,0x22(%ebx)
    7962:	76 06                	jbe    796a <ttyread+0xaa>
    7964:	66 c7 43 22 00 00    	movw   $0x0,0x22(%ebx)
    796a:	3b 75 10             	cmp    0x10(%ebp),%esi
    796d:	7d 07                	jge    7976 <ttyread+0xb6>
    796f:	66 83 7b 24 00       	cmpw   $0x0,0x24(%ebx)
    7974:	75 cd                	jne    7943 <ttyread+0x83>
    7976:	83 ec 0c             	sub    $0xc,%esp
    7979:	8d 45 f2             	lea    0xfffffff2(%ebp),%eax
    797c:	50                   	push   %eax
    797d:	e8 62 8e ff ff       	call   7e4 <restore>
    7982:	89 f2                	mov    %esi,%edx
    7984:	89 d0                	mov    %edx,%eax
    7986:	8d 65 f4             	lea    0xfffffff4(%ebp),%esp
    7989:	5b                   	pop    %ebx
    798a:	5e                   	pop    %esi
    798b:	5f                   	pop    %edi
    798c:	5d                   	pop    %ebp
    798d:	c3                   	ret    
    798e:	90                   	nop    
    798f:	90                   	nop    

00007990 <ttywrite>:
    7990:	55                   	push   %ebp
    7991:	89 e5                	mov    %esp,%ebp
    7993:	57                   	push   %edi
    7994:	56                   	push   %esi
    7995:	53                   	push   %ebx
    7996:	83 ec 0c             	sub    $0xc,%esp
    7999:	8b 45 08             	mov    0x8(%ebp),%eax
    799c:	8b 78 40             	mov    0x40(%eax),%edi
    799f:	b8 ff ff ff ff       	mov    $0xffffffff,%eax
    79a4:	85 ff                	test   %edi,%edi
    79a6:	0f 84 a1 00 00 00    	je     7a4d <ttywrite+0xbd>
    79ac:	8b 5f 08             	mov    0x8(%edi),%ebx
    79af:	b8 ff ff ff ff       	mov    $0xffffffff,%eax
    79b4:	85 db                	test   %ebx,%ebx
    79b6:	0f 84 91 00 00 00    	je     7a4d <ttywrite+0xbd>
    79bc:	b8 ff ff ff ff       	mov    $0xffffffff,%eax
    79c1:	83 7b 24 00          	cmpl   $0x0,0x24(%ebx)
    79c5:	0f 84 82 00 00 00    	je     7a4d <ttywrite+0xbd>
    79cb:	be 00 00 00 00       	mov    $0x0,%esi
    79d0:	3b 75 10             	cmp    0x10(%ebp),%esi
    79d3:	7d 76                	jge    7a4b <ttywrite+0xbb>
    79d5:	f6 87 2c 01 00 00 04 	testb  $0x4,0x12c(%edi)
    79dc:	74 1b                	je     79f9 <ttywrite+0x69>
    79de:	83 ec 08             	sub    $0x8,%esp
    79e1:	8b 55 0c             	mov    0xc(%ebp),%edx
    79e4:	b8 00 00 00 00       	mov    $0x0,%eax
    79e9:	8a 04 32             	mov    (%edx,%esi,1),%al
    79ec:	50                   	push   %eax
    79ed:	53                   	push   %ebx
    79ee:	ff 53 24             	call   *0x24(%ebx)
    79f1:	83 c4 10             	add    $0x10,%esp
    79f4:	83 f8 01             	cmp    $0x1,%eax
    79f7:	75 52                	jne    7a4b <ttywrite+0xbb>
    79f9:	8b 45 0c             	mov    0xc(%ebp),%eax
    79fc:	80 3c 30 00          	cmpb   $0x0,(%eax,%esi,1)
    7a00:	79 2d                	jns    7a2f <ttywrite+0x9f>
    7a02:	83 ec 08             	sub    $0x8,%esp
    7a05:	6a 4d                	push   $0x4d
    7a07:	53                   	push   %ebx
    7a08:	ff 53 24             	call   *0x24(%ebx)
    7a0b:	83 c4 08             	add    $0x8,%esp
    7a0e:	6a 2d                	push   $0x2d
    7a10:	53                   	push   %ebx
    7a11:	ff 53 24             	call   *0x24(%ebx)
    7a14:	83 c4 08             	add    $0x8,%esp
    7a17:	8b 55 0c             	mov    0xc(%ebp),%edx
    7a1a:	b8 00 00 00 00       	mov    $0x0,%eax
    7a1f:	8a 04 32             	mov    (%edx,%esi,1),%al
    7a22:	83 e0 7f             	and    $0x7f,%eax
    7a25:	50                   	push   %eax
    7a26:	53                   	push   %ebx
    7a27:	ff 53 24             	call   *0x24(%ebx)
    7a2a:	83 c4 10             	add    $0x10,%esp
    7a2d:	eb 16                	jmp    7a45 <ttywrite+0xb5>
    7a2f:	83 ec 08             	sub    $0x8,%esp
    7a32:	8b 55 0c             	mov    0xc(%ebp),%edx
    7a35:	b8 00 00 00 00       	mov    $0x0,%eax
    7a3a:	8a 04 32             	mov    (%edx,%esi,1),%al
    7a3d:	50                   	push   %eax
    7a3e:	53                   	push   %ebx
    7a3f:	ff 53 24             	call   *0x24(%ebx)
    7a42:	83 c4 10             	add    $0x10,%esp
    7a45:	46                   	inc    %esi
    7a46:	3b 75 10             	cmp    0x10(%ebp),%esi
    7a49:	7c 8a                	jl     79d5 <ttywrite+0x45>
    7a4b:	89 f0                	mov    %esi,%eax
    7a4d:	8d 65 f4             	lea    0xfffffff4(%ebp),%esp
    7a50:	5b                   	pop    %ebx
    7a51:	5e                   	pop    %esi
    7a52:	5f                   	pop    %edi
    7a53:	5d                   	pop    %ebp
    7a54:	c3                   	ret    
    7a55:	90                   	nop    
    7a56:	90                   	nop    
    7a57:	90                   	nop    

00007a58 <ttyoin>:
    7a58:	55                   	push   %ebp
    7a59:	89 e5                	mov    %esp,%ebp
    7a5b:	83 ec 14             	sub    $0x14,%esp
    7a5e:	68 f8 a5 00 00       	push   $0xa5f8
    7a63:	e8 00 e0 ff ff       	call   5a68 <kprintf>
    7a68:	b8 01 00 00 00       	mov    $0x1,%eax
    7a6d:	c9                   	leave  
    7a6e:	c3                   	ret    
    7a6f:	90                   	nop    

00007a70 <get_bs>:
    7a70:	55                   	push   %ebp
    7a71:	89 e5                	mov    %esp,%ebp
    7a73:	56                   	push   %esi
    7a74:	53                   	push   %ebx
    7a75:	83 ec 10             	sub    $0x10,%esp
    7a78:	8b 4d 08             	mov    0x8(%ebp),%ecx
    7a7b:	8b 75 0c             	mov    0xc(%ebp),%esi
    7a7e:	83 f9 0f             	cmp    $0xf,%ecx
    7a81:	0f 97 c2             	seta   %dl
    7a84:	85 f6                	test   %esi,%esi
    7a86:	0f 94 c0             	sete   %al
    7a89:	09 d0                	or     %edx,%eax
    7a8b:	a8 01                	test   $0x1,%al
    7a8d:	75 08                	jne    7a97 <get_bs+0x27>
    7a8f:	81 fe 80 00 00 00    	cmp    $0x80,%esi
    7a95:	76 17                	jbe    7aae <get_bs+0x3e>
    7a97:	83 ec 0c             	sub    $0xc,%esp
    7a9a:	68 00 a6 00 00       	push   $0xa600
    7a9f:	e8 c4 df ff ff       	call   5a68 <kprintf>
    7aa4:	b8 ff ff ff ff       	mov    $0xffffffff,%eax
    7aa9:	e9 80 00 00 00       	jmp    7b2e <get_bs+0xbe>
    7aae:	89 c8                	mov    %ecx,%eax
    7ab0:	c1 e0 05             	shl    $0x5,%eax
    7ab3:	8d 98 e0 c6 00 00    	lea    0xc6e0(%eax),%ebx
    7ab9:	83 7b 1c 01          	cmpl   $0x1,0x1c(%ebx)
    7abd:	75 13                	jne    7ad2 <get_bs+0x62>
    7abf:	83 ec 0c             	sub    $0xc,%esp
    7ac2:	8d 45 f6             	lea    0xfffffff6(%ebp),%eax
    7ac5:	50                   	push   %eax
    7ac6:	e8 19 8d ff ff       	call   7e4 <restore>
    7acb:	b8 ff ff ff ff       	mov    $0xffffffff,%eax
    7ad0:	eb 5c                	jmp    7b2e <get_bs+0xbe>
    7ad2:	83 ec 0c             	sub    $0xc,%esp
    7ad5:	8d 45 f6             	lea    0xfffffff6(%ebp),%eax
    7ad8:	50                   	push   %eax
    7ad9:	e8 de 8c ff ff       	call   7bc <disable>
    7ade:	83 c4 10             	add    $0x10,%esp
    7ae1:	83 3b 01             	cmpl   $0x1,(%ebx)
    7ae4:	75 11                	jne    7af7 <get_bs+0x87>
    7ae6:	83 ec 0c             	sub    $0xc,%esp
    7ae9:	8d 45 f6             	lea    0xfffffff6(%ebp),%eax
    7aec:	50                   	push   %eax
    7aed:	e8 f2 8c ff ff       	call   7e4 <restore>
    7af2:	8b 43 0c             	mov    0xc(%ebx),%eax
    7af5:	eb 37                	jmp    7b2e <get_bs+0xbe>
    7af7:	83 3b 00             	cmpl   $0x0,(%ebx)
    7afa:	75 21                	jne    7b1d <get_bs+0xad>
    7afc:	c7 03 01 00 00 00    	movl   $0x1,(%ebx)
    7b02:	89 73 0c             	mov    %esi,0xc(%ebx)
    7b05:	a1 e4 c8 00 00       	mov    0xc8e4,%eax
    7b0a:	89 43 04             	mov    %eax,0x4(%ebx)
    7b0d:	83 ec 0c             	sub    $0xc,%esp
    7b10:	8d 45 f6             	lea    0xfffffff6(%ebp),%eax
    7b13:	50                   	push   %eax
    7b14:	e8 cb 8c ff ff       	call   7e4 <restore>
    7b19:	89 f0                	mov    %esi,%eax
    7b1b:	eb 11                	jmp    7b2e <get_bs+0xbe>
    7b1d:	83 ec 0c             	sub    $0xc,%esp
    7b20:	8d 45 f6             	lea    0xfffffff6(%ebp),%eax
    7b23:	50                   	push   %eax
    7b24:	e8 bb 8c ff ff       	call   7e4 <restore>
    7b29:	b8 ff ff ff ff       	mov    $0xffffffff,%eax
    7b2e:	8d 65 f8             	lea    0xfffffff8(%ebp),%esp
    7b31:	5b                   	pop    %ebx
    7b32:	5e                   	pop    %esi
    7b33:	5d                   	pop    %ebp
    7b34:	c3                   	ret    
    7b35:	90                   	nop    
    7b36:	90                   	nop    
    7b37:	90                   	nop    

00007b38 <release_bs>:
    7b38:	55                   	push   %ebp
    7b39:	89 e5                	mov    %esp,%ebp
    7b3b:	53                   	push   %ebx
    7b3c:	83 ec 10             	sub    $0x10,%esp
    7b3f:	8b 5d 08             	mov    0x8(%ebp),%ebx
    7b42:	8d 45 fa             	lea    0xfffffffa(%ebp),%eax
    7b45:	50                   	push   %eax
    7b46:	e8 71 8c ff ff       	call   7bc <disable>
    7b4b:	89 d8                	mov    %ebx,%eax
    7b4d:	c1 e0 05             	shl    $0x5,%eax
    7b50:	83 c4 10             	add    $0x10,%esp
    7b53:	ba 01 00 00 00       	mov    $0x1,%edx
    7b58:	83 b8 f8 c6 00 00 00 	cmpl   $0x0,0xc6f8(%eax)
    7b5f:	75 19                	jne    7b7a <release_bs+0x42>
    7b61:	83 ec 0c             	sub    $0xc,%esp
    7b64:	53                   	push   %ebx
    7b65:	e8 93 02 00 00       	call   7dfd <free_bsm>
    7b6a:	8d 45 fa             	lea    0xfffffffa(%ebp),%eax
    7b6d:	89 04 24             	mov    %eax,(%esp)
    7b70:	e8 6f 8c ff ff       	call   7e4 <restore>
    7b75:	ba 01 00 00 00       	mov    $0x1,%edx
    7b7a:	89 d0                	mov    %edx,%eax
    7b7c:	8b 5d fc             	mov    0xfffffffc(%ebp),%ebx
    7b7f:	c9                   	leave  
    7b80:	c3                   	ret    
    7b81:	90                   	nop    
    7b82:	90                   	nop    
    7b83:	90                   	nop    

00007b84 <read_bs>:
    7b84:	55                   	push   %ebp
    7b85:	89 e5                	mov    %esp,%ebp
    7b87:	83 ec 0c             	sub    $0xc,%esp
    7b8a:	8b 45 0c             	mov    0xc(%ebp),%eax
    7b8d:	05 00 00 80 00       	add    $0x800000,%eax
    7b92:	8b 4d 10             	mov    0x10(%ebp),%ecx
    7b95:	c1 e1 0c             	shl    $0xc,%ecx
    7b98:	83 c1 13             	add    $0x13,%ecx
    7b9b:	d3 e0                	shl    %cl,%eax
    7b9d:	68 00 10 00 00       	push   $0x1000
    7ba2:	ff 75 08             	pushl  0x8(%ebp)
    7ba5:	50                   	push   %eax
    7ba6:	e8 4b 85 ff ff       	call   f6 <bcopy>
    7bab:	c9                   	leave  
    7bac:	c3                   	ret    
    7bad:	90                   	nop    
    7bae:	90                   	nop    
    7baf:	90                   	nop    

00007bb0 <write_bs>:
    7bb0:	55                   	push   %ebp
    7bb1:	89 e5                	mov    %esp,%ebp
    7bb3:	83 ec 0c             	sub    $0xc,%esp
    7bb6:	8b 45 0c             	mov    0xc(%ebp),%eax
    7bb9:	05 00 00 80 00       	add    $0x800000,%eax
    7bbe:	8b 4d 10             	mov    0x10(%ebp),%ecx
    7bc1:	c1 e1 0c             	shl    $0xc,%ecx
    7bc4:	83 c1 13             	add    $0x13,%ecx
    7bc7:	d3 e0                	shl    %cl,%eax
    7bc9:	68 00 10 00 00       	push   $0x1000
    7bce:	50                   	push   %eax
    7bcf:	ff 75 08             	pushl  0x8(%ebp)
    7bd2:	e8 1f 85 ff ff       	call   f6 <bcopy>
    7bd7:	c9                   	leave  
    7bd8:	c3                   	ret    
    7bd9:	90                   	nop    
    7bda:	90                   	nop    
    7bdb:	90                   	nop    

00007bdc <read_cr0>:
    7bdc:	55                   	push   %ebp
    7bdd:	89 e5                	mov    %esp,%ebp
    7bdf:	53                   	push   %ebx
    7be0:	83 ec 10             	sub    $0x10,%esp
    7be3:	8d 45 fa             	lea    0xfffffffa(%ebp),%eax
    7be6:	50                   	push   %eax
    7be7:	e8 d0 8b ff ff       	call   7bc <disable>
    7bec:	50                   	push   %eax
    7bed:	0f 20 c0             	mov    %cr0,%eax
    7bf0:	a3 c0 9a 01 00       	mov    %eax,0x19ac0
    7bf5:	58                   	pop    %eax
    7bf6:	8b 1d c0 9a 01 00    	mov    0x19ac0,%ebx
    7bfc:	8d 45 fa             	lea    0xfffffffa(%ebp),%eax
    7bff:	89 04 24             	mov    %eax,(%esp)
    7c02:	e8 dd 8b ff ff       	call   7e4 <restore>
    7c07:	89 d8                	mov    %ebx,%eax
    7c09:	8b 5d fc             	mov    0xfffffffc(%ebp),%ebx
    7c0c:	c9                   	leave  
    7c0d:	c3                   	ret    

00007c0e <read_cr2>:
    7c0e:	55                   	push   %ebp
    7c0f:	89 e5                	mov    %esp,%ebp
    7c11:	53                   	push   %ebx
    7c12:	83 ec 10             	sub    $0x10,%esp
    7c15:	8d 45 fa             	lea    0xfffffffa(%ebp),%eax
    7c18:	50                   	push   %eax
    7c19:	e8 9e 8b ff ff       	call   7bc <disable>
    7c1e:	50                   	push   %eax
    7c1f:	0f 20 d0             	mov    %cr2,%eax
    7c22:	a3 c0 9a 01 00       	mov    %eax,0x19ac0
    7c27:	58                   	pop    %eax
    7c28:	8b 1d c0 9a 01 00    	mov    0x19ac0,%ebx
    7c2e:	8d 45 fa             	lea    0xfffffffa(%ebp),%eax
    7c31:	89 04 24             	mov    %eax,(%esp)
    7c34:	e8 ab 8b ff ff       	call   7e4 <restore>
    7c39:	89 d8                	mov    %ebx,%eax
    7c3b:	8b 5d fc             	mov    0xfffffffc(%ebp),%ebx
    7c3e:	c9                   	leave  
    7c3f:	c3                   	ret    

00007c40 <read_cr3>:
    7c40:	55                   	push   %ebp
    7c41:	89 e5                	mov    %esp,%ebp
    7c43:	53                   	push   %ebx
    7c44:	83 ec 10             	sub    $0x10,%esp
    7c47:	8d 45 fa             	lea    0xfffffffa(%ebp),%eax
    7c4a:	50                   	push   %eax
    7c4b:	e8 6c 8b ff ff       	call   7bc <disable>
    7c50:	50                   	push   %eax
    7c51:	0f 20 d8             	mov    %cr3,%eax
    7c54:	a3 c0 9a 01 00       	mov    %eax,0x19ac0
    7c59:	58                   	pop    %eax
    7c5a:	8b 1d c0 9a 01 00    	mov    0x19ac0,%ebx
    7c60:	8d 45 fa             	lea    0xfffffffa(%ebp),%eax
    7c63:	89 04 24             	mov    %eax,(%esp)
    7c66:	e8 79 8b ff ff       	call   7e4 <restore>
    7c6b:	89 d8                	mov    %ebx,%eax
    7c6d:	8b 5d fc             	mov    0xfffffffc(%ebp),%ebx
    7c70:	c9                   	leave  
    7c71:	c3                   	ret    

00007c72 <read_cr4>:
    7c72:	55                   	push   %ebp
    7c73:	89 e5                	mov    %esp,%ebp
    7c75:	53                   	push   %ebx
    7c76:	83 ec 10             	sub    $0x10,%esp
    7c79:	8d 45 fa             	lea    0xfffffffa(%ebp),%eax
    7c7c:	50                   	push   %eax
    7c7d:	e8 3a 8b ff ff       	call   7bc <disable>
    7c82:	50                   	push   %eax
    7c83:	0f 20 e0             	mov    %cr4,%eax
    7c86:	a3 c0 9a 01 00       	mov    %eax,0x19ac0
    7c8b:	58                   	pop    %eax
    7c8c:	8b 1d c0 9a 01 00    	mov    0x19ac0,%ebx
    7c92:	8d 45 fa             	lea    0xfffffffa(%ebp),%eax
    7c95:	89 04 24             	mov    %eax,(%esp)
    7c98:	e8 47 8b ff ff       	call   7e4 <restore>
    7c9d:	89 d8                	mov    %ebx,%eax
    7c9f:	8b 5d fc             	mov    0xfffffffc(%ebp),%ebx
    7ca2:	c9                   	leave  
    7ca3:	c3                   	ret    

00007ca4 <write_cr0>:
    7ca4:	55                   	push   %ebp
    7ca5:	89 e5                	mov    %esp,%ebp
    7ca7:	83 ec 14             	sub    $0x14,%esp
    7caa:	8d 45 fe             	lea    0xfffffffe(%ebp),%eax
    7cad:	50                   	push   %eax
    7cae:	e8 09 8b ff ff       	call   7bc <disable>
    7cb3:	8b 45 08             	mov    0x8(%ebp),%eax
    7cb6:	a3 c0 9a 01 00       	mov    %eax,0x19ac0
    7cbb:	50                   	push   %eax
    7cbc:	a1 c0 9a 01 00       	mov    0x19ac0,%eax
    7cc1:	0f 22 c0             	mov    %eax,%cr0
    7cc4:	58                   	pop    %eax
    7cc5:	8d 45 fe             	lea    0xfffffffe(%ebp),%eax
    7cc8:	89 04 24             	mov    %eax,(%esp)
    7ccb:	e8 14 8b ff ff       	call   7e4 <restore>
    7cd0:	c9                   	leave  
    7cd1:	c3                   	ret    

00007cd2 <write_cr3>:
    7cd2:	55                   	push   %ebp
    7cd3:	89 e5                	mov    %esp,%ebp
    7cd5:	83 ec 14             	sub    $0x14,%esp
    7cd8:	8d 45 fe             	lea    0xfffffffe(%ebp),%eax
    7cdb:	50                   	push   %eax
    7cdc:	e8 db 8a ff ff       	call   7bc <disable>
    7ce1:	8b 45 08             	mov    0x8(%ebp),%eax
    7ce4:	a3 c0 9a 01 00       	mov    %eax,0x19ac0
    7ce9:	50                   	push   %eax
    7cea:	a1 c0 9a 01 00       	mov    0x19ac0,%eax
    7cef:	0f 22 d8             	mov    %eax,%cr3
    7cf2:	58                   	pop    %eax
    7cf3:	8d 45 fe             	lea    0xfffffffe(%ebp),%eax
    7cf6:	89 04 24             	mov    %eax,(%esp)
    7cf9:	e8 e6 8a ff ff       	call   7e4 <restore>
    7cfe:	c9                   	leave  
    7cff:	c3                   	ret    

00007d00 <write_cr4>:
    7d00:	55                   	push   %ebp
    7d01:	89 e5                	mov    %esp,%ebp
    7d03:	83 ec 14             	sub    $0x14,%esp
    7d06:	8d 45 fe             	lea    0xfffffffe(%ebp),%eax
    7d09:	50                   	push   %eax
    7d0a:	e8 ad 8a ff ff       	call   7bc <disable>
    7d0f:	8b 45 08             	mov    0x8(%ebp),%eax
    7d12:	a3 c0 9a 01 00       	mov    %eax,0x19ac0
    7d17:	50                   	push   %eax
    7d18:	a1 c0 9a 01 00       	mov    0x19ac0,%eax
    7d1d:	0f 22 e0             	mov    %eax,%cr4
    7d20:	58                   	pop    %eax
    7d21:	8d 45 fe             	lea    0xfffffffe(%ebp),%eax
    7d24:	89 04 24             	mov    %eax,(%esp)
    7d27:	e8 b8 8a ff ff       	call   7e4 <restore>
    7d2c:	c9                   	leave  
    7d2d:	c3                   	ret    

00007d2e <enable_paging>:
    7d2e:	55                   	push   %ebp
    7d2f:	89 e5                	mov    %esp,%ebp
    7d31:	83 ec 08             	sub    $0x8,%esp
    7d34:	e8 a3 fe ff ff       	call   7bdc <read_cr0>
    7d39:	0d 01 00 00 80       	or     $0x80000001,%eax
    7d3e:	83 ec 0c             	sub    $0xc,%esp
    7d41:	50                   	push   %eax
    7d42:	e8 5d ff ff ff       	call   7ca4 <write_cr0>
    7d47:	c9                   	leave  
    7d48:	c3                   	ret    
    7d49:	90                   	nop    
    7d4a:	90                   	nop    
    7d4b:	90                   	nop    

00007d4c <init_bsm>:
    7d4c:	55                   	push   %ebp
    7d4d:	89 e5                	mov    %esp,%ebp
    7d4f:	83 ec 14             	sub    $0x14,%esp
    7d52:	68 17 a6 00 00       	push   $0xa617
    7d57:	e8 0c dd ff ff       	call   5a68 <kprintf>
    7d5c:	ba 00 00 00 00       	mov    $0x0,%edx
    7d61:	83 c4 10             	add    $0x10,%esp
    7d64:	89 d0                	mov    %edx,%eax
    7d66:	c1 e0 05             	shl    $0x5,%eax
    7d69:	89 90 f4 c6 00 00    	mov    %edx,0xc6f4(%eax)
    7d6f:	c7 80 e0 c6 00 00 00 	movl   $0x0,0xc6e0(%eax)
    7d76:	00 00 00 
    7d79:	c7 80 e4 c6 00 00 00 	movl   $0x0,0xc6e4(%eax)
    7d80:	00 00 00 
    7d83:	c7 80 e8 c6 00 00 00 	movl   $0x0,0xc6e8(%eax)
    7d8a:	00 00 00 
    7d8d:	c7 80 ec c6 00 00 80 	movl   $0x80,0xc6ec(%eax)
    7d94:	00 00 00 
    7d97:	c7 80 f0 c6 00 00 00 	movl   $0x0,0xc6f0(%eax)
    7d9e:	00 00 00 
    7da1:	c7 80 f8 c6 00 00 00 	movl   $0x0,0xc6f8(%eax)
    7da8:	00 00 00 
    7dab:	c7 80 fc c6 00 00 00 	movl   $0x0,0xc6fc(%eax)
    7db2:	00 00 00 
    7db5:	42                   	inc    %edx
    7db6:	83 fa 0f             	cmp    $0xf,%edx
    7db9:	7e a9                	jle    7d64 <init_bsm+0x18>
    7dbb:	b8 01 00 00 00       	mov    $0x1,%eax
    7dc0:	c9                   	leave  
    7dc1:	c3                   	ret    

00007dc2 <get_bsm>:
    7dc2:	55                   	push   %ebp
    7dc3:	89 e5                	mov    %esp,%ebp
    7dc5:	8b 4d 08             	mov    0x8(%ebp),%ecx
    7dc8:	b8 ff ff ff ff       	mov    $0xffffffff,%eax
    7dcd:	83 39 7f             	cmpl   $0x7f,(%ecx)
    7dd0:	7f 29                	jg     7dfb <get_bsm+0x39>
    7dd2:	eb 09                	jmp    7ddd <get_bsm+0x1b>
    7dd4:	89 11                	mov    %edx,(%ecx)
    7dd6:	b8 01 00 00 00       	mov    $0x1,%eax
    7ddb:	eb 1e                	jmp    7dfb <get_bsm+0x39>
    7ddd:	ba 00 00 00 00       	mov    $0x0,%edx
    7de2:	89 d0                	mov    %edx,%eax
    7de4:	c1 e0 05             	shl    $0x5,%eax
    7de7:	83 b8 e0 c6 00 00 00 	cmpl   $0x0,0xc6e0(%eax)
    7dee:	74 e4                	je     7dd4 <get_bsm+0x12>
    7df0:	42                   	inc    %edx
    7df1:	83 fa 0f             	cmp    $0xf,%edx
    7df4:	7e ec                	jle    7de2 <get_bsm+0x20>
    7df6:	b8 ff ff ff ff       	mov    $0xffffffff,%eax
    7dfb:	5d                   	pop    %ebp
    7dfc:	c3                   	ret    

00007dfd <free_bsm>:
    7dfd:	55                   	push   %ebp
    7dfe:	89 e5                	mov    %esp,%ebp
    7e00:	8b 45 08             	mov    0x8(%ebp),%eax
    7e03:	89 c1                	mov    %eax,%ecx
    7e05:	c1 e1 05             	shl    $0x5,%ecx
    7e08:	8d 91 e0 c6 00 00    	lea    0xc6e0(%ecx),%edx
    7e0e:	89 42 14             	mov    %eax,0x14(%edx)
    7e11:	c7 81 e0 c6 00 00 00 	movl   $0x0,0xc6e0(%ecx)
    7e18:	00 00 00 
    7e1b:	c7 42 04 00 00 00 00 	movl   $0x0,0x4(%edx)
    7e22:	c7 42 08 00 00 00 00 	movl   $0x0,0x8(%edx)
    7e29:	c7 42 0c 80 00 00 00 	movl   $0x80,0xc(%edx)
    7e30:	c7 42 10 00 00 00 00 	movl   $0x0,0x10(%edx)
    7e37:	c7 42 18 00 00 00 00 	movl   $0x0,0x18(%edx)
    7e3e:	c7 42 1c 00 00 00 00 	movl   $0x0,0x1c(%edx)
    7e45:	b8 01 00 00 00       	mov    $0x1,%eax
    7e4a:	5d                   	pop    %ebp
    7e4b:	c3                   	ret    

00007e4c <bsm_lookup>:
    7e4c:	55                   	push   %ebp
    7e4d:	89 e5                	mov    %esp,%ebp
    7e4f:	57                   	push   %edi
    7e50:	56                   	push   %esi
    7e51:	53                   	push   %ebx
    7e52:	83 ec 18             	sub    $0x18,%esp
    7e55:	8b 7d 08             	mov    0x8(%ebp),%edi
    7e58:	8b 75 0c             	mov    0xc(%ebp),%esi
    7e5b:	8d 45 f2             	lea    0xfffffff2(%ebp),%eax
    7e5e:	50                   	push   %eax
    7e5f:	e8 58 89 ff ff       	call   7bc <disable>
    7e64:	bb 00 00 00 00       	mov    $0x0,%ebx
    7e69:	83 c4 10             	add    $0x10,%esp
    7e6c:	89 d8                	mov    %ebx,%eax
    7e6e:	c1 e0 05             	shl    $0x5,%eax
    7e71:	8d 90 e0 c6 00 00    	lea    0xc6e0(%eax),%edx
    7e77:	83 b8 e0 c6 00 00 00 	cmpl   $0x0,0xc6e0(%eax)
    7e7e:	74 61                	je     7ee1 <bsm_lookup+0x95>
    7e80:	8b 4a 18             	mov    0x18(%edx),%ecx
    7e83:	85 c9                	test   %ecx,%ecx
    7e85:	74 5a                	je     7ee1 <bsm_lookup+0x95>
    7e87:	39 79 04             	cmp    %edi,0x4(%ecx)
    7e8a:	75 4e                	jne    7eda <bsm_lookup+0x8e>
    7e8c:	89 f0                	mov    %esi,%eax
    7e8e:	85 f6                	test   %esi,%esi
    7e90:	79 06                	jns    7e98 <bsm_lookup+0x4c>
    7e92:	8d 86 ff 0f 00 00    	lea    0xfff(%esi),%eax
    7e98:	c1 f8 0c             	sar    $0xc,%eax
    7e9b:	3b 41 08             	cmp    0x8(%ecx),%eax
    7e9e:	7c 3a                	jl     7eda <bsm_lookup+0x8e>
    7ea0:	89 f0                	mov    %esi,%eax
    7ea2:	85 f6                	test   %esi,%esi
    7ea4:	79 05                	jns    7eab <bsm_lookup+0x5f>
    7ea6:	05 ff 0f 00 00       	add    $0xfff,%eax
    7eab:	89 c2                	mov    %eax,%edx
    7ead:	c1 fa 0c             	sar    $0xc,%edx
    7eb0:	8b 41 08             	mov    0x8(%ecx),%eax
    7eb3:	03 41 0c             	add    0xc(%ecx),%eax
    7eb6:	39 c2                	cmp    %eax,%edx
    7eb8:	7d 20                	jge    7eda <bsm_lookup+0x8e>
    7eba:	8b 45 10             	mov    0x10(%ebp),%eax
    7ebd:	89 18                	mov    %ebx,(%eax)
    7ebf:	8b 51 08             	mov    0x8(%ecx),%edx
    7ec2:	8b 45 14             	mov    0x14(%ebp),%eax
    7ec5:	89 10                	mov    %edx,(%eax)
    7ec7:	83 ec 0c             	sub    $0xc,%esp
    7eca:	8d 45 f2             	lea    0xfffffff2(%ebp),%eax
    7ecd:	50                   	push   %eax
    7ece:	e8 11 89 ff ff       	call   7e4 <restore>
    7ed3:	b8 01 00 00 00       	mov    $0x1,%eax
    7ed8:	eb 1e                	jmp    7ef8 <bsm_lookup+0xac>
    7eda:	8b 49 18             	mov    0x18(%ecx),%ecx
    7edd:	85 c9                	test   %ecx,%ecx
    7edf:	75 a6                	jne    7e87 <bsm_lookup+0x3b>
    7ee1:	43                   	inc    %ebx
    7ee2:	83 fb 0e             	cmp    $0xe,%ebx
    7ee5:	7e 85                	jle    7e6c <bsm_lookup+0x20>
    7ee7:	83 ec 0c             	sub    $0xc,%esp
    7eea:	8d 45 f2             	lea    0xfffffff2(%ebp),%eax
    7eed:	50                   	push   %eax
    7eee:	e8 f1 88 ff ff       	call   7e4 <restore>
    7ef3:	b8 ff ff ff ff       	mov    $0xffffffff,%eax
    7ef8:	8d 65 f4             	lea    0xfffffff4(%ebp),%esp
    7efb:	5b                   	pop    %ebx
    7efc:	5e                   	pop    %esi
    7efd:	5f                   	pop    %edi
    7efe:	5d                   	pop    %ebp
    7eff:	c3                   	ret    

00007f00 <bsm_map>:
    7f00:	55                   	push   %ebp
    7f01:	89 e5                	mov    %esp,%ebp
    7f03:	57                   	push   %edi
    7f04:	56                   	push   %esi
    7f05:	53                   	push   %ebx
    7f06:	83 ec 18             	sub    $0x18,%esp
    7f09:	8b 7d 0c             	mov    0xc(%ebp),%edi
    7f0c:	8b 75 10             	mov    0x10(%ebp),%esi
    7f0f:	89 f0                	mov    %esi,%eax
    7f11:	c1 e0 05             	shl    $0x5,%eax
    7f14:	8d 98 e0 c6 00 00    	lea    0xc6e0(%eax),%ebx
    7f1a:	6a 20                	push   $0x20
    7f1c:	e8 ab cf ff ff       	call   4ecc <getmem>
    7f21:	89 c2                	mov    %eax,%edx
    7f23:	83 c4 10             	add    $0x10,%esp
    7f26:	b8 ff ff ff ff       	mov    $0xffffffff,%eax
    7f2b:	85 d2                	test   %edx,%edx
    7f2d:	74 34                	je     7f63 <bsm_map+0x63>
    7f2f:	89 72 14             	mov    %esi,0x14(%edx)
    7f32:	c7 02 01 00 00 00    	movl   $0x1,(%edx)
    7f38:	8b 45 08             	mov    0x8(%ebp),%eax
    7f3b:	89 42 04             	mov    %eax,0x4(%edx)
    7f3e:	89 7a 08             	mov    %edi,0x8(%edx)
    7f41:	8b 45 14             	mov    0x14(%ebp),%eax
    7f44:	89 42 0c             	mov    %eax,0xc(%edx)
    7f47:	8b 43 18             	mov    0x18(%ebx),%eax
    7f4a:	89 42 18             	mov    %eax,0x18(%edx)
    7f4d:	89 53 18             	mov    %edx,0x18(%ebx)
    7f50:	83 ec 08             	sub    $0x8,%esp
    7f53:	57                   	push   %edi
    7f54:	68 38 a6 00 00       	push   $0xa638
    7f59:	e8 0a db ff ff       	call   5a68 <kprintf>
    7f5e:	b8 01 00 00 00       	mov    $0x1,%eax
    7f63:	8d 65 f4             	lea    0xfffffff4(%ebp),%esp
    7f66:	5b                   	pop    %ebx
    7f67:	5e                   	pop    %esi
    7f68:	5f                   	pop    %edi
    7f69:	5d                   	pop    %ebp
    7f6a:	c3                   	ret    

00007f6b <bsm_unmap>:
    7f6b:	55                   	push   %ebp
    7f6c:	89 e5                	mov    %esp,%ebp
    7f6e:	57                   	push   %edi
    7f6f:	56                   	push   %esi
    7f70:	53                   	push   %ebx
    7f71:	83 ec 18             	sub    $0x18,%esp
    7f74:	8b 7d 0c             	mov    0xc(%ebp),%edi
    7f77:	8d 45 f2             	lea    0xfffffff2(%ebp),%eax
    7f7a:	50                   	push   %eax
    7f7b:	e8 3c 88 ff ff       	call   7bc <disable>
    7f80:	be 00 00 00 00       	mov    $0x0,%esi
    7f85:	83 c4 10             	add    $0x10,%esp
    7f88:	89 f0                	mov    %esi,%eax
    7f8a:	c1 e0 05             	shl    $0x5,%eax
    7f8d:	8d 90 e0 c6 00 00    	lea    0xc6e0(%eax),%edx
    7f93:	83 b8 e0 c6 00 00 00 	cmpl   $0x0,0xc6e0(%eax)
    7f9a:	74 66                	je     8002 <bsm_unmap+0x97>
    7f9c:	89 d3                	mov    %edx,%ebx
    7f9e:	8b 52 18             	mov    0x18(%edx),%edx
    7fa1:	85 d2                	test   %edx,%edx
    7fa3:	74 5d                	je     8002 <bsm_unmap+0x97>
    7fa5:	b9 00 00 00 00       	mov    $0x0,%ecx
    7faa:	83 7d 08 00          	cmpl   $0x0,0x8(%ebp)
    7fae:	74 11                	je     7fc1 <bsm_unmap+0x56>
    7fb0:	39 7a 08             	cmp    %edi,0x8(%edx)
    7fb3:	7f 0c                	jg     7fc1 <bsm_unmap+0x56>
    7fb5:	8b 42 08             	mov    0x8(%edx),%eax
    7fb8:	03 42 0c             	add    0xc(%edx),%eax
    7fbb:	39 f8                	cmp    %edi,%eax
    7fbd:	7e 02                	jle    7fc1 <bsm_unmap+0x56>
    7fbf:	b1 01                	mov    $0x1,%cl
    7fc1:	89 4a 04             	mov    %ecx,0x4(%edx)
    7fc4:	85 c9                	test   %ecx,%ecx
    7fc6:	74 31                	je     7ff9 <bsm_unmap+0x8e>
    7fc8:	39 7a 08             	cmp    %edi,0x8(%edx)
    7fcb:	75 16                	jne    7fe3 <bsm_unmap+0x78>
    7fcd:	8b 42 18             	mov    0x18(%edx),%eax
    7fd0:	89 43 18             	mov    %eax,0x18(%ebx)
    7fd3:	83 ec 08             	sub    $0x8,%esp
    7fd6:	6a 04                	push   $0x4
    7fd8:	52                   	push   %edx
    7fd9:	e8 c2 cb ff ff       	call   4ba0 <freemem>
    7fde:	83 c4 10             	add    $0x10,%esp
    7fe1:	eb 03                	jmp    7fe6 <bsm_unmap+0x7b>
    7fe3:	29 7a 0c             	sub    %edi,0xc(%edx)
    7fe6:	83 ec 0c             	sub    $0xc,%esp
    7fe9:	8d 45 f2             	lea    0xfffffff2(%ebp),%eax
    7fec:	50                   	push   %eax
    7fed:	e8 f2 87 ff ff       	call   7e4 <restore>
    7ff2:	b8 01 00 00 00       	mov    $0x1,%eax
    7ff7:	eb 20                	jmp    8019 <bsm_unmap+0xae>
    7ff9:	89 d3                	mov    %edx,%ebx
    7ffb:	8b 52 18             	mov    0x18(%edx),%edx
    7ffe:	85 d2                	test   %edx,%edx
    8000:	75 a3                	jne    7fa5 <bsm_unmap+0x3a>
    8002:	46                   	inc    %esi
    8003:	83 fe 0e             	cmp    $0xe,%esi
    8006:	7e 80                	jle    7f88 <bsm_unmap+0x1d>
    8008:	83 ec 0c             	sub    $0xc,%esp
    800b:	8d 45 f2             	lea    0xfffffff2(%ebp),%eax
    800e:	50                   	push   %eax
    800f:	e8 d0 87 ff ff       	call   7e4 <restore>
    8014:	b8 ff ff ff ff       	mov    $0xffffffff,%eax
    8019:	8d 65 f4             	lea    0xfffffff4(%ebp),%esp
    801c:	5b                   	pop    %ebx
    801d:	5e                   	pop    %esi
    801e:	5f                   	pop    %edi
    801f:	5d                   	pop    %ebp
    8020:	c3                   	ret    
    8021:	90                   	nop    
    8022:	90                   	nop    
    8023:	90                   	nop    

00008024 <srpolicy>:
    8024:	55                   	push   %ebp
    8025:	89 e5                	mov    %esp,%ebp
    8027:	83 ec 14             	sub    $0x14,%esp
    802a:	68 59 a6 00 00       	push   $0xa659
    802f:	e8 34 da ff ff       	call   5a68 <kprintf>
    8034:	b8 01 00 00 00       	mov    $0x1,%eax
    8039:	c9                   	leave  
    803a:	c3                   	ret    

0000803b <grpolicy>:
    803b:	55                   	push   %ebp
    803c:	89 e5                	mov    %esp,%ebp
    803e:	a1 e0 b1 00 00       	mov    0xb1e0,%eax
    8043:	5d                   	pop    %ebp
    8044:	c3                   	ret    
    8045:	90                   	nop    
    8046:	90                   	nop    
    8047:	90                   	nop    

00008048 <init_pt>:
    8048:	55                   	push   %ebp
    8049:	89 e5                	mov    %esp,%ebp
    804b:	57                   	push   %edi
    804c:	56                   	push   %esi
    804d:	53                   	push   %ebx
    804e:	83 ec 18             	sub    $0x18,%esp
    8051:	68 70 a6 00 00       	push   $0xa670
    8056:	e8 0d da ff ff       	call   5a68 <kprintf>
    805b:	bf 00 00 00 00       	mov    $0x0,%edi
    8060:	83 c4 10             	add    $0x10,%esp
    8063:	e8 70 00 00 00       	call   80d8 <createPageTable>
    8068:	89 04 bd c4 9a 01 00 	mov    %eax,0x19ac4(,%edi,4)
    806f:	85 c0                	test   %eax,%eax
    8071:	75 14                	jne    8087 <init_pt+0x3f>
    8073:	83 ec 0c             	sub    $0xc,%esp
    8076:	68 9c a6 00 00       	push   $0xa69c
    807b:	e8 e8 d9 ff ff       	call   5a68 <kprintf>
    8080:	b8 ff ff ff ff       	mov    $0xffffffff,%eax
    8085:	eb 49                	jmp    80d0 <init_pt+0x88>
    8087:	8b 1c bd c4 9a 01 00 	mov    0x19ac4(,%edi,4),%ebx
    808e:	b9 00 00 00 00       	mov    $0x0,%ecx
    8093:	89 fe                	mov    %edi,%esi
    8095:	c1 e6 0a             	shl    $0xa,%esi
    8098:	80 0c 8b 03          	orb    $0x3,(%ebx,%ecx,4)
    809c:	8d 14 0e             	lea    (%esi,%ecx,1),%edx
    809f:	c1 e2 0c             	shl    $0xc,%edx
    80a2:	8b 04 8b             	mov    (%ebx,%ecx,4),%eax
    80a5:	25 ff 0f 00 00       	and    $0xfff,%eax
    80aa:	09 d0                	or     %edx,%eax
    80ac:	89 04 8b             	mov    %eax,(%ebx,%ecx,4)
    80af:	41                   	inc    %ecx
    80b0:	81 f9 ff 03 00 00    	cmp    $0x3ff,%ecx
    80b6:	7e e0                	jle    8098 <init_pt+0x50>
    80b8:	47                   	inc    %edi
    80b9:	83 ff 03             	cmp    $0x3,%edi
    80bc:	7e a5                	jle    8063 <init_pt+0x1b>
    80be:	83 ec 0c             	sub    $0xc,%esp
    80c1:	68 bc a6 00 00       	push   $0xa6bc
    80c6:	e8 9d d9 ff ff       	call   5a68 <kprintf>
    80cb:	b8 01 00 00 00       	mov    $0x1,%eax
    80d0:	8d 65 f4             	lea    0xfffffff4(%ebp),%esp
    80d3:	5b                   	pop    %ebx
    80d4:	5e                   	pop    %esi
    80d5:	5f                   	pop    %edi
    80d6:	5d                   	pop    %ebp
    80d7:	c3                   	ret    

000080d8 <createPageTable>:
    80d8:	55                   	push   %ebp
    80d9:	89 e5                	mov    %esp,%ebp
    80db:	83 ec 14             	sub    $0x14,%esp
    80de:	c7 45 fc 01 00 00 00 	movl   $0x1,0xfffffffc(%ebp)
    80e5:	8d 45 fc             	lea    0xfffffffc(%ebp),%eax
    80e8:	50                   	push   %eax
    80e9:	e8 f1 02 00 00       	call   83df <get_frm>
    80ee:	83 c4 10             	add    $0x10,%esp
    80f1:	b8 00 00 00 00       	mov    $0x0,%eax
    80f6:	83 7d fc ff          	cmpl   $0xffffffff,0xfffffffc(%ebp)
    80fa:	74 38                	je     8134 <createPageTable+0x5c>
    80fc:	8b 45 fc             	mov    0xfffffffc(%ebp),%eax
    80ff:	89 c2                	mov    %eax,%edx
    8101:	c1 e2 05             	shl    $0x5,%edx
    8104:	c7 82 d0 f5 00 00 01 	movl   $0x1,0xf5d0(%edx)
    810b:	00 00 00 
    810e:	c1 e0 0c             	shl    $0xc,%eax
    8111:	05 00 00 40 00       	add    $0x400000,%eax
    8116:	ba 00 00 00 00       	mov    $0x0,%edx
    811b:	c6 04 90 00          	movb   $0x0,(%eax,%edx,4)
    811f:	80 64 90 01 fe       	andb   $0xfe,0x1(%eax,%edx,4)
    8124:	81 24 90 ff 01 00 00 	andl   $0x1ff,(%eax,%edx,4)
    812b:	42                   	inc    %edx
    812c:	81 fa ff 03 00 00    	cmp    $0x3ff,%edx
    8132:	7e e7                	jle    811b <createPageTable+0x43>
    8134:	c9                   	leave  
    8135:	c3                   	ret    

00008136 <init_pd>:
    8136:	55                   	push   %ebp
    8137:	89 e5                	mov    %esp,%ebp
    8139:	56                   	push   %esi
    813a:	53                   	push   %ebx
    813b:	83 ec 0c             	sub    $0xc,%esp
    813e:	ff 75 08             	pushl  0x8(%ebp)
    8141:	e8 64 00 00 00       	call   81aa <createPageDirectory>
    8146:	89 c6                	mov    %eax,%esi
    8148:	83 c4 10             	add    $0x10,%esp
    814b:	bb 00 00 00 00       	mov    $0x0,%ebx
    8150:	85 c0                	test   %eax,%eax
    8152:	75 14                	jne    8168 <init_pd+0x32>
    8154:	83 ec 0c             	sub    $0xc,%esp
    8157:	68 e4 a6 00 00       	push   $0xa6e4
    815c:	e8 07 d9 ff ff       	call   5a68 <kprintf>
    8161:	b8 00 00 00 00       	mov    $0x0,%eax
    8166:	eb 3b                	jmp    81a3 <init_pd+0x6d>
    8168:	80 0c 9e 03          	orb    $0x3,(%esi,%ebx,4)
    816c:	8b 14 9d c4 9a 01 00 	mov    0x19ac4(,%ebx,4),%edx
    8173:	81 e2 00 f0 ff ff    	and    $0xfffff000,%edx
    8179:	8b 04 9e             	mov    (%esi,%ebx,4),%eax
    817c:	25 ff 0f 00 00       	and    $0xfff,%eax
    8181:	09 d0                	or     %edx,%eax
    8183:	89 04 9e             	mov    %eax,(%esi,%ebx,4)
    8186:	83 ec 04             	sub    $0x4,%esp
    8189:	c1 e8 0c             	shr    $0xc,%eax
    818c:	50                   	push   %eax
    818d:	53                   	push   %ebx
    818e:	68 08 a7 00 00       	push   $0xa708
    8193:	e8 d0 d8 ff ff       	call   5a68 <kprintf>
    8198:	83 c4 10             	add    $0x10,%esp
    819b:	43                   	inc    %ebx
    819c:	83 fb 03             	cmp    $0x3,%ebx
    819f:	7e c7                	jle    8168 <init_pd+0x32>
    81a1:	89 f0                	mov    %esi,%eax
    81a3:	8d 65 f8             	lea    0xfffffff8(%ebp),%esp
    81a6:	5b                   	pop    %ebx
    81a7:	5e                   	pop    %esi
    81a8:	5d                   	pop    %ebp
    81a9:	c3                   	ret    

000081aa <createPageDirectory>:
    81aa:	55                   	push   %ebp
    81ab:	89 e5                	mov    %esp,%ebp
    81ad:	83 ec 14             	sub    $0x14,%esp
    81b0:	c7 45 fc 02 00 00 00 	movl   $0x2,0xfffffffc(%ebp)
    81b7:	8d 45 fc             	lea    0xfffffffc(%ebp),%eax
    81ba:	50                   	push   %eax
    81bb:	e8 1f 02 00 00       	call   83df <get_frm>
    81c0:	83 c4 10             	add    $0x10,%esp
    81c3:	b8 00 00 00 00       	mov    $0x0,%eax
    81c8:	83 7d fc ff          	cmpl   $0xffffffff,0xfffffffc(%ebp)
    81cc:	74 41                	je     820f <createPageDirectory+0x65>
    81ce:	8b 45 fc             	mov    0xfffffffc(%ebp),%eax
    81d1:	89 c1                	mov    %eax,%ecx
    81d3:	c1 e1 05             	shl    $0x5,%ecx
    81d6:	c7 81 d0 f5 00 00 02 	movl   $0x2,0xf5d0(%ecx)
    81dd:	00 00 00 
    81e0:	8b 55 08             	mov    0x8(%ebp),%edx
    81e3:	89 91 c4 f5 00 00    	mov    %edx,0xf5c4(%ecx)
    81e9:	c1 e0 0c             	shl    $0xc,%eax
    81ec:	05 00 00 40 00       	add    $0x400000,%eax
    81f1:	ba 00 00 00 00       	mov    $0x0,%edx
    81f6:	c6 04 90 00          	movb   $0x0,(%eax,%edx,4)
    81fa:	80 64 90 01 fe       	andb   $0xfe,0x1(%eax,%edx,4)
    81ff:	81 24 90 ff 01 00 00 	andl   $0x1ff,(%eax,%edx,4)
    8206:	42                   	inc    %edx
    8207:	81 fa ff 03 00 00    	cmp    $0x3ff,%edx
    820d:	7e e7                	jle    81f6 <createPageDirectory+0x4c>
    820f:	c9                   	leave  
    8210:	c3                   	ret    

00008211 <resetPT>:
    8211:	55                   	push   %ebp
    8212:	89 e5                	mov    %esp,%ebp
    8214:	57                   	push   %edi
    8215:	56                   	push   %esi
    8216:	53                   	push   %ebx
    8217:	83 ec 0c             	sub    $0xc,%esp
    821a:	bf 00 00 00 00       	mov    $0x0,%edi
    821f:	8d 04 7f             	lea    (%edi,%edi,2),%eax
    8222:	c1 e0 04             	shl    $0x4,%eax
    8225:	01 f8                	add    %edi,%eax
    8227:	c1 e0 02             	shl    $0x2,%eax
    822a:	8d 90 00 c9 00 00    	lea    0xc900(%eax),%edx
    8230:	80 b8 00 c9 00 00 02 	cmpb   $0x2,0xc900(%eax)
    8237:	0f 84 98 00 00 00    	je     82d5 <resetPT+0xc4>
    823d:	8b 92 b0 00 00 00    	mov    0xb0(%edx),%edx
    8243:	89 55 ec             	mov    %edx,0xffffffec(%ebp)
    8246:	c7 45 f0 04 00 00 00 	movl   $0x4,0xfffffff0(%ebp)
    824d:	8b 45 08             	mov    0x8(%ebp),%eax
    8250:	05 00 04 00 00       	add    $0x400,%eax
    8255:	89 45 e8             	mov    %eax,0xffffffe8(%ebp)
    8258:	8b 55 f0             	mov    0xfffffff0(%ebp),%edx
    825b:	8b 45 ec             	mov    0xffffffec(%ebp),%eax
    825e:	f6 04 90 01          	testb  $0x1,(%eax,%edx,4)
    8262:	74 65                	je     82c9 <resetPT+0xb8>
    8264:	be 00 00 00 00       	mov    $0x0,%esi
    8269:	8b 0c 90             	mov    (%eax,%edx,4),%ecx
    826c:	81 e1 00 f0 ff ff    	and    $0xfffff000,%ecx
    8272:	ba 00 00 00 00       	mov    $0x0,%edx
    8277:	8b 5d e8             	mov    0xffffffe8(%ebp),%ebx
    827a:	f6 04 91 01          	testb  $0x1,(%ecx,%edx,4)
    827e:	74 15                	je     8295 <resetPT+0x84>
    8280:	8b 04 91             	mov    (%ecx,%edx,4),%eax
    8283:	c1 e8 0c             	shr    $0xc,%eax
    8286:	39 d8                	cmp    %ebx,%eax
    8288:	75 0b                	jne    8295 <resetPT+0x84>
    828a:	80 24 91 fe          	andb   $0xfe,(%ecx,%edx,4)
    828e:	81 24 91 ff 0f 00 00 	andl   $0xfff,(%ecx,%edx,4)
    8295:	42                   	inc    %edx
    8296:	81 fa ff 03 00 00    	cmp    $0x3ff,%edx
    829c:	7e dc                	jle    827a <resetPT+0x69>
    829e:	ba 00 00 00 00       	mov    $0x0,%edx
    82a3:	f6 04 91 01          	testb  $0x1,(%ecx,%edx,4)
    82a7:	74 05                	je     82ae <resetPT+0x9d>
    82a9:	be 01 00 00 00       	mov    $0x1,%esi
    82ae:	42                   	inc    %edx
    82af:	81 fa ff 03 00 00    	cmp    $0x3ff,%edx
    82b5:	7e ec                	jle    82a3 <resetPT+0x92>
    82b7:	83 fe 01             	cmp    $0x1,%esi
    82ba:	74 0d                	je     82c9 <resetPT+0xb8>
    82bc:	83 ec 08             	sub    $0x8,%esp
    82bf:	57                   	push   %edi
    82c0:	51                   	push   %ecx
    82c1:	e8 26 00 00 00       	call   82ec <freept>
    82c6:	83 c4 10             	add    $0x10,%esp
    82c9:	ff 45 f0             	incl   0xfffffff0(%ebp)
    82cc:	81 7d f0 ff 03 00 00 	cmpl   $0x3ff,0xfffffff0(%ebp)
    82d3:	7e 83                	jle    8258 <resetPT+0x47>
    82d5:	47                   	inc    %edi
    82d6:	83 ff 31             	cmp    $0x31,%edi
    82d9:	0f 8e 40 ff ff ff    	jle    821f <resetPT+0xe>
    82df:	b8 01 00 00 00       	mov    $0x1,%eax
    82e4:	8d 65 f4             	lea    0xfffffff4(%ebp),%esp
    82e7:	5b                   	pop    %ebx
    82e8:	5e                   	pop    %esi
    82e9:	5f                   	pop    %edi
    82ea:	5d                   	pop    %ebp
    82eb:	c3                   	ret    

000082ec <freept>:
    82ec:	55                   	push   %ebp
    82ed:	89 e5                	mov    %esp,%ebp
    82ef:	57                   	push   %edi
    82f0:	56                   	push   %esi
    82f1:	53                   	push   %ebx
    82f2:	83 ec 0c             	sub    $0xc,%esp
    82f5:	8b 55 0c             	mov    0xc(%ebp),%edx
    82f8:	8b 45 08             	mov    0x8(%ebp),%eax
    82fb:	89 c7                	mov    %eax,%edi
    82fd:	c1 ef 0c             	shr    $0xc,%edi
    8300:	8d 04 52             	lea    (%edx,%edx,2),%eax
    8303:	c1 e0 04             	shl    $0x4,%eax
    8306:	01 d0                	add    %edx,%eax
    8308:	8b 34 85 b0 c9 00 00 	mov    0xc9b0(,%eax,4),%esi
    830f:	bb 04 00 00 00       	mov    $0x4,%ebx
    8314:	f6 04 9e 01          	testb  $0x1,(%esi,%ebx,4)
    8318:	74 2c                	je     8346 <freept+0x5a>
    831a:	8b 14 9e             	mov    (%esi,%ebx,4),%edx
    831d:	89 d0                	mov    %edx,%eax
    831f:	c1 e8 0c             	shr    $0xc,%eax
    8322:	39 f8                	cmp    %edi,%eax
    8324:	75 20                	jne    8346 <freept+0x5a>
    8326:	89 d0                	mov    %edx,%eax
    8328:	25 ff 0f 00 00       	and    $0xfff,%eax
    832d:	89 04 9e             	mov    %eax,(%esi,%ebx,4)
    8330:	80 24 9e fe          	andb   $0xfe,(%esi,%ebx,4)
    8334:	83 ec 0c             	sub    $0xc,%esp
    8337:	8d 87 00 fc ff ff    	lea    0xfffffc00(%edi),%eax
    833d:	50                   	push   %eax
    833e:	e8 05 02 00 00       	call   8548 <free_frm>
    8343:	83 c4 10             	add    $0x10,%esp
    8346:	43                   	inc    %ebx
    8347:	81 fb ff 03 00 00    	cmp    $0x3ff,%ebx
    834d:	7e c5                	jle    8314 <freept+0x28>
    834f:	8d 65 f4             	lea    0xfffffff4(%ebp),%esp
    8352:	5b                   	pop    %ebx
    8353:	5e                   	pop    %esi
    8354:	5f                   	pop    %edi
    8355:	5d                   	pop    %ebp
    8356:	c3                   	ret    
    8357:	90                   	nop    

00008358 <init_frm>:
    8358:	55                   	push   %ebp
    8359:	89 e5                	mov    %esp,%ebp
    835b:	83 ec 14             	sub    $0x14,%esp
    835e:	68 2e a7 00 00       	push   $0xa72e
    8363:	e8 00 d7 ff ff       	call   5a68 <kprintf>
    8368:	ba 00 00 00 00       	mov    $0x0,%edx
    836d:	83 c4 10             	add    $0x10,%esp
    8370:	89 d0                	mov    %edx,%eax
    8372:	c1 e0 05             	shl    $0x5,%eax
    8375:	c7 80 c0 f5 00 00 00 	movl   $0x0,0xf5c0(%eax)
    837c:	00 00 00 
    837f:	c7 80 c4 f5 00 00 00 	movl   $0x0,0xf5c4(%eax)
    8386:	00 00 00 
    8389:	c7 80 c8 f5 00 00 00 	movl   $0x0,0xf5c8(%eax)
    8390:	00 00 00 
    8393:	c7 80 cc f5 00 00 00 	movl   $0x0,0xf5cc(%eax)
    839a:	00 00 00 
    839d:	c7 80 d0 f5 00 00 ff 	movl   $0xffffffff,0xf5d0(%eax)
    83a4:	ff ff ff 
    83a7:	c7 80 d4 f5 00 00 ff 	movl   $0xffffffff,0xf5d4(%eax)
    83ae:	ff ff ff 
    83b1:	c7 80 dc f5 00 00 00 	movl   $0x0,0xf5dc(%eax)
    83b8:	00 00 00 
    83bb:	42                   	inc    %edx
    83bc:	81 fa ff 03 00 00    	cmp    $0x3ff,%edx
    83c2:	7e ac                	jle    8370 <init_frm+0x18>
    83c4:	c7 05 d8 9a 01 00 00 	movl   $0x0,0x19ad8
    83cb:	00 00 00 
    83ce:	c7 05 d4 9a 01 00 00 	movl   $0x0,0x19ad4
    83d5:	00 00 00 
    83d8:	b8 01 00 00 00       	mov    $0x1,%eax
    83dd:	c9                   	leave  
    83de:	c3                   	ret    

000083df <get_frm>:
    83df:	55                   	push   %ebp
    83e0:	89 e5                	mov    %esp,%ebp
    83e2:	56                   	push   %esi
    83e3:	53                   	push   %ebx
    83e4:	8b 75 08             	mov    0x8(%ebp),%esi
    83e7:	83 ec 0c             	sub    $0xc,%esp
    83ea:	68 45 a7 00 00       	push   $0xa745
    83ef:	e8 74 d6 ff ff       	call   5a68 <kprintf>
    83f4:	bb 00 00 00 00       	mov    $0x0,%ebx
    83f9:	83 c4 10             	add    $0x10,%esp
    83fc:	8b 06                	mov    (%esi),%eax
    83fe:	48                   	dec    %eax
    83ff:	83 f8 01             	cmp    $0x1,%eax
    8402:	77 49                	ja     844d <get_frm+0x6e>
    8404:	81 fb fe 01 00 00    	cmp    $0x1fe,%ebx
    840a:	7f 54                	jg     8460 <get_frm+0x81>
    840c:	89 d8                	mov    %ebx,%eax
    840e:	c1 e0 05             	shl    $0x5,%eax
    8411:	83 b8 c0 f5 00 00 00 	cmpl   $0x0,0xf5c0(%eax)
    8418:	75 46                	jne    8460 <get_frm+0x81>
    841a:	c7 80 c0 f5 00 00 01 	movl   $0x1,0xf5c0(%eax)
    8421:	00 00 00 
    8424:	c7 80 cc f5 00 00 01 	movl   $0x1,0xf5cc(%eax)
    842b:	00 00 00 
    842e:	83 ec 04             	sub    $0x4,%esp
    8431:	ff 36                	pushl  (%esi)
    8433:	8d 83 00 04 00 00    	lea    0x400(%ebx),%eax
    8439:	50                   	push   %eax
    843a:	68 80 a7 00 00       	push   $0xa780
    843f:	e8 24 d6 ff ff       	call   5a68 <kprintf>
    8444:	89 1e                	mov    %ebx,(%esi)
    8446:	b8 01 00 00 00       	mov    $0x1,%eax
    844b:	eb 72                	jmp    84bf <get_frm+0xe0>
    844d:	83 3e 00             	cmpl   $0x0,(%esi)
    8450:	75 0e                	jne    8460 <get_frm+0x81>
    8452:	89 d8                	mov    %ebx,%eax
    8454:	c1 e0 05             	shl    $0x5,%eax
    8457:	83 b8 c0 f5 00 00 00 	cmpl   $0x0,0xf5c0(%eax)
    845e:	74 27                	je     8487 <get_frm+0xa8>
    8460:	43                   	inc    %ebx
    8461:	81 fb ff 03 00 00    	cmp    $0x3ff,%ebx
    8467:	7e 93                	jle    83fc <get_frm+0x1d>
    8469:	b8 ff ff ff ff       	mov    $0xffffffff,%eax
    846e:	83 3e 00             	cmpl   $0x0,(%esi)
    8471:	75 4c                	jne    84bf <get_frm+0xe0>
    8473:	83 ec 0c             	sub    $0xc,%esp
    8476:	68 b0 a7 00 00       	push   $0xa7b0
    847b:	e8 e8 d5 ff ff       	call   5a68 <kprintf>
    8480:	b8 01 00 00 00       	mov    $0x1,%eax
    8485:	eb 38                	jmp    84bf <get_frm+0xe0>
    8487:	c7 80 c0 f5 00 00 01 	movl   $0x1,0xf5c0(%eax)
    848e:	00 00 00 
    8491:	c7 80 cc f5 00 00 01 	movl   $0x1,0xf5cc(%eax)
    8498:	00 00 00 
    849b:	89 1e                	mov    %ebx,(%esi)
    849d:	83 ec 0c             	sub    $0xc,%esp
    84a0:	53                   	push   %ebx
    84a1:	e8 20 00 00 00       	call   84c6 <insn>
    84a6:	83 c4 08             	add    $0x8,%esp
    84a9:	8d 83 00 04 00 00    	lea    0x400(%ebx),%eax
    84af:	50                   	push   %eax
    84b0:	68 63 a7 00 00       	push   $0xa763
    84b5:	e8 ae d5 ff ff       	call   5a68 <kprintf>
    84ba:	b8 01 00 00 00       	mov    $0x1,%eax
    84bf:	8d 65 f8             	lea    0xfffffff8(%ebp),%esp
    84c2:	5b                   	pop    %ebx
    84c3:	5e                   	pop    %esi
    84c4:	5d                   	pop    %ebp
    84c5:	c3                   	ret    

000084c6 <insn>:
    84c6:	55                   	push   %ebp
    84c7:	89 e5                	mov    %esp,%ebp
    84c9:	83 ec 14             	sub    $0x14,%esp
    84cc:	ff 75 08             	pushl  0x8(%ebp)
    84cf:	e8 52 00 00 00       	call   8526 <addn>
    84d4:	89 c2                	mov    %eax,%edx
    84d6:	83 c4 10             	add    $0x10,%esp
    84d9:	83 3d d8 9a 01 00 00 	cmpl   $0x0,0x19ad8
    84e0:	75 1c                	jne    84fe <insn+0x38>
    84e2:	a3 d8 9a 01 00       	mov    %eax,0x19ad8
    84e7:	89 42 08             	mov    %eax,0x8(%edx)
    84ea:	a1 d8 9a 01 00       	mov    0x19ad8,%eax
    84ef:	89 40 04             	mov    %eax,0x4(%eax)
    84f2:	a1 d8 9a 01 00       	mov    0x19ad8,%eax
    84f7:	a3 d4 9a 01 00       	mov    %eax,0x19ad4
    84fc:	eb 26                	jmp    8524 <insn+0x5e>
    84fe:	a1 d8 9a 01 00       	mov    0x19ad8,%eax
    8503:	89 42 08             	mov    %eax,0x8(%edx)
    8506:	a1 d8 9a 01 00       	mov    0x19ad8,%eax
    850b:	8b 40 04             	mov    0x4(%eax),%eax
    850e:	89 42 04             	mov    %eax,0x4(%edx)
    8511:	a1 d8 9a 01 00       	mov    0x19ad8,%eax
    8516:	8b 40 04             	mov    0x4(%eax),%eax
    8519:	89 50 08             	mov    %edx,0x8(%eax)
    851c:	a1 d8 9a 01 00       	mov    0x19ad8,%eax
    8521:	89 50 04             	mov    %edx,0x4(%eax)
    8524:	c9                   	leave  
    8525:	c3                   	ret    

00008526 <addn>:
    8526:	55                   	push   %ebp
    8527:	89 e5                	mov    %esp,%ebp
    8529:	83 ec 14             	sub    $0x14,%esp
    852c:	6a 0c                	push   $0xc
    852e:	e8 99 c9 ff ff       	call   4ecc <getmem>
    8533:	8b 55 08             	mov    0x8(%ebp),%edx
    8536:	89 10                	mov    %edx,(%eax)
    8538:	c7 40 04 00 00 00 00 	movl   $0x0,0x4(%eax)
    853f:	c7 40 08 00 00 00 00 	movl   $0x0,0x8(%eax)
    8546:	c9                   	leave  
    8547:	c3                   	ret    

00008548 <free_frm>:
    8548:	55                   	push   %ebp
    8549:	89 e5                	mov    %esp,%ebp
    854b:	53                   	push   %ebx
    854c:	83 ec 04             	sub    $0x4,%esp
    854f:	8b 5d 08             	mov    0x8(%ebp),%ebx
    8552:	8d 43 ff             	lea    0xffffffff(%ebx),%eax
    8555:	ba ff ff ff ff       	mov    $0xffffffff,%edx
    855a:	3d ff 03 00 00       	cmp    $0x3ff,%eax
    855f:	77 72                	ja     85d3 <free_frm+0x8b>
    8561:	89 d8                	mov    %ebx,%eax
    8563:	c1 e0 05             	shl    $0x5,%eax
    8566:	83 b8 d0 f5 00 00 00 	cmpl   $0x0,0xf5d0(%eax)
    856d:	75 14                	jne    8583 <free_frm+0x3b>
    856f:	83 ec 0c             	sub    $0xc,%esp
    8572:	53                   	push   %ebx
    8573:	e8 99 fc ff ff       	call   8211 <resetPT>
    8578:	89 1c 24             	mov    %ebx,(%esp)
    857b:	e8 9e 01 00 00       	call   871e <deln>
    8580:	83 c4 10             	add    $0x10,%esp
    8583:	89 d8                	mov    %ebx,%eax
    8585:	c1 e0 05             	shl    $0x5,%eax
    8588:	c7 80 c0 f5 00 00 00 	movl   $0x0,0xf5c0(%eax)
    858f:	00 00 00 
    8592:	c7 80 c4 f5 00 00 00 	movl   $0x0,0xf5c4(%eax)
    8599:	00 00 00 
    859c:	c7 80 c8 f5 00 00 00 	movl   $0x0,0xf5c8(%eax)
    85a3:	00 00 00 
    85a6:	c7 80 cc f5 00 00 00 	movl   $0x0,0xf5cc(%eax)
    85ad:	00 00 00 
    85b0:	c7 80 d0 f5 00 00 ff 	movl   $0xffffffff,0xf5d0(%eax)
    85b7:	ff ff ff 
    85ba:	c7 80 d4 f5 00 00 ff 	movl   $0xffffffff,0xf5d4(%eax)
    85c1:	ff ff ff 
    85c4:	c7 80 dc f5 00 00 00 	movl   $0x0,0xf5dc(%eax)
    85cb:	00 00 00 
    85ce:	ba 01 00 00 00       	mov    $0x1,%edx
    85d3:	89 d0                	mov    %edx,%eax
    85d5:	8b 5d fc             	mov    0xfffffffc(%ebp),%ebx
    85d8:	c9                   	leave  
    85d9:	c3                   	ret    

000085da <free_frm2>:
    85da:	55                   	push   %ebp
    85db:	89 e5                	mov    %esp,%ebp
    85dd:	57                   	push   %edi
    85de:	56                   	push   %esi
    85df:	53                   	push   %ebx
    85e0:	83 ec 0c             	sub    $0xc,%esp
    85e3:	8b 45 08             	mov    0x8(%ebp),%eax
    85e6:	c1 e0 05             	shl    $0x5,%eax
    85e9:	8b b0 f8 c6 00 00    	mov    0xc6f8(%eax),%esi
    85ef:	85 f6                	test   %esi,%esi
    85f1:	74 79                	je     866c <free_frm2+0x92>
    85f3:	bb 00 00 00 00       	mov    $0x0,%ebx
    85f8:	89 d8                	mov    %ebx,%eax
    85fa:	c1 e0 05             	shl    $0x5,%eax
    85fd:	8d 90 c0 f5 00 00    	lea    0xf5c0(%eax),%edx
    8603:	83 b8 c0 f5 00 00 00 	cmpl   $0x0,0xf5c0(%eax)
    860a:	74 50                	je     865c <free_frm2+0x82>
    860c:	83 7a 10 00          	cmpl   $0x0,0x10(%edx)
    8610:	75 4a                	jne    865c <free_frm2+0x82>
    8612:	8b 46 04             	mov    0x4(%esi),%eax
    8615:	3b 42 04             	cmp    0x4(%edx),%eax
    8618:	75 42                	jne    865c <free_frm2+0x82>
    861a:	8b 42 08             	mov    0x8(%edx),%eax
    861d:	2b 46 08             	sub    0x8(%esi),%eax
    8620:	3b 45 0c             	cmp    0xc(%ebp),%eax
    8623:	75 37                	jne    865c <free_frm2+0x82>
    8625:	bf 00 00 00 00       	mov    $0x0,%edi
    862a:	8b 46 0c             	mov    0xc(%esi),%eax
    862d:	2b 45 0c             	sub    0xc(%ebp),%eax
    8630:	83 f8 00             	cmp    $0x0,%eax
    8633:	7e 27                	jle    865c <free_frm2+0x82>
    8635:	8d 14 3b             	lea    (%ebx,%edi,1),%edx
    8638:	8d 82 00 04 00 00    	lea    0x400(%edx),%eax
    863e:	3d ff 07 00 00       	cmp    $0x7ff,%eax
    8643:	7f 0c                	jg     8651 <free_frm2+0x77>
    8645:	83 ec 0c             	sub    $0xc,%esp
    8648:	52                   	push   %edx
    8649:	e8 91 00 00 00       	call   86df <reduceRef>
    864e:	83 c4 10             	add    $0x10,%esp
    8651:	47                   	inc    %edi
    8652:	8b 46 0c             	mov    0xc(%esi),%eax
    8655:	2b 45 0c             	sub    0xc(%ebp),%eax
    8658:	39 f8                	cmp    %edi,%eax
    865a:	7f d9                	jg     8635 <free_frm2+0x5b>
    865c:	43                   	inc    %ebx
    865d:	81 fb ff 03 00 00    	cmp    $0x3ff,%ebx
    8663:	7e 93                	jle    85f8 <free_frm2+0x1e>
    8665:	8b 76 18             	mov    0x18(%esi),%esi
    8668:	85 f6                	test   %esi,%esi
    866a:	75 87                	jne    85f3 <free_frm2+0x19>
    866c:	b8 ff ff ff ff       	mov    $0xffffffff,%eax
    8671:	8d 65 f4             	lea    0xfffffff4(%ebp),%esp
    8674:	5b                   	pop    %ebx
    8675:	5e                   	pop    %esi
    8676:	5f                   	pop    %edi
    8677:	5d                   	pop    %ebp
    8678:	c3                   	ret    

00008679 <frame_lookup>:
    8679:	55                   	push   %ebp
    867a:	89 e5                	mov    %esp,%ebp
    867c:	56                   	push   %esi
    867d:	53                   	push   %ebx
    867e:	8b 75 0c             	mov    0xc(%ebp),%esi
    8681:	8b 45 08             	mov    0x8(%ebp),%eax
    8684:	c1 e0 05             	shl    $0x5,%eax
    8687:	8b 98 f8 c6 00 00    	mov    0xc6f8(%eax),%ebx
    868d:	85 db                	test   %ebx,%ebx
    868f:	74 45                	je     86d6 <frame_lookup+0x5d>
    8691:	b9 00 00 00 00       	mov    $0x0,%ecx
    8696:	89 c8                	mov    %ecx,%eax
    8698:	c1 e0 05             	shl    $0x5,%eax
    869b:	8d 90 c0 f5 00 00    	lea    0xf5c0(%eax),%edx
    86a1:	83 b8 c0 f5 00 00 00 	cmpl   $0x0,0xf5c0(%eax)
    86a8:	74 1c                	je     86c6 <frame_lookup+0x4d>
    86aa:	83 7a 10 00          	cmpl   $0x0,0x10(%edx)
    86ae:	75 16                	jne    86c6 <frame_lookup+0x4d>
    86b0:	8b 43 04             	mov    0x4(%ebx),%eax
    86b3:	3b 42 04             	cmp    0x4(%edx),%eax
    86b6:	75 0e                	jne    86c6 <frame_lookup+0x4d>
    86b8:	8b 42 08             	mov    0x8(%edx),%eax
    86bb:	2b 43 08             	sub    0x8(%ebx),%eax
    86be:	39 f0                	cmp    %esi,%eax
    86c0:	75 04                	jne    86c6 <frame_lookup+0x4d>
    86c2:	89 c8                	mov    %ecx,%eax
    86c4:	eb 15                	jmp    86db <frame_lookup+0x62>
    86c6:	41                   	inc    %ecx
    86c7:	81 f9 ff 03 00 00    	cmp    $0x3ff,%ecx
    86cd:	7e c7                	jle    8696 <frame_lookup+0x1d>
    86cf:	8b 5b 18             	mov    0x18(%ebx),%ebx
    86d2:	85 db                	test   %ebx,%ebx
    86d4:	75 bb                	jne    8691 <frame_lookup+0x18>
    86d6:	b8 ff ff ff ff       	mov    $0xffffffff,%eax
    86db:	5b                   	pop    %ebx
    86dc:	5e                   	pop    %esi
    86dd:	5d                   	pop    %ebp
    86de:	c3                   	ret    

000086df <reduceRef>:
    86df:	55                   	push   %ebp
    86e0:	89 e5                	mov    %esp,%ebp
    86e2:	83 ec 08             	sub    $0x8,%esp
    86e5:	8b 4d 08             	mov    0x8(%ebp),%ecx
    86e8:	89 c8                	mov    %ecx,%eax
    86ea:	c1 e0 05             	shl    $0x5,%eax
    86ed:	8d 90 c0 f5 00 00    	lea    0xf5c0(%eax),%edx
    86f3:	83 b8 c0 f5 00 00 00 	cmpl   $0x0,0xf5c0(%eax)
    86fa:	74 1b                	je     8717 <reduceRef+0x38>
    86fc:	83 7a 0c 00          	cmpl   $0x0,0xc(%edx)
    8700:	7e 03                	jle    8705 <reduceRef+0x26>
    8702:	ff 4a 0c             	decl   0xc(%edx)
    8705:	83 7a 0c 00          	cmpl   $0x0,0xc(%edx)
    8709:	75 0c                	jne    8717 <reduceRef+0x38>
    870b:	83 ec 0c             	sub    $0xc,%esp
    870e:	51                   	push   %ecx
    870f:	e8 34 fe ff ff       	call   8548 <free_frm>
    8714:	83 c4 10             	add    $0x10,%esp
    8717:	b8 01 00 00 00       	mov    $0x1,%eax
    871c:	c9                   	leave  
    871d:	c3                   	ret    

0000871e <deln>:
    871e:	55                   	push   %ebp
    871f:	89 e5                	mov    %esp,%ebp
    8721:	56                   	push   %esi
    8722:	53                   	push   %ebx
    8723:	8b 75 08             	mov    0x8(%ebp),%esi
    8726:	8b 0d d8 9a 01 00    	mov    0x19ad8,%ecx
    872c:	85 c9                	test   %ecx,%ecx
    872e:	74 3b                	je     876b <deln+0x4d>
    8730:	8b 41 04             	mov    0x4(%ecx),%eax
    8733:	89 c2                	mov    %eax,%edx
    8735:	39 c8                	cmp    %ecx,%eax
    8737:	74 15                	je     874e <deln+0x30>
    8739:	39 31                	cmp    %esi,(%ecx)
    873b:	74 11                	je     874e <deln+0x30>
    873d:	89 c8                	mov    %ecx,%eax
    873f:	89 cb                	mov    %ecx,%ebx
    8741:	89 d1                	mov    %edx,%ecx
    8743:	8b 52 04             	mov    0x4(%edx),%edx
    8746:	39 c2                	cmp    %eax,%edx
    8748:	74 04                	je     874e <deln+0x30>
    874a:	39 31                	cmp    %esi,(%ecx)
    874c:	75 f1                	jne    873f <deln+0x21>
    874e:	8b 41 04             	mov    0x4(%ecx),%eax
    8751:	89 43 04             	mov    %eax,0x4(%ebx)
    8754:	8b 51 04             	mov    0x4(%ecx),%edx
    8757:	8b 41 08             	mov    0x8(%ecx),%eax
    875a:	89 42 08             	mov    %eax,0x8(%edx)
    875d:	83 ec 08             	sub    $0x8,%esp
    8760:	6a 0c                	push   $0xc
    8762:	51                   	push   %ecx
    8763:	e8 38 c4 ff ff       	call   4ba0 <freemem>
    8768:	83 c4 10             	add    $0x10,%esp
    876b:	8d 65 f8             	lea    0xfffffff8(%ebp),%esp
    876e:	5b                   	pop    %ebx
    876f:	5e                   	pop    %esi
    8770:	5d                   	pop    %ebp
    8771:	c3                   	ret    
    8772:	90                   	nop    
    8773:	90                   	nop    

00008774 <pfint>:
    8774:	55                   	push   %ebp
    8775:	89 e5                	mov    %esp,%ebp
    8777:	57                   	push   %edi
    8778:	56                   	push   %esi
    8779:	53                   	push   %ebx
    877a:	83 ec 28             	sub    $0x28,%esp
    877d:	8d 45 f2             	lea    0xfffffff2(%ebp),%eax
    8780:	50                   	push   %eax
    8781:	e8 36 80 ff ff       	call   7bc <disable>
    8786:	e8 83 f4 ff ff       	call   7c0e <read_cr2>
    878b:	89 45 dc             	mov    %eax,0xffffffdc(%ebp)
    878e:	89 45 e0             	mov    %eax,0xffffffe0(%ebp)
    8791:	89 c6                	mov    %eax,%esi
    8793:	c1 ee 16             	shr    $0x16,%esi
    8796:	89 c7                	mov    %eax,%edi
    8798:	c1 ef 0c             	shr    $0xc,%edi
    879b:	81 e7 ff 03 00 00    	and    $0x3ff,%edi
    87a1:	8b 15 e4 c8 00 00    	mov    0xc8e4,%edx
    87a7:	8d 04 52             	lea    (%edx,%edx,2),%eax
    87aa:	c1 e0 04             	shl    $0x4,%eax
    87ad:	01 d0                	add    %edx,%eax
    87af:	8b 1c 85 b0 c9 00 00 	mov    0xc9b0(,%eax,4),%ebx
    87b6:	83 c4 10             	add    $0x10,%esp
    87b9:	f6 04 b3 01          	testb  $0x1,(%ebx,%esi,4)
    87bd:	75 23                	jne    87e2 <pfint+0x6e>
    87bf:	e8 14 f9 ff ff       	call   80d8 <createPageTable>
    87c4:	89 45 d8             	mov    %eax,0xffffffd8(%ebp)
    87c7:	80 0c b3 03          	orb    $0x3,(%ebx,%esi,4)
    87cb:	89 c2                	mov    %eax,%edx
    87cd:	81 e2 00 f0 ff ff    	and    $0xfffff000,%edx
    87d3:	8b 04 b3             	mov    (%ebx,%esi,4),%eax
    87d6:	25 ff 0f 00 00       	and    $0xfff,%eax
    87db:	09 d0                	or     %edx,%eax
    87dd:	89 04 b3             	mov    %eax,(%ebx,%esi,4)
    87e0:	eb 0c                	jmp    87ee <pfint+0x7a>
    87e2:	8b 34 b3             	mov    (%ebx,%esi,4),%esi
    87e5:	81 e6 00 f0 ff ff    	and    $0xfffff000,%esi
    87eb:	89 75 d8             	mov    %esi,0xffffffd8(%ebp)
    87ee:	8d 45 ec             	lea    0xffffffec(%ebp),%eax
    87f1:	50                   	push   %eax
    87f2:	8d 45 e8             	lea    0xffffffe8(%ebp),%eax
    87f5:	50                   	push   %eax
    87f6:	ff 75 dc             	pushl  0xffffffdc(%ebp)
    87f9:	ff 35 e4 c8 00 00    	pushl  0xc8e4
    87ff:	e8 48 f6 ff ff       	call   7e4c <bsm_lookup>
    8804:	83 c4 10             	add    $0x10,%esp
    8807:	83 f8 ff             	cmp    $0xffffffff,%eax
    880a:	75 23                	jne    882f <pfint+0xbb>
    880c:	83 ec 0c             	sub    $0xc,%esp
    880f:	ff 35 e4 c8 00 00    	pushl  0xc8e4
    8815:	e8 22 d1 ff ff       	call   593c <kill>
    881a:	8d 45 f2             	lea    0xfffffff2(%ebp),%eax
    881d:	89 04 24             	mov    %eax,(%esp)
    8820:	e8 bf 7f ff ff       	call   7e4 <restore>
    8825:	b8 ff ff ff ff       	mov    $0xffffffff,%eax
    882a:	e9 f2 00 00 00       	jmp    8921 <pfint+0x1ad>
    882f:	8b 45 e0             	mov    0xffffffe0(%ebp),%eax
    8832:	c1 e8 0c             	shr    $0xc,%eax
    8835:	2b 45 ec             	sub    0xffffffec(%ebp),%eax
    8838:	83 ec 08             	sub    $0x8,%esp
    883b:	50                   	push   %eax
    883c:	ff 75 e8             	pushl  0xffffffe8(%ebp)
    883f:	e8 35 fe ff ff       	call   8679 <frame_lookup>
    8844:	89 45 e4             	mov    %eax,0xffffffe4(%ebp)
    8847:	83 c4 10             	add    $0x10,%esp
    884a:	83 f8 ff             	cmp    $0xffffffff,%eax
    884d:	0f 85 8e 00 00 00    	jne    88e1 <pfint+0x16d>
    8853:	c7 45 e4 00 00 00 00 	movl   $0x0,0xffffffe4(%ebp)
    885a:	83 ec 0c             	sub    $0xc,%esp
    885d:	8d 45 e4             	lea    0xffffffe4(%ebp),%eax
    8860:	50                   	push   %eax
    8861:	e8 79 fb ff ff       	call   83df <get_frm>
    8866:	83 c4 10             	add    $0x10,%esp
    8869:	83 7d e4 ff          	cmpl   $0xffffffff,0xffffffe4(%ebp)
    886d:	75 22                	jne    8891 <pfint+0x11d>
    886f:	83 ec 0c             	sub    $0xc,%esp
    8872:	68 e4 a7 00 00       	push   $0xa7e4
    8877:	e8 ec d1 ff ff       	call   5a68 <kprintf>
    887c:	8d 45 f2             	lea    0xfffffff2(%ebp),%eax
    887f:	89 04 24             	mov    %eax,(%esp)
    8882:	e8 5d 7f ff ff       	call   7e4 <restore>
    8887:	b8 01 00 00 00       	mov    $0x1,%eax
    888c:	e9 90 00 00 00       	jmp    8921 <pfint+0x1ad>
    8891:	8b 4d e4             	mov    0xffffffe4(%ebp),%ecx
    8894:	89 ca                	mov    %ecx,%edx
    8896:	c1 e2 05             	shl    $0x5,%edx
    8899:	a1 e4 c8 00 00       	mov    0xc8e4,%eax
    889e:	89 82 c4 f5 00 00    	mov    %eax,0xf5c4(%edx)
    88a4:	c7 82 cc f5 00 00 01 	movl   $0x1,0xf5cc(%edx)
    88ab:	00 00 00 
    88ae:	8b 45 dc             	mov    0xffffffdc(%ebp),%eax
    88b1:	c1 e8 0c             	shr    $0xc,%eax
    88b4:	89 82 c8 f5 00 00    	mov    %eax,0xf5c8(%edx)
    88ba:	c7 82 d0 f5 00 00 00 	movl   $0x0,0xf5d0(%edx)
    88c1:	00 00 00 
    88c4:	83 ec 04             	sub    $0x4,%esp
    88c7:	ff 75 ec             	pushl  0xffffffec(%ebp)
    88ca:	ff 75 e8             	pushl  0xffffffe8(%ebp)
    88cd:	c1 e1 0c             	shl    $0xc,%ecx
    88d0:	81 c1 00 00 40 00    	add    $0x400000,%ecx
    88d6:	51                   	push   %ecx
    88d7:	e8 a8 f2 ff ff       	call   7b84 <read_bs>
    88dc:	83 c4 10             	add    $0x10,%esp
    88df:	eb 0c                	jmp    88ed <pfint+0x179>
    88e1:	8b 45 e4             	mov    0xffffffe4(%ebp),%eax
    88e4:	c1 e0 05             	shl    $0x5,%eax
    88e7:	ff 80 cc f5 00 00    	incl   0xf5cc(%eax)
    88ed:	8b 45 d8             	mov    0xffffffd8(%ebp),%eax
    88f0:	80 0c b8 03          	orb    $0x3,(%eax,%edi,4)
    88f4:	8b 45 e4             	mov    0xffffffe4(%ebp),%eax
    88f7:	05 00 04 00 00       	add    $0x400,%eax
    88fc:	c1 e0 0c             	shl    $0xc,%eax
    88ff:	8b 4d d8             	mov    0xffffffd8(%ebp),%ecx
    8902:	8b 14 b9             	mov    (%ecx,%edi,4),%edx
    8905:	81 e2 ff 0f 00 00    	and    $0xfff,%edx
    890b:	09 c2                	or     %eax,%edx
    890d:	89 14 b9             	mov    %edx,(%ecx,%edi,4)
    8910:	83 ec 0c             	sub    $0xc,%esp
    8913:	8d 45 f2             	lea    0xfffffff2(%ebp),%eax
    8916:	50                   	push   %eax
    8917:	e8 c8 7e ff ff       	call   7e4 <restore>
    891c:	b8 01 00 00 00       	mov    $0x1,%eax
    8921:	8d 65 f4             	lea    0xfffffff4(%ebp),%esp
    8924:	5b                   	pop    %ebx
    8925:	5e                   	pop    %esi
    8926:	5f                   	pop    %edi
    8927:	5d                   	pop    %ebp
    8928:	c3                   	ret    
    8929:	90                   	nop    
    892a:	90                   	nop    
    892b:	90                   	nop    

0000892c <dump32>:
    892c:	55                   	push   %ebp
    892d:	89 e5                	mov    %esp,%ebp
    892f:	57                   	push   %edi
    8930:	56                   	push   %esi
    8931:	53                   	push   %ebx
    8932:	83 ec 0c             	sub    $0xc,%esp
    8935:	8b 7d 08             	mov    0x8(%ebp),%edi
    8938:	bb 1f 00 00 00       	mov    $0x1f,%ebx
    893d:	83 ec 08             	sub    $0x8,%esp
    8940:	53                   	push   %ebx
    8941:	68 05 a8 00 00       	push   $0xa805
    8946:	e8 1d d1 ff ff       	call   5a68 <kprintf>
    894b:	83 c4 10             	add    $0x10,%esp
    894e:	4b                   	dec    %ebx
    894f:	79 ec                	jns    893d <dump32+0x11>
    8951:	83 ec 0c             	sub    $0xc,%esp
    8954:	68 6b a6 00 00       	push   $0xa66b
    8959:	e8 0a d1 ff ff       	call   5a68 <kprintf>
    895e:	bb 1f 00 00 00       	mov    $0x1f,%ebx
    8963:	83 c4 10             	add    $0x10,%esp
    8966:	be 01 00 00 00       	mov    $0x1,%esi
    896b:	83 ec 08             	sub    $0x8,%esp
    896e:	89 f0                	mov    %esi,%eax
    8970:	88 d9                	mov    %bl,%cl
    8972:	d3 e0                	shl    %cl,%eax
    8974:	21 f8                	and    %edi,%eax
    8976:	d3 e8                	shr    %cl,%eax
    8978:	50                   	push   %eax
    8979:	68 0b a8 00 00       	push   $0xa80b
    897e:	e8 e5 d0 ff ff       	call   5a68 <kprintf>
    8983:	83 c4 10             	add    $0x10,%esp
    8986:	4b                   	dec    %ebx
    8987:	79 e2                	jns    896b <dump32+0x3f>
    8989:	83 ec 0c             	sub    $0xc,%esp
    898c:	68 6b a6 00 00       	push   $0xa66b
    8991:	e8 d2 d0 ff ff       	call   5a68 <kprintf>
    8996:	8d 65 f4             	lea    0xfffffff4(%ebp),%esp
    8999:	5b                   	pop    %ebx
    899a:	5e                   	pop    %esi
    899b:	5f                   	pop    %edi
    899c:	5d                   	pop    %ebp
    899d:	c3                   	ret    
    899e:	90                   	nop    
    899f:	90                   	nop    

000089a0 <vcreate>:
    89a0:	55                   	push   %ebp
    89a1:	89 e5                	mov    %esp,%ebp
    89a3:	83 ec 14             	sub    $0x14,%esp
    89a6:	68 59 a6 00 00       	push   $0xa659
    89ab:	e8 b8 d0 ff ff       	call   5a68 <kprintf>
    89b0:	b8 01 00 00 00       	mov    $0x1,%eax
    89b5:	c9                   	leave  
    89b6:	c3                   	ret    

000089b7 <newpid>:
    89b7:	55                   	push   %ebp
    89b8:	89 e5                	mov    %esp,%ebp
    89ba:	b9 00 00 00 00       	mov    $0x0,%ecx
    89bf:	8b 15 c0 75 01 00    	mov    0x175c0,%edx
    89c5:	8d 42 ff             	lea    0xffffffff(%edx),%eax
    89c8:	a3 c0 75 01 00       	mov    %eax,0x175c0
    89cd:	85 d2                	test   %edx,%edx
    89cf:	7f 0a                	jg     89db <newpid+0x24>
    89d1:	c7 05 c0 75 01 00 31 	movl   $0x31,0x175c0
    89d8:	00 00 00 
    89db:	8d 04 52             	lea    (%edx,%edx,2),%eax
    89de:	c1 e0 04             	shl    $0x4,%eax
    89e1:	01 d0                	add    %edx,%eax
    89e3:	80 3c 85 00 c9 00 00 	cmpb   $0x2,0xc900(,%eax,4)
    89ea:	02 
    89eb:	75 04                	jne    89f1 <newpid+0x3a>
    89ed:	89 d0                	mov    %edx,%eax
    89ef:	eb 0b                	jmp    89fc <newpid+0x45>
    89f1:	41                   	inc    %ecx
    89f2:	83 f9 31             	cmp    $0x31,%ecx
    89f5:	7e c8                	jle    89bf <newpid+0x8>
    89f7:	b8 ff ff ff ff       	mov    $0xffffffff,%eax
    89fc:	5d                   	pop    %ebp
    89fd:	c3                   	ret    
    89fe:	90                   	nop    
    89ff:	90                   	nop    

00008a00 <xmmap>:
    8a00:	55                   	push   %ebp
    8a01:	89 e5                	mov    %esp,%ebp
    8a03:	57                   	push   %edi
    8a04:	56                   	push   %esi
    8a05:	53                   	push   %ebx
    8a06:	83 ec 0c             	sub    $0xc,%esp
    8a09:	8b 7d 08             	mov    0x8(%ebp),%edi
    8a0c:	8b 75 0c             	mov    0xc(%ebp),%esi
    8a0f:	8b 5d 10             	mov    0x10(%ebp),%ebx
    8a12:	81 ff ff 0f 00 00    	cmp    $0xfff,%edi
    8a18:	0f 9e c2             	setle  %dl
    8a1b:	83 fe 0f             	cmp    $0xf,%esi
    8a1e:	0f 97 c0             	seta   %al
    8a21:	09 d0                	or     %edx,%eax
    8a23:	a8 01                	test   $0x1,%al
    8a25:	75 14                	jne    8a3b <xmmap+0x3b>
    8a27:	85 db                	test   %ebx,%ebx
    8a29:	0f 9e c2             	setle  %dl
    8a2c:	81 fb 80 00 00 00    	cmp    $0x80,%ebx
    8a32:	0f 9f c0             	setg   %al
    8a35:	09 d0                	or     %edx,%eax
    8a37:	a8 01                	test   $0x1,%al
    8a39:	74 17                	je     8a52 <xmmap+0x52>
    8a3b:	83 ec 0c             	sub    $0xc,%esp
    8a3e:	68 10 a8 00 00       	push   $0xa810
    8a43:	e8 20 d0 ff ff       	call   5a68 <kprintf>
    8a48:	b8 ff ff ff ff       	mov    $0xffffffff,%eax
    8a4d:	e9 8b 00 00 00       	jmp    8add <xmmap+0xdd>
    8a52:	83 ec 0c             	sub    $0xc,%esp
    8a55:	8d 45 f2             	lea    0xfffffff2(%ebp),%eax
    8a58:	50                   	push   %eax
    8a59:	e8 5e 7d ff ff       	call   7bc <disable>
    8a5e:	89 f0                	mov    %esi,%eax
    8a60:	c1 e0 05             	shl    $0x5,%eax
    8a63:	8d 90 e0 c6 00 00    	lea    0xc6e0(%eax),%edx
    8a69:	83 c4 10             	add    $0x10,%esp
    8a6c:	83 b8 e0 c6 00 00 00 	cmpl   $0x0,0xc6e0(%eax)
    8a73:	75 13                	jne    8a88 <xmmap+0x88>
    8a75:	83 ec 0c             	sub    $0xc,%esp
    8a78:	8d 45 f2             	lea    0xfffffff2(%ebp),%eax
    8a7b:	50                   	push   %eax
    8a7c:	e8 63 7d ff ff       	call   7e4 <restore>
    8a81:	b8 ff ff ff ff       	mov    $0xffffffff,%eax
    8a86:	eb 55                	jmp    8add <xmmap+0xdd>
    8a88:	83 7a 1c 01          	cmpl   $0x1,0x1c(%edx)
    8a8c:	75 13                	jne    8aa1 <xmmap+0xa1>
    8a8e:	83 ec 0c             	sub    $0xc,%esp
    8a91:	8d 45 f2             	lea    0xfffffff2(%ebp),%eax
    8a94:	50                   	push   %eax
    8a95:	e8 4a 7d ff ff       	call   7e4 <restore>
    8a9a:	b8 ff ff ff ff       	mov    $0xffffffff,%eax
    8a9f:	eb 3c                	jmp    8add <xmmap+0xdd>
    8aa1:	53                   	push   %ebx
    8aa2:	ff 72 14             	pushl  0x14(%edx)
    8aa5:	57                   	push   %edi
    8aa6:	ff 35 e4 c8 00 00    	pushl  0xc8e4
    8aac:	e8 4f f4 ff ff       	call   7f00 <bsm_map>
    8ab1:	83 c4 10             	add    $0x10,%esp
    8ab4:	83 f8 ff             	cmp    $0xffffffff,%eax
    8ab7:	75 13                	jne    8acc <xmmap+0xcc>
    8ab9:	83 ec 0c             	sub    $0xc,%esp
    8abc:	8d 45 f2             	lea    0xfffffff2(%ebp),%eax
    8abf:	50                   	push   %eax
    8ac0:	e8 1f 7d ff ff       	call   7e4 <restore>
    8ac5:	b8 ff ff ff ff       	mov    $0xffffffff,%eax
    8aca:	eb 11                	jmp    8add <xmmap+0xdd>
    8acc:	83 ec 0c             	sub    $0xc,%esp
    8acf:	8d 45 f2             	lea    0xfffffff2(%ebp),%eax
    8ad2:	50                   	push   %eax
    8ad3:	e8 0c 7d ff ff       	call   7e4 <restore>
    8ad8:	b8 01 00 00 00       	mov    $0x1,%eax
    8add:	8d 65 f4             	lea    0xfffffff4(%ebp),%esp
    8ae0:	5b                   	pop    %ebx
    8ae1:	5e                   	pop    %esi
    8ae2:	5f                   	pop    %edi
    8ae3:	5d                   	pop    %ebp
    8ae4:	c3                   	ret    

00008ae5 <xmunmap>:
    8ae5:	55                   	push   %ebp
    8ae6:	89 e5                	mov    %esp,%ebp
    8ae8:	56                   	push   %esi
    8ae9:	53                   	push   %ebx
    8aea:	83 ec 10             	sub    $0x10,%esp
    8aed:	8b 5d 08             	mov    0x8(%ebp),%ebx
    8af0:	81 fb ff 0f 00 00    	cmp    $0xfff,%ebx
    8af6:	7f 18                	jg     8b10 <xmunmap+0x2b>
    8af8:	83 ec 08             	sub    $0x8,%esp
    8afb:	53                   	push   %ebx
    8afc:	68 38 a8 00 00       	push   $0xa838
    8b01:	e8 62 cf ff ff       	call   5a68 <kprintf>
    8b06:	b8 ff ff ff ff       	mov    $0xffffffff,%eax
    8b0b:	e9 8d 00 00 00       	jmp    8b9d <xmunmap+0xb8>
    8b10:	83 ec 0c             	sub    $0xc,%esp
    8b13:	8d 45 f6             	lea    0xfffffff6(%ebp),%eax
    8b16:	50                   	push   %eax
    8b17:	e8 a0 7c ff ff       	call   7bc <disable>
    8b1c:	89 da                	mov    %ebx,%edx
    8b1e:	c1 e2 0c             	shl    $0xc,%edx
    8b21:	8d 45 f0             	lea    0xfffffff0(%ebp),%eax
    8b24:	50                   	push   %eax
    8b25:	8d 45 ec             	lea    0xffffffec(%ebp),%eax
    8b28:	50                   	push   %eax
    8b29:	52                   	push   %edx
    8b2a:	ff 35 e4 c8 00 00    	pushl  0xc8e4
    8b30:	e8 17 f3 ff ff       	call   7e4c <bsm_lookup>
    8b35:	83 c4 20             	add    $0x20,%esp
    8b38:	83 f8 ff             	cmp    $0xffffffff,%eax
    8b3b:	75 1f                	jne    8b5c <xmunmap+0x77>
    8b3d:	83 ec 0c             	sub    $0xc,%esp
    8b40:	68 68 a8 00 00       	push   $0xa868
    8b45:	e8 1e cf ff ff       	call   5a68 <kprintf>
    8b4a:	8d 45 f6             	lea    0xfffffff6(%ebp),%eax
    8b4d:	89 04 24             	mov    %eax,(%esp)
    8b50:	e8 8f 7c ff ff       	call   7e4 <restore>
    8b55:	b8 ff ff ff ff       	mov    $0xffffffff,%eax
    8b5a:	eb 41                	jmp    8b9d <xmunmap+0xb8>
    8b5c:	83 ec 08             	sub    $0x8,%esp
    8b5f:	ff 75 ec             	pushl  0xffffffec(%ebp)
    8b62:	68 8d a8 00 00       	push   $0xa88d
    8b67:	e8 fc ce ff ff       	call   5a68 <kprintf>
    8b6c:	89 d8                	mov    %ebx,%eax
    8b6e:	2b 45 f0             	sub    0xfffffff0(%ebp),%eax
    8b71:	83 c4 08             	add    $0x8,%esp
    8b74:	50                   	push   %eax
    8b75:	ff 75 ec             	pushl  0xffffffec(%ebp)
    8b78:	e8 5d fa ff ff       	call   85da <free_frm2>
    8b7d:	83 c4 0c             	add    $0xc,%esp
    8b80:	56                   	push   %esi
    8b81:	53                   	push   %ebx
    8b82:	ff 35 e4 c8 00 00    	pushl  0xc8e4
    8b88:	e8 de f3 ff ff       	call   7f6b <bsm_unmap>
    8b8d:	8d 45 f6             	lea    0xfffffff6(%ebp),%eax
    8b90:	89 04 24             	mov    %eax,(%esp)
    8b93:	e8 4c 7c ff ff       	call   7e4 <restore>
    8b98:	b8 01 00 00 00       	mov    $0x1,%eax
    8b9d:	8d 65 f8             	lea    0xfffffff8(%ebp),%esp
    8ba0:	5b                   	pop    %ebx
    8ba1:	5e                   	pop    %esi
    8ba2:	5d                   	pop    %ebp
    8ba3:	c3                   	ret    

00008ba4 <vgetmem>:
    8ba4:	55                   	push   %ebp
    8ba5:	89 e5                	mov    %esp,%ebp
    8ba7:	83 ec 14             	sub    $0x14,%esp
    8baa:	68 59 a6 00 00       	push   $0xa659
    8baf:	e8 b4 ce ff ff       	call   5a68 <kprintf>
    8bb4:	b8 ff ff ff ff       	mov    $0xffffffff,%eax
    8bb9:	c9                   	leave  
    8bba:	c3                   	ret    
    8bbb:	90                   	nop    

00008bbc <vfreemem>:
    8bbc:	55                   	push   %ebp
    8bbd:	89 e5                	mov    %esp,%ebp
    8bbf:	83 ec 14             	sub    $0x14,%esp
    8bc2:	68 59 a6 00 00       	push   $0xa659
    8bc7:	e8 9c ce ff ff       	call   5a68 <kprintf>
    8bcc:	b8 01 00 00 00       	mov    $0x1,%eax
    8bd1:	c9                   	leave  
    8bd2:	c3                   	ret    
    8bd3:	90                   	nop    

00008bd4 <mon_cksum>:
    8bd4:	55                   	push   %ebp
    8bd5:	89 e5                	mov    %esp,%ebp
    8bd7:	8b 55 08             	mov    0x8(%ebp),%edx
    8bda:	8b 4d 0c             	mov    0xc(%ebp),%ecx
    8bdd:	31 c0                	xor    %eax,%eax
    8bdf:	85 c9                	test   %ecx,%ecx
    8be1:	7e 55                	jle    8c38 <L4>
    8be3:	c1 f9 06             	sar    $0x6,%ecx
    8be6:	74 39                	je     8c21 <L5>

00008be8 <L7>:
    8be8:	f8                   	clc    
    8be9:	03 02                	add    (%edx),%eax
    8beb:	13 42 04             	adc    0x4(%edx),%eax
    8bee:	13 42 08             	adc    0x8(%edx),%eax
    8bf1:	13 42 0c             	adc    0xc(%edx),%eax
    8bf4:	13 42 10             	adc    0x10(%edx),%eax
    8bf7:	13 42 14             	adc    0x14(%edx),%eax
    8bfa:	13 42 18             	adc    0x18(%edx),%eax
    8bfd:	13 42 1c             	adc    0x1c(%edx),%eax
    8c00:	13 42 20             	adc    0x20(%edx),%eax
    8c03:	13 42 24             	adc    0x24(%edx),%eax
    8c06:	13 42 28             	adc    0x28(%edx),%eax
    8c09:	13 42 2c             	adc    0x2c(%edx),%eax
    8c0c:	13 42 30             	adc    0x30(%edx),%eax
    8c0f:	13 42 34             	adc    0x34(%edx),%eax
    8c12:	13 42 38             	adc    0x38(%edx),%eax
    8c15:	13 42 3c             	adc    0x3c(%edx),%eax
    8c18:	83 d0 00             	adc    $0x0,%eax
    8c1b:	83 c2 40             	add    $0x40,%edx
    8c1e:	49                   	dec    %ecx
    8c1f:	77 c7                	ja     8be8 <L7>

00008c21 <L5>:
    8c21:	8b 4d 0c             	mov    0xc(%ebp),%ecx
    8c24:	83 e1 3f             	and    $0x3f,%ecx
    8c27:	c1 f9 02             	sar    $0x2,%ecx
    8c2a:	7e 0c                	jle    8c38 <L4>

00008c2c <L3>:
    8c2c:	f8                   	clc    
    8c2d:	03 02                	add    (%edx),%eax
    8c2f:	83 d0 00             	adc    $0x0,%eax
    8c32:	83 c2 04             	add    $0x4,%edx
    8c35:	49                   	dec    %ecx
    8c36:	77 f4                	ja     8c2c <L3>

00008c38 <L4>:
    8c38:	8b 4d 0c             	mov    0xc(%ebp),%ecx
    8c3b:	83 e1 02             	and    $0x2,%ecx
    8c3e:	74 08                	je     8c48 <L1>
    8c40:	0f b7 0a             	movzwl (%edx),%ecx
    8c43:	01 c8                	add    %ecx,%eax
    8c45:	83 c2 02             	add    $0x2,%edx

00008c48 <L1>:
    8c48:	8b 4d 0c             	mov    0xc(%ebp),%ecx
    8c4b:	83 e1 01             	and    $0x1,%ecx
    8c4e:	74 06                	je     8c56 <L2>
    8c50:	31 c9                	xor    %ecx,%ecx
    8c52:	8a 0a                	mov    (%edx),%cl
    8c54:	01 c8                	add    %ecx,%eax

00008c56 <L2>:
    8c56:	89 c1                	mov    %eax,%ecx
    8c58:	c1 e8 10             	shr    $0x10,%eax
    8c5b:	25 ff ff 00 00       	and    $0xffff,%eax
    8c60:	81 e1 ff ff 00 00    	and    $0xffff,%ecx
    8c66:	01 c8                	add    %ecx,%eax
    8c68:	89 c1                	mov    %eax,%ecx
    8c6a:	c1 e8 10             	shr    $0x10,%eax
    8c6d:	01 c8                	add    %ecx,%eax
    8c6f:	66 f7 d0             	not    %ax
    8c72:	0f b7 c0             	movzwl %ax,%eax
    8c75:	c9                   	leave  
    8c76:	c3                   	ret    
    8c77:	90                   	nop    

00008c78 <mon_clkint>:
    8c78:	fa                   	cli    
    8c79:	60                   	pusha  
    8c7a:	66 83 2d 2c b6 00 00 	subw   $0x1,0xb62c
    8c81:	01 
    8c82:	77 14                	ja     8c98 <clret>
    8c84:	ff 05 e4 b9 00 00    	incl   0xb9e4
    8c8a:	e8 69 a8 ff ff       	call   34f8 <mon_timer>
    8c8f:	66 c7 05 2c b6 00 00 	movw   $0x64,0xb62c
    8c96:	64 00 

00008c98 <clret>:
    8c98:	b0 20                	mov    $0x20,%al
    8c9a:	e6 20                	out    %al,$0x20
    8c9c:	61                   	popa   
    8c9d:	fb                   	sti    
    8c9e:	cf                   	iret   
    8c9f:	90                   	nop    

00008ca0 <comint>:
    8ca0:	fa                   	cli    
    8ca1:	60                   	pusha  
    8ca2:	b0 20                	mov    $0x20,%al
    8ca4:	e6 20                	out    %al,$0x20
    8ca6:	e8 81 82 ff ff       	call   f2c <comintr>
    8cab:	61                   	popa   
    8cac:	fb                   	sti    
    8cad:	cf                   	iret   
    8cae:	90                   	nop    
    8caf:	90                   	nop    

00008cb0 <mon_ethint>:
    8cb0:	fa                   	cli    
    8cb1:	60                   	pusha  
    8cb2:	b0 20                	mov    $0x20,%al
    8cb4:	e6 20                	out    %al,$0x20
    8cb6:	e8 01 96 ff ff       	call   22bc <mon_ethintr>
    8cbb:	61                   	popa   
    8cbc:	fb                   	sti    
    8cbd:	cf                   	iret   

00008cbe <mon_ethint_hi>:
    8cbe:	fa                   	cli    
    8cbf:	60                   	pusha  
    8cc0:	b0 20                	mov    $0x20,%al
    8cc2:	e6 20                	out    %al,$0x20
    8cc4:	b0 20                	mov    $0x20,%al
    8cc6:	e6 a0                	out    %al,$0xa0
    8cc8:	e8 e0 b0 ff ff       	call   3dad <mon_3c905_ethintr>
    8ccd:	61                   	popa   
    8cce:	fb                   	sti    
    8ccf:	cf                   	iret   

00008cd0 <mon_tftp_in>:
    8cd0:	55                   	push   %ebp
    8cd1:	89 e5                	mov    %esp,%ebp
    8cd3:	56                   	push   %esi
    8cd4:	53                   	push   %ebx
    8cd5:	8b 4d 08             	mov    0x8(%ebp),%ecx
    8cd8:	66 8b 01             	mov    (%ecx),%ax
    8cdb:	66 a3 ec 9a 01 00    	mov    %ax,0x19aec
    8ce1:	8d 71 08             	lea    0x8(%ecx),%esi
    8ce4:	ba 00 00 00 00       	mov    $0x0,%edx
    8ce9:	8a 51 09             	mov    0x9(%ecx),%dl
    8cec:	b8 00 00 00 00       	mov    $0x0,%eax
    8cf1:	8a 41 08             	mov    0x8(%ecx),%al
    8cf4:	c1 e0 08             	shl    $0x8,%eax
    8cf7:	09 c2                	or     %eax,%edx
    8cf9:	66 89 51 08          	mov    %dx,0x8(%ecx)
    8cfd:	ba 00 00 00 00       	mov    $0x0,%edx
    8d02:	8a 56 03             	mov    0x3(%esi),%dl
    8d05:	b8 00 00 00 00       	mov    $0x0,%eax
    8d0a:	8a 46 02             	mov    0x2(%esi),%al
    8d0d:	c1 e0 08             	shl    $0x8,%eax
    8d10:	09 c2                	or     %eax,%edx
    8d12:	66 89 56 02          	mov    %dx,0x2(%esi)
    8d16:	b8 ff ff ff ff       	mov    $0xffffffff,%eax
    8d1b:	66 83 79 08 05       	cmpw   $0x5,0x8(%ecx)
    8d20:	0f 84 cb 00 00 00    	je     8df1 <mon_tftp_in+0x121>
    8d26:	0f bf 56 02          	movswl 0x2(%esi),%edx
    8d2a:	3b 15 e4 9a 01 00    	cmp    0x19ae4,%edx
    8d30:	74 3a                	je     8d6c <mon_tftp_in+0x9c>
    8d32:	a1 e4 9a 01 00       	mov    0x19ae4,%eax
    8d37:	29 d0                	sub    %edx,%eax
    8d39:	83 f8 01             	cmp    $0x1,%eax
    8d3c:	75 0e                	jne    8d4c <mon_tftp_in+0x7c>
    8d3e:	83 ec 0c             	sub    $0xc,%esp
    8d41:	52                   	push   %edx
    8d42:	e8 37 02 00 00       	call   8f7e <mon_tftp_ack>
    8d47:	83 c4 10             	add    $0x10,%esp
    8d4a:	eb 16                	jmp    8d62 <mon_tftp_in+0x92>
    8d4c:	83 f8 ff             	cmp    $0xffffffff,%eax
    8d4f:	75 11                	jne    8d62 <mon_tftp_in+0x92>
    8d51:	83 ec 0c             	sub    $0xc,%esp
    8d54:	ff 35 e4 9a 01 00    	pushl  0x19ae4
    8d5a:	e8 1f 02 00 00       	call   8f7e <mon_tftp_ack>
    8d5f:	83 c4 10             	add    $0x10,%esp
    8d62:	b8 63 00 00 00       	mov    $0x63,%eax
    8d67:	e9 85 00 00 00       	jmp    8df1 <mon_tftp_in+0x121>
    8d6c:	66 8b 41 04          	mov    0x4(%ecx),%ax
    8d70:	89 c3                	mov    %eax,%ebx
    8d72:	81 e3 ff ff 00 00    	and    $0xffff,%ebx
    8d78:	83 eb 0c             	sub    $0xc,%ebx
    8d7b:	83 ec 04             	sub    $0x4,%esp
    8d7e:	53                   	push   %ebx
    8d7f:	8d 46 04             	lea    0x4(%esi),%eax
    8d82:	50                   	push   %eax
    8d83:	ff 35 f0 9a 01 00    	pushl  0x19af0
    8d89:	e8 d2 02 00 00       	call   9060 <blkcopy>
    8d8e:	01 1d f0 9a 01 00    	add    %ebx,0x19af0
    8d94:	01 1d dc 9a 01 00    	add    %ebx,0x19adc
    8d9a:	83 c4 04             	add    $0x4,%esp
    8d9d:	ff 35 e4 9a 01 00    	pushl  0x19ae4
    8da3:	e8 d6 01 00 00       	call   8f7e <mon_tftp_ack>
    8da8:	83 c4 10             	add    $0x10,%esp
    8dab:	f6 05 e4 9a 01 00 01 	testb  $0x1,0x19ae4
    8db2:	75 10                	jne    8dc4 <mon_tftp_in+0xf4>
    8db4:	83 ec 0c             	sub    $0xc,%esp
    8db7:	68 a0 a8 00 00       	push   $0xa8a0
    8dbc:	e8 a7 cc ff ff       	call   5a68 <kprintf>
    8dc1:	83 c4 10             	add    $0x10,%esp
    8dc4:	81 fb ff 01 00 00    	cmp    $0x1ff,%ebx
    8dca:	7f 1a                	jg     8de6 <mon_tftp_in+0x116>
    8dcc:	83 ec 08             	sub    $0x8,%esp
    8dcf:	ff 35 dc 9a 01 00    	pushl  0x19adc
    8dd5:	68 a2 a8 00 00       	push   $0xa8a2
    8dda:	e8 89 cc ff ff       	call   5a68 <kprintf>
    8ddf:	b8 01 00 00 00       	mov    $0x1,%eax
    8de4:	eb 0b                	jmp    8df1 <mon_tftp_in+0x121>
    8de6:	ff 05 e4 9a 01 00    	incl   0x19ae4
    8dec:	b8 63 00 00 00       	mov    $0x63,%eax
    8df1:	8d 65 f8             	lea    0xfffffff8(%ebp),%esp
    8df4:	5b                   	pop    %ebx
    8df5:	5e                   	pop    %esi
    8df6:	5d                   	pop    %ebp
    8df7:	c3                   	ret    

00008df8 <mon_tftp_req>:
    8df8:	55                   	push   %ebp
    8df9:	89 e5                	mov    %esp,%ebp
    8dfb:	57                   	push   %edi
    8dfc:	56                   	push   %esi
    8dfd:	53                   	push   %ebx
    8dfe:	81 ec 38 02 00 00    	sub    $0x238,%esp
    8e04:	ff 35 70 8c 01 00    	pushl  0x18c70
    8e0a:	e8 8d be ff ff       	call   4c9c <getbuf>
    8e0f:	89 c7                	mov    %eax,%edi
    8e11:	83 c4 10             	add    $0x10,%esp
    8e14:	b8 ff ff ff ff       	mov    $0xffffffff,%eax
    8e19:	85 ff                	test   %edi,%edi
    8e1b:	0f 84 55 01 00 00    	je     8f76 <mon_tftp_req+0x17e>
    8e21:	8d 5f 16             	lea    0x16(%edi),%ebx
    8e24:	8d 47 2a             	lea    0x2a(%edi),%eax
    8e27:	89 85 d4 fd ff ff    	mov    %eax,0xfffffdd4(%ebp)
    8e2d:	83 ec 0c             	sub    $0xc,%esp
    8e30:	68 20 8c 01 00       	push   $0x18c20
    8e35:	e8 06 0a 00 00       	call   9840 <strlen>
    8e3a:	89 c6                	mov    %eax,%esi
    8e3c:	83 c4 08             	add    $0x8,%esp
    8e3f:	68 02 02 00 00       	push   $0x202
    8e44:	8d 85 d8 fd ff ff    	lea    0xfffffdd8(%ebp),%eax
    8e4a:	50                   	push   %eax
    8e4b:	e8 96 72 ff ff       	call   e6 <bzero>
    8e50:	66 c7 85 d8 fd ff ff 	movw   $0x100,0xfffffdd8(%ebp)
    8e57:	00 01 
    8e59:	83 c4 08             	add    $0x8,%esp
    8e5c:	68 20 8c 01 00       	push   $0x18c20
    8e61:	8d 85 da fd ff ff    	lea    0xfffffdda(%ebp),%eax
    8e67:	50                   	push   %eax
    8e68:	e8 b7 09 00 00       	call   9824 <strcpy>
    8e6d:	83 c4 08             	add    $0x8,%esp
    8e70:	68 b7 a8 00 00       	push   $0xa8b7
    8e75:	8d 84 35 db fd ff ff 	lea    0xfffffddb(%ebp,%esi,1),%eax
    8e7c:	50                   	push   %eax
    8e7d:	e8 a2 09 00 00       	call   9824 <strcpy>
    8e82:	8d 46 09             	lea    0x9(%esi),%eax
    8e85:	83 c4 0c             	add    $0xc,%esp
    8e88:	50                   	push   %eax
    8e89:	8d 85 d8 fd ff ff    	lea    0xfffffdd8(%ebp),%eax
    8e8f:	50                   	push   %eax
    8e90:	8d 47 32             	lea    0x32(%edi),%eax
    8e93:	50                   	push   %eax
    8e94:	e8 c7 01 00 00       	call   9060 <blkcopy>
    8e99:	66 c7 47 2a f3 6c    	movw   $0x6cf3,0x2a(%edi)
    8e9f:	8b 85 d4 fd ff ff    	mov    0xfffffdd4(%ebp),%eax
    8ea5:	66 c7 40 02 00 45    	movw   $0x4500,0x2(%eax)
    8eab:	8d 46 11             	lea    0x11(%esi),%eax
    8eae:	0f b6 d4             	movzbl %ah,%edx
    8eb1:	25 ff 00 00 00       	and    $0xff,%eax
    8eb6:	c1 e0 08             	shl    $0x8,%eax
    8eb9:	09 c2                	or     %eax,%edx
    8ebb:	8b 85 d4 fd ff ff    	mov    0xfffffdd4(%ebp),%eax
    8ec1:	66 89 50 04          	mov    %dx,0x4(%eax)
    8ec5:	66 c7 40 06 00 00    	movw   $0x0,0x6(%eax)
    8ecb:	c6 43 09 11          	movb   $0x11,0x9(%ebx)
    8ecf:	c6 47 16 45          	movb   $0x45,0x16(%edi)
    8ed3:	c6 43 01 00          	movb   $0x0,0x1(%ebx)
    8ed7:	8d 56 25             	lea    0x25(%esi),%edx
    8eda:	0f b6 c6             	movzbl %dh,%eax
    8edd:	81 e2 ff 00 00 00    	and    $0xff,%edx
    8ee3:	c1 e2 08             	shl    $0x8,%edx
    8ee6:	09 d0                	or     %edx,%eax
    8ee8:	66 89 43 02          	mov    %ax,0x2(%ebx)
    8eec:	66 c7 43 04 00 00    	movw   $0x0,0x4(%ebx)
    8ef2:	66 c7 43 06 00 00    	movw   $0x0,0x6(%ebx)
    8ef8:	c6 43 08 ff          	movb   $0xff,0x8(%ebx)
    8efc:	a1 c0 b2 00 00       	mov    0xb2c0,%eax
    8f01:	8b 40 04             	mov    0x4(%eax),%eax
    8f04:	89 43 0c             	mov    %eax,0xc(%ebx)
    8f07:	a1 e0 9a 01 00       	mov    0x19ae0,%eax
    8f0c:	89 43 10             	mov    %eax,0x10(%ebx)
    8f0f:	66 c7 43 0a 00 00    	movw   $0x0,0xa(%ebx)
    8f15:	83 c4 08             	add    $0x8,%esp
    8f18:	6a 14                	push   $0x14
    8f1a:	53                   	push   %ebx
    8f1b:	e8 b4 fc ff ff       	call   8bd4 <mon_cksum>
    8f20:	66 89 43 0a          	mov    %ax,0xa(%ebx)
    8f24:	a1 e0 9a 01 00       	mov    0x19ae0,%eax
    8f29:	89 07                	mov    %eax,(%edi)
    8f2b:	66 c7 47 14 00 08    	movw   $0x800,0x14(%edi)
    8f31:	c7 05 f0 9a 01 00 00 	movl   $0x150000,0x19af0
    8f38:	00 15 00 
    8f3b:	c7 05 dc 9a 01 00 00 	movl   $0x0,0x19adc
    8f42:	00 00 00 
    8f45:	c7 05 e4 9a 01 00 00 	movl   $0x0,0x19ae4
    8f4c:	00 00 00 
    8f4f:	83 c4 08             	add    $0x8,%esp
    8f52:	ba 00 00 00 00       	mov    $0x0,%edx
    8f57:	8a 53 03             	mov    0x3(%ebx),%dl
    8f5a:	b8 00 00 00 00       	mov    $0x0,%eax
    8f5f:	8a 43 02             	mov    0x2(%ebx),%al
    8f62:	c1 e0 08             	shl    $0x8,%eax
    8f65:	09 c2                	or     %eax,%edx
    8f67:	83 c2 0e             	add    $0xe,%edx
    8f6a:	52                   	push   %edx
    8f6b:	57                   	push   %edi
    8f6c:	e8 0c 8d ff ff       	call   1c7d <mon_netwrite>
    8f71:	b8 01 00 00 00       	mov    $0x1,%eax
    8f76:	8d 65 f4             	lea    0xfffffff4(%ebp),%esp
    8f79:	5b                   	pop    %ebx
    8f7a:	5e                   	pop    %esi
    8f7b:	5f                   	pop    %edi
    8f7c:	5d                   	pop    %ebp
    8f7d:	c3                   	ret    

00008f7e <mon_tftp_ack>:
    8f7e:	55                   	push   %ebp
    8f7f:	89 e5                	mov    %esp,%ebp
    8f81:	56                   	push   %esi
    8f82:	53                   	push   %ebx
    8f83:	83 ec 0c             	sub    $0xc,%esp
    8f86:	ff 35 70 8c 01 00    	pushl  0x18c70
    8f8c:	e8 0b bd ff ff       	call   4c9c <getbuf>
    8f91:	89 c6                	mov    %eax,%esi
    8f93:	83 c4 10             	add    $0x10,%esp
    8f96:	b8 ff ff ff ff       	mov    $0xffffffff,%eax
    8f9b:	85 f6                	test   %esi,%esi
    8f9d:	0f 84 b3 00 00 00    	je     9056 <mon_tftp_ack+0xd8>
    8fa3:	8d 5e 16             	lea    0x16(%esi),%ebx
    8fa6:	8d 4e 2a             	lea    0x2a(%esi),%ecx
    8fa9:	66 c7 46 2a f3 6c    	movw   $0x6cf3,0x2a(%esi)
    8faf:	ba 00 00 00 00       	mov    $0x0,%edx
    8fb4:	8a 15 ed 9a 01 00    	mov    0x19aed,%dl
    8fba:	b8 00 00 00 00       	mov    $0x0,%eax
    8fbf:	a0 ec 9a 01 00       	mov    0x19aec,%al
    8fc4:	c1 e0 08             	shl    $0x8,%eax
    8fc7:	09 c2                	or     %eax,%edx
    8fc9:	66 89 51 02          	mov    %dx,0x2(%ecx)
    8fcd:	66 c7 41 04 00 0c    	movw   $0xc00,0x4(%ecx)
    8fd3:	66 c7 41 06 00 00    	movw   $0x0,0x6(%ecx)
    8fd9:	66 c7 46 32 00 04    	movw   $0x400,0x32(%esi)
    8fdf:	8b 45 08             	mov    0x8(%ebp),%eax
    8fe2:	0f b6 d4             	movzbl %ah,%edx
    8fe5:	0f b6 45 08          	movzbl 0x8(%ebp),%eax
    8fe9:	c1 e0 08             	shl    $0x8,%eax
    8fec:	09 c2                	or     %eax,%edx
    8fee:	66 89 56 34          	mov    %dx,0x34(%esi)
    8ff2:	83 ec 08             	sub    $0x8,%esp
    8ff5:	6a 14                	push   $0x14
    8ff7:	53                   	push   %ebx
    8ff8:	e8 e9 70 ff ff       	call   e6 <bzero>
    8ffd:	c6 43 09 11          	movb   $0x11,0x9(%ebx)
    9001:	c6 46 16 45          	movb   $0x45,0x16(%esi)
    9005:	66 c7 43 02 00 20    	movw   $0x2000,0x2(%ebx)
    900b:	c6 43 08 05          	movb   $0x5,0x8(%ebx)
    900f:	a1 c0 b2 00 00       	mov    0xb2c0,%eax
    9014:	8b 40 04             	mov    0x4(%eax),%eax
    9017:	89 43 0c             	mov    %eax,0xc(%ebx)
    901a:	a1 e0 9a 01 00       	mov    0x19ae0,%eax
    901f:	89 43 10             	mov    %eax,0x10(%ebx)
    9022:	83 c4 08             	add    $0x8,%esp
    9025:	6a 14                	push   $0x14
    9027:	53                   	push   %ebx
    9028:	e8 a7 fb ff ff       	call   8bd4 <mon_cksum>
    902d:	66 89 43 0a          	mov    %ax,0xa(%ebx)
    9031:	a1 e0 9a 01 00       	mov    0x19ae0,%eax
    9036:	89 06                	mov    %eax,(%esi)
    9038:	66 c7 46 14 00 08    	movw   $0x800,0x14(%esi)
    903e:	a1 e4 b9 00 00       	mov    0xb9e4,%eax
    9043:	83 c0 02             	add    $0x2,%eax
    9046:	a3 e8 b9 00 00       	mov    %eax,0xb9e8
    904b:	83 c4 08             	add    $0x8,%esp
    904e:	6a 2e                	push   $0x2e
    9050:	56                   	push   %esi
    9051:	e8 27 8c ff ff       	call   1c7d <mon_netwrite>
    9056:	8d 65 f8             	lea    0xfffffff8(%ebp),%esp
    9059:	5b                   	pop    %ebx
    905a:	5e                   	pop    %esi
    905b:	5d                   	pop    %ebp
    905c:	c3                   	ret    
    905d:	90                   	nop    
    905e:	90                   	nop    
    905f:	90                   	nop    

00009060 <blkcopy>:
    9060:	56                   	push   %esi
    9061:	57                   	push   %edi
    9062:	8b 7c 24 0c          	mov    0xc(%esp),%edi
    9066:	8b 74 24 10          	mov    0x10(%esp),%esi
    906a:	8b 4c 24 14          	mov    0x14(%esp),%ecx
    906e:	39 fe                	cmp    %edi,%esi
    9070:	7e 12                	jle    9084 <L100>
    9072:	c1 f9 02             	sar    $0x2,%ecx
    9075:	fc                   	cld    
    9076:	f3 a5                	repz movsl %ds:(%esi),%es:(%edi)
    9078:	8b 4c 24 14          	mov    0x14(%esp),%ecx
    907c:	83 e1 03             	and    $0x3,%ecx
    907f:	f3 a4                	repz movsb %ds:(%esi),%es:(%edi)
    9081:	5f                   	pop    %edi
    9082:	5e                   	pop    %esi
    9083:	c3                   	ret    

00009084 <L100>:
    9084:	49                   	dec    %ecx
    9085:	01 ce                	add    %ecx,%esi
    9087:	01 cf                	add    %ecx,%edi
    9089:	41                   	inc    %ecx
    908a:	fd                   	std    
    908b:	83 e1 03             	and    $0x3,%ecx
    908e:	f3 a4                	repz movsb %ds:(%esi),%es:(%edi)
    9090:	83 ee 03             	sub    $0x3,%esi
    9093:	83 ef 03             	sub    $0x3,%edi
    9096:	8b 4c 24 14          	mov    0x14(%esp),%ecx
    909a:	c1 f9 02             	sar    $0x2,%ecx
    909d:	f3 a5                	repz movsl %ds:(%esi),%es:(%edi)
    909f:	5f                   	pop    %edi
    90a0:	5e                   	pop    %esi
    90a1:	c3                   	ret    
    90a2:	90                   	nop    
    90a3:	90                   	nop    

000090a4 <_doprnt>:
    90a4:	55                   	push   %ebp
    90a5:	89 e5                	mov    %esp,%ebp
    90a7:	57                   	push   %edi
    90a8:	56                   	push   %esi
    90a9:	53                   	push   %ebx
    90aa:	83 ec 4c             	sub    $0x4c,%esp
    90ad:	8b 75 08             	mov    0x8(%ebp),%esi
    90b0:	0f be 06             	movsbl (%esi),%eax
    90b3:	46                   	inc    %esi
    90b4:	83 f8 25             	cmp    $0x25,%eax
    90b7:	74 1f                	je     90d8 <_doprnt+0x34>
    90b9:	85 c0                	test   %eax,%eax
    90bb:	75 05                	jne    90c2 <_doprnt+0x1e>
    90bd:	e9 a9 03 00 00       	jmp    946b <_doprnt+0x3c7>
    90c2:	83 ec 08             	sub    $0x8,%esp
    90c5:	50                   	push   %eax
    90c6:	ff 75 14             	pushl  0x14(%ebp)
    90c9:	ff 55 10             	call   *0x10(%ebp)
    90cc:	83 c4 10             	add    $0x10,%esp
    90cf:	0f be 06             	movsbl (%esi),%eax
    90d2:	46                   	inc    %esi
    90d3:	83 f8 25             	cmp    $0x25,%eax
    90d6:	75 e1                	jne    90b9 <_doprnt+0x15>
    90d8:	80 3e 25             	cmpb   $0x25,(%esi)
    90db:	75 11                	jne    90ee <_doprnt+0x4a>
    90dd:	83 ec 08             	sub    $0x8,%esp
    90e0:	6a 25                	push   $0x25
    90e2:	46                   	inc    %esi
    90e3:	ff 75 14             	pushl  0x14(%ebp)
    90e6:	ff 55 10             	call   *0x10(%ebp)
    90e9:	83 c4 10             	add    $0x10,%esp
    90ec:	eb c2                	jmp    90b0 <_doprnt+0xc>
    90ee:	80 3e 2d             	cmpb   $0x2d,(%esi)
    90f1:	0f 94 c0             	sete   %al
    90f4:	25 ff 00 00 00       	and    $0xff,%eax
    90f9:	89 45 bc             	mov    %eax,0xffffffbc(%ebp)
    90fc:	83 f8 01             	cmp    $0x1,%eax
    90ff:	83 de ff             	sbb    $0xffffffff,%esi
    9102:	c6 45 c3 20          	movb   $0x20,0xffffffc3(%ebp)
    9106:	80 3e 30             	cmpb   $0x30,(%esi)
    9109:	75 05                	jne    9110 <_doprnt+0x6c>
    910b:	46                   	inc    %esi
    910c:	c6 45 c3 30          	movb   $0x30,0xffffffc3(%ebp)
    9110:	c7 45 b8 00 00 00 00 	movl   $0x0,0xffffffb8(%ebp)
    9117:	80 3e 2a             	cmpb   $0x2a,(%esi)
    911a:	75 11                	jne    912d <_doprnt+0x89>
    911c:	8b 55 0c             	mov    0xc(%ebp),%edx
    911f:	8b 02                	mov    (%edx),%eax
    9121:	83 c2 04             	add    $0x4,%edx
    9124:	89 55 0c             	mov    %edx,0xc(%ebp)
    9127:	89 45 b8             	mov    %eax,0xffffffb8(%ebp)
    912a:	46                   	inc    %esi
    912b:	eb 23                	jmp    9150 <_doprnt+0xac>
    912d:	8a 06                	mov    (%esi),%al
    912f:	83 e8 30             	sub    $0x30,%eax
    9132:	3c 09                	cmp    $0x9,%al
    9134:	77 1a                	ja     9150 <_doprnt+0xac>
    9136:	8b 55 b8             	mov    0xffffffb8(%ebp),%edx
    9139:	8d 04 92             	lea    (%edx,%edx,4),%eax
    913c:	0f be 16             	movsbl (%esi),%edx
    913f:	8d 44 42 d0          	lea    0xffffffd0(%edx,%eax,2),%eax
    9143:	89 45 b8             	mov    %eax,0xffffffb8(%ebp)
    9146:	46                   	inc    %esi
    9147:	8a 06                	mov    (%esi),%al
    9149:	83 e8 30             	sub    $0x30,%eax
    914c:	3c 09                	cmp    $0x9,%al
    914e:	76 e6                	jbe    9136 <_doprnt+0x92>
    9150:	bb 00 00 00 00       	mov    $0x0,%ebx
    9155:	80 3e 2e             	cmpb   $0x2e,(%esi)
    9158:	75 33                	jne    918d <_doprnt+0xe9>
    915a:	46                   	inc    %esi
    915b:	80 3e 2a             	cmpb   $0x2a,(%esi)
    915e:	75 10                	jne    9170 <_doprnt+0xcc>
    9160:	8b 55 0c             	mov    0xc(%ebp),%edx
    9163:	8b 02                	mov    (%edx),%eax
    9165:	83 c2 04             	add    $0x4,%edx
    9168:	89 55 0c             	mov    %edx,0xc(%ebp)
    916b:	89 c3                	mov    %eax,%ebx
    916d:	46                   	inc    %esi
    916e:	eb 1d                	jmp    918d <_doprnt+0xe9>
    9170:	8a 06                	mov    (%esi),%al
    9172:	83 e8 30             	sub    $0x30,%eax
    9175:	3c 09                	cmp    $0x9,%al
    9177:	77 14                	ja     918d <_doprnt+0xe9>
    9179:	8d 04 9b             	lea    (%ebx,%ebx,4),%eax
    917c:	0f be 16             	movsbl (%esi),%edx
    917f:	8d 5c 42 d0          	lea    0xffffffd0(%edx,%eax,2),%ebx
    9183:	46                   	inc    %esi
    9184:	8a 06                	mov    (%esi),%al
    9186:	83 e8 30             	sub    $0x30,%eax
    9189:	3c 09                	cmp    $0x9,%al
    918b:	76 ec                	jbe    9179 <_doprnt+0xd5>
    918d:	80 3e 6c             	cmpb   $0x6c,(%esi)
    9190:	0f 94 c0             	sete   %al
    9193:	25 ff 00 00 00       	and    $0xff,%eax
    9198:	83 f8 01             	cmp    $0x1,%eax
    919b:	83 de ff             	sbb    $0xffffffff,%esi
    919e:	b8 01 00 00 00       	mov    $0x1,%eax
    91a3:	8d 55 c8             	lea    0xffffffc8(%ebp),%edx
    91a6:	89 55 c4             	mov    %edx,0xffffffc4(%ebp)
    91a9:	0f be 0e             	movsbl (%esi),%ecx
    91ac:	46                   	inc    %esi
    91ad:	85 c9                	test   %ecx,%ecx
    91af:	75 10                	jne    91c1 <_doprnt+0x11d>
    91b1:	83 ec 08             	sub    $0x8,%esp
    91b4:	6a 25                	push   $0x25
    91b6:	ff 75 14             	pushl  0x14(%ebp)
    91b9:	ff 55 10             	call   *0x10(%ebp)
    91bc:	e9 aa 02 00 00       	jmp    946b <_doprnt+0x3c7>
    91c1:	c6 45 b3 00          	movb   $0x0,0xffffffb3(%ebp)
    91c5:	8d 51 be             	lea    0xffffffbe(%ecx),%edx
    91c8:	83 fa 36             	cmp    $0x36,%edx
    91cb:	0f 87 4b 01 00 00    	ja     931c <_doprnt+0x278>
    91d1:	ff 24 95 c0 a8 00 00 	jmp    *0xa8c0(,%edx,4)
    91d8:	8b 55 0c             	mov    0xc(%ebp),%edx
    91db:	8b 02                	mov    (%edx),%eax
    91dd:	88 45 c8             	mov    %al,0xffffffc8(%ebp)
    91e0:	c6 45 c9 00          	movb   $0x0,0xffffffc9(%ebp)
    91e4:	bb 00 00 00 00       	mov    $0x0,%ebx
    91e9:	c6 45 c3 20          	movb   $0x20,0xffffffc3(%ebp)
    91ed:	e9 37 01 00 00       	jmp    9329 <_doprnt+0x285>
    91f2:	8b 45 0c             	mov    0xc(%ebp),%eax
    91f5:	8b 00                	mov    (%eax),%eax
    91f7:	89 45 c4             	mov    %eax,0xffffffc4(%ebp)
    91fa:	c6 45 c3 20          	movb   $0x20,0xffffffc3(%ebp)
    91fe:	e9 26 01 00 00       	jmp    9329 <_doprnt+0x285>
    9203:	b8 01 00 00 00       	mov    $0x1,%eax
    9208:	85 c0                	test   %eax,%eax
    920a:	74 10                	je     921c <_doprnt+0x178>
    920c:	8b 55 0c             	mov    0xc(%ebp),%edx
    920f:	83 3a 00             	cmpl   $0x0,(%edx)
    9212:	79 16                	jns    922a <_doprnt+0x186>
    9214:	c6 45 b3 2d          	movb   $0x2d,0xffffffb3(%ebp)
    9218:	f7 1a                	negl   (%edx)
    921a:	eb 0e                	jmp    922a <_doprnt+0x186>
    921c:	8b 55 0c             	mov    0xc(%ebp),%edx
    921f:	83 3a 00             	cmpl   $0x0,(%edx)
    9222:	79 06                	jns    922a <_doprnt+0x186>
    9224:	c6 45 b3 2d          	movb   $0x2d,0xffffffb3(%ebp)
    9228:	f7 1a                	negl   (%edx)
    922a:	48                   	dec    %eax
    922b:	40                   	inc    %eax
    922c:	85 c0                	test   %eax,%eax
    922e:	74 33                	je     9263 <_doprnt+0x1bf>
    9230:	b3 00                	mov    $0x0,%bl
    9232:	8b 45 0c             	mov    0xc(%ebp),%eax
    9235:	83 38 00             	cmpl   $0x0,(%eax)
    9238:	79 0f                	jns    9249 <_doprnt+0x1a5>
    923a:	8b 00                	mov    (%eax),%eax
    923c:	43                   	inc    %ebx
    923d:	2d 00 ca 9a 3b       	sub    $0x3b9aca00,%eax
    9242:	78 f8                	js     923c <_doprnt+0x198>
    9244:	8b 55 0c             	mov    0xc(%ebp),%edx
    9247:	89 02                	mov    %eax,(%edx)
    9249:	83 ec 08             	sub    $0x8,%esp
    924c:	ff 75 c4             	pushl  0xffffffc4(%ebp)
    924f:	8b 45 0c             	mov    0xc(%ebp),%eax
    9252:	ff 30                	pushl  (%eax)
    9254:	e8 8d 02 00 00       	call   94e6 <_prtl10>
    9259:	8b 55 c4             	mov    0xffffffc4(%ebp),%edx
    925c:	00 1a                	add    %bl,(%edx)
    925e:	83 c4 10             	add    $0x10,%esp
    9261:	eb 13                	jmp    9276 <_doprnt+0x1d2>
    9263:	83 ec 08             	sub    $0x8,%esp
    9266:	ff 75 c4             	pushl  0xffffffc4(%ebp)
    9269:	8b 45 0c             	mov    0xc(%ebp),%eax
    926c:	ff 30                	pushl  (%eax)
    926e:	e8 00 02 00 00       	call   9473 <_prt10>
    9273:	83 c4 10             	add    $0x10,%esp
    9276:	bb 00 00 00 00       	mov    $0x0,%ebx
    927b:	e9 a9 00 00 00       	jmp    9329 <_doprnt+0x285>
    9280:	40                   	inc    %eax
    9281:	85 c0                	test   %eax,%eax
    9283:	74 15                	je     929a <_doprnt+0x1f6>
    9285:	83 ec 08             	sub    $0x8,%esp
    9288:	ff 75 c4             	pushl  0xffffffc4(%ebp)
    928b:	8b 55 0c             	mov    0xc(%ebp),%edx
    928e:	ff 32                	pushl  (%edx)
    9290:	e8 33 03 00 00       	call   95c8 <_prtl8>
    9295:	83 c4 10             	add    $0x10,%esp
    9298:	eb 13                	jmp    92ad <_doprnt+0x209>
    929a:	83 ec 08             	sub    $0x8,%esp
    929d:	ff 75 c4             	pushl  0xffffffc4(%ebp)
    92a0:	8b 45 0c             	mov    0xc(%ebp),%eax
    92a3:	ff 30                	pushl  (%eax)
    92a5:	e8 b3 02 00 00       	call   955d <_prt8>
    92aa:	83 c4 10             	add    $0x10,%esp
    92ad:	bb 00 00 00 00       	mov    $0x0,%ebx
    92b2:	eb 75                	jmp    9329 <_doprnt+0x285>
    92b4:	40                   	inc    %eax
    92b5:	85 c0                	test   %eax,%eax
    92b7:	74 15                	je     92ce <_doprnt+0x22a>
    92b9:	83 ec 08             	sub    $0x8,%esp
    92bc:	ff 75 c4             	pushl  0xffffffc4(%ebp)
    92bf:	8b 55 0c             	mov    0xc(%ebp),%edx
    92c2:	ff 32                	pushl  (%edx)
    92c4:	e8 c0 03 00 00       	call   9689 <_prtl16>
    92c9:	83 c4 10             	add    $0x10,%esp
    92cc:	eb 13                	jmp    92e1 <_doprnt+0x23d>
    92ce:	83 ec 08             	sub    $0x8,%esp
    92d1:	ff 75 c4             	pushl  0xffffffc4(%ebp)
    92d4:	8b 45 0c             	mov    0xc(%ebp),%eax
    92d7:	ff 30                	pushl  (%eax)
    92d9:	e8 4b 03 00 00       	call   9629 <_prt16>
    92de:	83 c4 10             	add    $0x10,%esp
    92e1:	bb 00 00 00 00       	mov    $0x0,%ebx
    92e6:	eb 41                	jmp    9329 <_doprnt+0x285>
    92e8:	40                   	inc    %eax
    92e9:	85 c0                	test   %eax,%eax
    92eb:	74 15                	je     9302 <_doprnt+0x25e>
    92ed:	83 ec 08             	sub    $0x8,%esp
    92f0:	ff 75 c4             	pushl  0xffffffc4(%ebp)
    92f3:	8b 55 0c             	mov    0xc(%ebp),%edx
    92f6:	ff 32                	pushl  (%edx)
    92f8:	e8 4d 04 00 00       	call   974a <_prtl2>
    92fd:	83 c4 10             	add    $0x10,%esp
    9300:	eb 13                	jmp    9315 <_doprnt+0x271>
    9302:	83 ec 08             	sub    $0x8,%esp
    9305:	ff 75 c4             	pushl  0xffffffc4(%ebp)
    9308:	8b 45 0c             	mov    0xc(%ebp),%eax
    930b:	ff 30                	pushl  (%eax)
    930d:	e8 d7 03 00 00       	call   96e9 <_prt2>
    9312:	83 c4 10             	add    $0x10,%esp
    9315:	bb 00 00 00 00       	mov    $0x0,%ebx
    931a:	eb 0d                	jmp    9329 <_doprnt+0x285>
    931c:	83 ec 08             	sub    $0x8,%esp
    931f:	51                   	push   %ecx
    9320:	ff 75 14             	pushl  0x14(%ebp)
    9323:	ff 55 10             	call   *0x10(%ebp)
    9326:	83 c4 10             	add    $0x10,%esp
    9329:	83 45 0c 04          	addl   $0x4,0xc(%ebp)
    932d:	bf 00 00 00 00       	mov    $0x0,%edi
    9332:	8b 55 c4             	mov    0xffffffc4(%ebp),%edx
    9335:	80 3a 00             	cmpb   $0x0,(%edx)
    9338:	74 0a                	je     9344 <_doprnt+0x2a0>
    933a:	47                   	inc    %edi
    933b:	8b 45 c4             	mov    0xffffffc4(%ebp),%eax
    933e:	80 3c 38 00          	cmpb   $0x0,(%eax,%edi,1)
    9342:	75 f6                	jne    933a <_doprnt+0x296>
    9344:	83 7d b8 51          	cmpl   $0x51,0xffffffb8(%ebp)
    9348:	0f 92 c0             	setb   %al
    934b:	25 ff 00 00 00       	and    $0xff,%eax
    9350:	f7 d8                	neg    %eax
    9352:	21 45 b8             	and    %eax,0xffffffb8(%ebp)
    9355:	83 fb 51             	cmp    $0x51,%ebx
    9358:	0f 92 c0             	setb   %al
    935b:	25 ff 00 00 00       	and    $0xff,%eax
    9360:	f7 d8                	neg    %eax
    9362:	21 c3                	and    %eax,%ebx
    9364:	c7 45 b4 00 00 00 00 	movl   $0x0,0xffffffb4(%ebp)
    936b:	8b 55 b8             	mov    0xffffffb8(%ebp),%edx
    936e:	09 da                	or     %ebx,%edx
    9370:	74 27                	je     9399 <_doprnt+0x2f5>
    9372:	85 db                	test   %ebx,%ebx
    9374:	74 06                	je     937c <_doprnt+0x2d8>
    9376:	39 df                	cmp    %ebx,%edi
    9378:	7e 02                	jle    937c <_doprnt+0x2d8>
    937a:	89 df                	mov    %ebx,%edi
    937c:	83 7d b8 00          	cmpl   $0x0,0xffffffb8(%ebp)
    9380:	74 08                	je     938a <_doprnt+0x2e6>
    9382:	8b 45 b8             	mov    0xffffffb8(%ebp),%eax
    9385:	29 f8                	sub    %edi,%eax
    9387:	89 45 b4             	mov    %eax,0xffffffb4(%ebp)
    938a:	80 7d b3 2d          	cmpb   $0x2d,0xffffffb3(%ebp)
    938e:	0f 94 c0             	sete   %al
    9391:	25 ff 00 00 00       	and    $0xff,%eax
    9396:	29 45 b4             	sub    %eax,0xffffffb4(%ebp)
    9399:	80 7d b3 2d          	cmpb   $0x2d,0xffffffb3(%ebp)
    939d:	0f 94 c0             	sete   %al
    93a0:	80 7d c3 30          	cmpb   $0x30,0xffffffc3(%ebp)
    93a4:	0f 94 c2             	sete   %dl
    93a7:	25 ff 00 00 00       	and    $0xff,%eax
    93ac:	85 c2                	test   %eax,%edx
    93ae:	74 11                	je     93c1 <_doprnt+0x31d>
    93b0:	83 ec 08             	sub    $0x8,%esp
    93b3:	0f be 45 b3          	movsbl 0xffffffb3(%ebp),%eax
    93b7:	50                   	push   %eax
    93b8:	ff 75 14             	pushl  0x14(%ebp)
    93bb:	ff 55 10             	call   *0x10(%ebp)
    93be:	83 c4 10             	add    $0x10,%esp
    93c1:	83 7d bc 00          	cmpl   $0x0,0xffffffbc(%ebp)
    93c5:	75 26                	jne    93ed <_doprnt+0x349>
    93c7:	bb 00 00 00 00       	mov    $0x0,%ebx
    93cc:	3b 5d b4             	cmp    0xffffffb4(%ebp),%ebx
    93cf:	7d 1c                	jge    93ed <_doprnt+0x349>
    93d1:	0f be 55 c3          	movsbl 0xffffffc3(%ebp),%edx
    93d5:	89 55 ac             	mov    %edx,0xffffffac(%ebp)
    93d8:	83 ec 08             	sub    $0x8,%esp
    93db:	ff 75 ac             	pushl  0xffffffac(%ebp)
    93de:	ff 75 14             	pushl  0x14(%ebp)
    93e1:	ff 55 10             	call   *0x10(%ebp)
    93e4:	83 c4 10             	add    $0x10,%esp
    93e7:	43                   	inc    %ebx
    93e8:	3b 5d b4             	cmp    0xffffffb4(%ebp),%ebx
    93eb:	7c eb                	jl     93d8 <_doprnt+0x334>
    93ed:	80 7d b3 2d          	cmpb   $0x2d,0xffffffb3(%ebp)
    93f1:	0f 94 c0             	sete   %al
    93f4:	80 7d c3 20          	cmpb   $0x20,0xffffffc3(%ebp)
    93f8:	0f 94 c2             	sete   %dl
    93fb:	25 ff 00 00 00       	and    $0xff,%eax
    9400:	85 c2                	test   %eax,%edx
    9402:	74 11                	je     9415 <_doprnt+0x371>
    9404:	83 ec 08             	sub    $0x8,%esp
    9407:	0f be 45 b3          	movsbl 0xffffffb3(%ebp),%eax
    940b:	50                   	push   %eax
    940c:	ff 75 14             	pushl  0x14(%ebp)
    940f:	ff 55 10             	call   *0x10(%ebp)
    9412:	83 c4 10             	add    $0x10,%esp
    9415:	bb 00 00 00 00       	mov    $0x0,%ebx
    941a:	39 fb                	cmp    %edi,%ebx
    941c:	7d 19                	jge    9437 <_doprnt+0x393>
    941e:	83 ec 08             	sub    $0x8,%esp
    9421:	8b 55 c4             	mov    0xffffffc4(%ebp),%edx
    9424:	0f be 04 1a          	movsbl (%edx,%ebx,1),%eax
    9428:	50                   	push   %eax
    9429:	ff 75 14             	pushl  0x14(%ebp)
    942c:	ff 55 10             	call   *0x10(%ebp)
    942f:	83 c4 10             	add    $0x10,%esp
    9432:	43                   	inc    %ebx
    9433:	39 fb                	cmp    %edi,%ebx
    9435:	7c e7                	jl     941e <_doprnt+0x37a>
    9437:	83 7d bc 00          	cmpl   $0x0,0xffffffbc(%ebp)
    943b:	0f 84 6f fc ff ff    	je     90b0 <_doprnt+0xc>
    9441:	bb 00 00 00 00       	mov    $0x0,%ebx
    9446:	3b 5d b4             	cmp    0xffffffb4(%ebp),%ebx
    9449:	0f 8d 61 fc ff ff    	jge    90b0 <_doprnt+0xc>
    944f:	0f be 7d c3          	movsbl 0xffffffc3(%ebp),%edi
    9453:	83 ec 08             	sub    $0x8,%esp
    9456:	57                   	push   %edi
    9457:	ff 75 14             	pushl  0x14(%ebp)
    945a:	ff 55 10             	call   *0x10(%ebp)
    945d:	83 c4 10             	add    $0x10,%esp
    9460:	43                   	inc    %ebx
    9461:	3b 5d b4             	cmp    0xffffffb4(%ebp),%ebx
    9464:	7c ed                	jl     9453 <_doprnt+0x3af>
    9466:	e9 45 fc ff ff       	jmp    90b0 <_doprnt+0xc>
    946b:	8d 65 f4             	lea    0xfffffff4(%ebp),%esp
    946e:	5b                   	pop    %ebx
    946f:	5e                   	pop    %esi
    9470:	5f                   	pop    %edi
    9471:	5d                   	pop    %ebp
    9472:	c3                   	ret    

00009473 <_prt10>:
    9473:	55                   	push   %ebp
    9474:	89 e5                	mov    %esp,%ebp
    9476:	57                   	push   %edi
    9477:	56                   	push   %esi
    9478:	53                   	push   %ebx
    9479:	83 ec 1c             	sub    $0x1c,%esp
    947c:	8b 5d 08             	mov    0x8(%ebp),%ebx
    947f:	8b 75 0c             	mov    0xc(%ebp),%esi
    9482:	c6 45 d8 00          	movb   $0x0,0xffffffd8(%ebp)
    9486:	b9 01 00 00 00       	mov    $0x1,%ecx
    948b:	bf 0a 00 00 00       	mov    $0xa,%edi
    9490:	89 d8                	mov    %ebx,%eax
    9492:	ba 00 00 00 00       	mov    $0x0,%edx
    9497:	f7 f7                	div    %edi
    9499:	83 c2 30             	add    $0x30,%edx
    949c:	88 54 0d d8          	mov    %dl,0xffffffd8(%ebp,%ecx,1)
    94a0:	b8 cd cc cc cc       	mov    $0xcccccccd,%eax
    94a5:	f7 e3                	mul    %ebx
    94a7:	89 d3                	mov    %edx,%ebx
    94a9:	c1 eb 03             	shr    $0x3,%ebx
    94ac:	41                   	inc    %ecx
    94ad:	83 f9 05             	cmp    $0x5,%ecx
    94b0:	7e de                	jle    9490 <_prt10+0x1d>
    94b2:	b9 05 00 00 00       	mov    $0x5,%ecx
    94b7:	80 7d dd 30          	cmpb   $0x30,0xffffffdd(%ebp)
    94bb:	75 08                	jne    94c5 <_prt10+0x52>
    94bd:	49                   	dec    %ecx
    94be:	80 7c 0d d8 30       	cmpb   $0x30,0xffffffd8(%ebp,%ecx,1)
    94c3:	74 f8                	je     94bd <_prt10+0x4a>
    94c5:	85 c9                	test   %ecx,%ecx
    94c7:	75 02                	jne    94cb <_prt10+0x58>
    94c9:	b1 01                	mov    $0x1,%cl
    94cb:	85 c9                	test   %ecx,%ecx
    94cd:	78 0f                	js     94de <_prt10+0x6b>
    94cf:	8d 55 e8             	lea    0xffffffe8(%ebp),%edx
    94d2:	8d 04 11             	lea    (%ecx,%edx,1),%eax
    94d5:	8a 40 f0             	mov    0xfffffff0(%eax),%al
    94d8:	88 06                	mov    %al,(%esi)
    94da:	46                   	inc    %esi
    94db:	49                   	dec    %ecx
    94dc:	79 f1                	jns    94cf <_prt10+0x5c>
    94de:	83 c4 1c             	add    $0x1c,%esp
    94e1:	5b                   	pop    %ebx
    94e2:	5e                   	pop    %esi
    94e3:	5f                   	pop    %edi
    94e4:	5d                   	pop    %ebp
    94e5:	c3                   	ret    

000094e6 <_prtl10>:
    94e6:	55                   	push   %ebp
    94e7:	89 e5                	mov    %esp,%ebp
    94e9:	57                   	push   %edi
    94ea:	56                   	push   %esi
    94eb:	53                   	push   %ebx
    94ec:	83 ec 1c             	sub    $0x1c,%esp
    94ef:	8b 4d 08             	mov    0x8(%ebp),%ecx
    94f2:	8b 75 0c             	mov    0xc(%ebp),%esi
    94f5:	c6 45 d8 00          	movb   $0x0,0xffffffd8(%ebp)
    94f9:	bb 01 00 00 00       	mov    $0x1,%ebx
    94fe:	bf 67 66 66 66       	mov    $0x66666667,%edi
    9503:	89 c8                	mov    %ecx,%eax
    9505:	f7 ef                	imul   %edi
    9507:	c1 fa 02             	sar    $0x2,%edx
    950a:	89 c8                	mov    %ecx,%eax
    950c:	c1 f8 1f             	sar    $0x1f,%eax
    950f:	29 c2                	sub    %eax,%edx
    9511:	8d 04 92             	lea    (%edx,%edx,4),%eax
    9514:	01 c0                	add    %eax,%eax
    9516:	29 c1                	sub    %eax,%ecx
    9518:	89 c8                	mov    %ecx,%eax
    951a:	83 c0 30             	add    $0x30,%eax
    951d:	88 44 1d d8          	mov    %al,0xffffffd8(%ebp,%ebx,1)
    9521:	89 d1                	mov    %edx,%ecx
    9523:	43                   	inc    %ebx
    9524:	83 fb 0a             	cmp    $0xa,%ebx
    9527:	7e da                	jle    9503 <_prtl10+0x1d>
    9529:	bb 0a 00 00 00       	mov    $0xa,%ebx
    952e:	80 7d e2 30          	cmpb   $0x30,0xffffffe2(%ebp)
    9532:	75 08                	jne    953c <_prtl10+0x56>
    9534:	4b                   	dec    %ebx
    9535:	80 7c 1d d8 30       	cmpb   $0x30,0xffffffd8(%ebp,%ebx,1)
    953a:	74 f8                	je     9534 <_prtl10+0x4e>
    953c:	85 db                	test   %ebx,%ebx
    953e:	75 02                	jne    9542 <_prtl10+0x5c>
    9540:	b3 01                	mov    $0x1,%bl
    9542:	85 db                	test   %ebx,%ebx
    9544:	78 0f                	js     9555 <_prtl10+0x6f>
    9546:	8d 55 e8             	lea    0xffffffe8(%ebp),%edx
    9549:	8d 04 13             	lea    (%ebx,%edx,1),%eax
    954c:	8a 40 f0             	mov    0xfffffff0(%eax),%al
    954f:	88 06                	mov    %al,(%esi)
    9551:	46                   	inc    %esi
    9552:	4b                   	dec    %ebx
    9553:	79 f1                	jns    9546 <_prtl10+0x60>
    9555:	83 c4 1c             	add    $0x1c,%esp
    9558:	5b                   	pop    %ebx
    9559:	5e                   	pop    %esi
    955a:	5f                   	pop    %edi
    955b:	5d                   	pop    %ebp
    955c:	c3                   	ret    

0000955d <_prt8>:
    955d:	55                   	push   %ebp
    955e:	89 e5                	mov    %esp,%ebp
    9560:	53                   	push   %ebx
    9561:	83 ec 14             	sub    $0x14,%esp
    9564:	8b 4d 08             	mov    0x8(%ebp),%ecx
    9567:	8b 5d 0c             	mov    0xc(%ebp),%ebx
    956a:	c6 45 e8 00          	movb   $0x0,0xffffffe8(%ebp)
    956e:	ba 01 00 00 00       	mov    $0x1,%edx
    9573:	88 c8                	mov    %cl,%al
    9575:	83 e0 07             	and    $0x7,%eax
    9578:	83 c0 30             	add    $0x30,%eax
    957b:	88 44 15 e8          	mov    %al,0xffffffe8(%ebp,%edx,1)
    957f:	89 c8                	mov    %ecx,%eax
    9581:	c1 e8 03             	shr    $0x3,%eax
    9584:	89 c1                	mov    %eax,%ecx
    9586:	81 e1 ff 3f 00 00    	and    $0x3fff,%ecx
    958c:	42                   	inc    %edx
    958d:	83 fa 06             	cmp    $0x6,%edx
    9590:	7e e1                	jle    9573 <_prt8+0x16>
    9592:	80 65 ee 31          	andb   $0x31,0xffffffee(%ebp)
    9596:	ba 06 00 00 00       	mov    $0x6,%edx
    959b:	80 7d ee 30          	cmpb   $0x30,0xffffffee(%ebp)
    959f:	75 08                	jne    95a9 <_prt8+0x4c>
    95a1:	4a                   	dec    %edx
    95a2:	80 7c 15 e8 30       	cmpb   $0x30,0xffffffe8(%ebp,%edx,1)
    95a7:	74 f8                	je     95a1 <_prt8+0x44>
    95a9:	85 d2                	test   %edx,%edx
    95ab:	75 02                	jne    95af <_prt8+0x52>
    95ad:	b2 01                	mov    $0x1,%dl
    95af:	85 d2                	test   %edx,%edx
    95b1:	78 0f                	js     95c2 <_prt8+0x65>
    95b3:	8d 4d f8             	lea    0xfffffff8(%ebp),%ecx
    95b6:	8d 04 0a             	lea    (%edx,%ecx,1),%eax
    95b9:	8a 40 f0             	mov    0xfffffff0(%eax),%al
    95bc:	88 03                	mov    %al,(%ebx)
    95be:	43                   	inc    %ebx
    95bf:	4a                   	dec    %edx
    95c0:	79 f1                	jns    95b3 <_prt8+0x56>
    95c2:	83 c4 14             	add    $0x14,%esp
    95c5:	5b                   	pop    %ebx
    95c6:	5d                   	pop    %ebp
    95c7:	c3                   	ret    

000095c8 <_prtl8>:
    95c8:	55                   	push   %ebp
    95c9:	89 e5                	mov    %esp,%ebp
    95cb:	53                   	push   %ebx
    95cc:	83 ec 14             	sub    $0x14,%esp
    95cf:	8b 4d 08             	mov    0x8(%ebp),%ecx
    95d2:	8b 5d 0c             	mov    0xc(%ebp),%ebx
    95d5:	c6 45 e8 00          	movb   $0x0,0xffffffe8(%ebp)
    95d9:	ba 01 00 00 00       	mov    $0x1,%edx
    95de:	88 c8                	mov    %cl,%al
    95e0:	83 e0 07             	and    $0x7,%eax
    95e3:	83 c0 30             	add    $0x30,%eax
    95e6:	88 44 15 e8          	mov    %al,0xffffffe8(%ebp,%edx,1)
    95ea:	c1 f9 03             	sar    $0x3,%ecx
    95ed:	42                   	inc    %edx
    95ee:	83 fa 0b             	cmp    $0xb,%edx
    95f1:	7e eb                	jle    95de <_prtl8+0x16>
    95f3:	80 65 f3 33          	andb   $0x33,0xfffffff3(%ebp)
    95f7:	ba 0b 00 00 00       	mov    $0xb,%edx
    95fc:	80 7d f3 30          	cmpb   $0x30,0xfffffff3(%ebp)
    9600:	75 08                	jne    960a <_prtl8+0x42>
    9602:	4a                   	dec    %edx
    9603:	80 7c 15 e8 30       	cmpb   $0x30,0xffffffe8(%ebp,%edx,1)
    9608:	74 f8                	je     9602 <_prtl8+0x3a>
    960a:	85 d2                	test   %edx,%edx
    960c:	75 02                	jne    9610 <_prtl8+0x48>
    960e:	b2 01                	mov    $0x1,%dl
    9610:	85 d2                	test   %edx,%edx
    9612:	78 0f                	js     9623 <_prtl8+0x5b>
    9614:	8d 4d f8             	lea    0xfffffff8(%ebp),%ecx
    9617:	8d 04 0a             	lea    (%edx,%ecx,1),%eax
    961a:	8a 40 f0             	mov    0xfffffff0(%eax),%al
    961d:	88 03                	mov    %al,(%ebx)
    961f:	43                   	inc    %ebx
    9620:	4a                   	dec    %edx
    9621:	79 f1                	jns    9614 <_prtl8+0x4c>
    9623:	83 c4 14             	add    $0x14,%esp
    9626:	5b                   	pop    %ebx
    9627:	5d                   	pop    %ebp
    9628:	c3                   	ret    

00009629 <_prt16>:
    9629:	55                   	push   %ebp
    962a:	89 e5                	mov    %esp,%ebp
    962c:	53                   	push   %ebx
    962d:	83 ec 14             	sub    $0x14,%esp
    9630:	8b 4d 08             	mov    0x8(%ebp),%ecx
    9633:	8b 5d 0c             	mov    0xc(%ebp),%ebx
    9636:	c6 45 e8 00          	movb   $0x0,0xffffffe8(%ebp)
    963a:	ba 01 00 00 00       	mov    $0x1,%edx
    963f:	89 c8                	mov    %ecx,%eax
    9641:	83 e0 0f             	and    $0xf,%eax
    9644:	8a 80 9c a9 00 00    	mov    0xa99c(%eax),%al
    964a:	88 44 15 e8          	mov    %al,0xffffffe8(%ebp,%edx,1)
    964e:	c1 e9 04             	shr    $0x4,%ecx
    9651:	42                   	inc    %edx
    9652:	83 fa 04             	cmp    $0x4,%edx
    9655:	7e e8                	jle    963f <_prt16+0x16>
    9657:	ba 04 00 00 00       	mov    $0x4,%edx
    965c:	80 7d ec 30          	cmpb   $0x30,0xffffffec(%ebp)
    9660:	75 08                	jne    966a <_prt16+0x41>
    9662:	4a                   	dec    %edx
    9663:	80 7c 15 e8 30       	cmpb   $0x30,0xffffffe8(%ebp,%edx,1)
    9668:	74 f8                	je     9662 <_prt16+0x39>
    966a:	85 d2                	test   %edx,%edx
    966c:	75 02                	jne    9670 <_prt16+0x47>
    966e:	b2 01                	mov    $0x1,%dl
    9670:	85 d2                	test   %edx,%edx
    9672:	78 0f                	js     9683 <_prt16+0x5a>
    9674:	8d 4d f8             	lea    0xfffffff8(%ebp),%ecx
    9677:	8d 04 0a             	lea    (%edx,%ecx,1),%eax
    967a:	8a 40 f0             	mov    0xfffffff0(%eax),%al
    967d:	88 03                	mov    %al,(%ebx)
    967f:	43                   	inc    %ebx
    9680:	4a                   	dec    %edx
    9681:	79 f1                	jns    9674 <_prt16+0x4b>
    9683:	83 c4 14             	add    $0x14,%esp
    9686:	5b                   	pop    %ebx
    9687:	5d                   	pop    %ebp
    9688:	c3                   	ret    

00009689 <_prtl16>:
    9689:	55                   	push   %ebp
    968a:	89 e5                	mov    %esp,%ebp
    968c:	53                   	push   %ebx
    968d:	83 ec 14             	sub    $0x14,%esp
    9690:	8b 4d 08             	mov    0x8(%ebp),%ecx
    9693:	8b 5d 0c             	mov    0xc(%ebp),%ebx
    9696:	c6 45 e8 00          	movb   $0x0,0xffffffe8(%ebp)
    969a:	ba 01 00 00 00       	mov    $0x1,%edx
    969f:	89 c8                	mov    %ecx,%eax
    96a1:	83 e0 0f             	and    $0xf,%eax
    96a4:	8a 80 9c a9 00 00    	mov    0xa99c(%eax),%al
    96aa:	88 44 15 e8          	mov    %al,0xffffffe8(%ebp,%edx,1)
    96ae:	c1 f9 04             	sar    $0x4,%ecx
    96b1:	42                   	inc    %edx
    96b2:	83 fa 08             	cmp    $0x8,%edx
    96b5:	7e e8                	jle    969f <_prtl16+0x16>
    96b7:	ba 08 00 00 00       	mov    $0x8,%edx
    96bc:	80 7d f0 30          	cmpb   $0x30,0xfffffff0(%ebp)
    96c0:	75 08                	jne    96ca <_prtl16+0x41>
    96c2:	4a                   	dec    %edx
    96c3:	80 7c 15 e8 30       	cmpb   $0x30,0xffffffe8(%ebp,%edx,1)
    96c8:	74 f8                	je     96c2 <_prtl16+0x39>
    96ca:	85 d2                	test   %edx,%edx
    96cc:	75 02                	jne    96d0 <_prtl16+0x47>
    96ce:	b2 01                	mov    $0x1,%dl
    96d0:	85 d2                	test   %edx,%edx
    96d2:	78 0f                	js     96e3 <_prtl16+0x5a>
    96d4:	8d 4d f8             	lea    0xfffffff8(%ebp),%ecx
    96d7:	8d 04 0a             	lea    (%edx,%ecx,1),%eax
    96da:	8a 40 f0             	mov    0xfffffff0(%eax),%al
    96dd:	88 03                	mov    %al,(%ebx)
    96df:	43                   	inc    %ebx
    96e0:	4a                   	dec    %edx
    96e1:	79 f1                	jns    96d4 <_prtl16+0x4b>
    96e3:	83 c4 14             	add    $0x14,%esp
    96e6:	5b                   	pop    %ebx
    96e7:	5d                   	pop    %ebp
    96e8:	c3                   	ret    

000096e9 <_prt2>:
    96e9:	55                   	push   %ebp
    96ea:	89 e5                	mov    %esp,%ebp
    96ec:	53                   	push   %ebx
    96ed:	83 ec 24             	sub    $0x24,%esp
    96f0:	8b 4d 08             	mov    0x8(%ebp),%ecx
    96f3:	8b 5d 0c             	mov    0xc(%ebp),%ebx
    96f6:	c6 45 d8 00          	movb   $0x0,0xffffffd8(%ebp)
    96fa:	ba 01 00 00 00       	mov    $0x1,%edx
    96ff:	89 c8                	mov    %ecx,%eax
    9701:	83 e0 01             	and    $0x1,%eax
    9704:	83 f8 01             	cmp    $0x1,%eax
    9707:	19 c0                	sbb    %eax,%eax
    9709:	83 c0 31             	add    $0x31,%eax
    970c:	88 44 15 d8          	mov    %al,0xffffffd8(%ebp,%edx,1)
    9710:	d1 e9                	shr    %ecx
    9712:	42                   	inc    %edx
    9713:	83 fa 10             	cmp    $0x10,%edx
    9716:	7e e7                	jle    96ff <_prt2+0x16>
    9718:	ba 10 00 00 00       	mov    $0x10,%edx
    971d:	80 7d e8 30          	cmpb   $0x30,0xffffffe8(%ebp)
    9721:	75 08                	jne    972b <_prt2+0x42>
    9723:	4a                   	dec    %edx
    9724:	80 7c 15 d8 30       	cmpb   $0x30,0xffffffd8(%ebp,%edx,1)
    9729:	74 f8                	je     9723 <_prt2+0x3a>
    972b:	85 d2                	test   %edx,%edx
    972d:	75 02                	jne    9731 <_prt2+0x48>
    972f:	b2 01                	mov    $0x1,%dl
    9731:	85 d2                	test   %edx,%edx
    9733:	78 0f                	js     9744 <_prt2+0x5b>
    9735:	8d 4d f8             	lea    0xfffffff8(%ebp),%ecx
    9738:	8d 04 0a             	lea    (%edx,%ecx,1),%eax
    973b:	8a 40 e0             	mov    0xffffffe0(%eax),%al
    973e:	88 03                	mov    %al,(%ebx)
    9740:	43                   	inc    %ebx
    9741:	4a                   	dec    %edx
    9742:	79 f1                	jns    9735 <_prt2+0x4c>
    9744:	83 c4 24             	add    $0x24,%esp
    9747:	5b                   	pop    %ebx
    9748:	5d                   	pop    %ebp
    9749:	c3                   	ret    

0000974a <_prtl2>:
    974a:	55                   	push   %ebp
    974b:	89 e5                	mov    %esp,%ebp
    974d:	53                   	push   %ebx
    974e:	83 ec 34             	sub    $0x34,%esp
    9751:	8b 55 08             	mov    0x8(%ebp),%edx
    9754:	8b 5d 0c             	mov    0xc(%ebp),%ebx
    9757:	c6 45 c8 00          	movb   $0x0,0xffffffc8(%ebp)
    975b:	b9 01 00 00 00       	mov    $0x1,%ecx
    9760:	89 d0                	mov    %edx,%eax
    9762:	83 e0 01             	and    $0x1,%eax
    9765:	83 f8 01             	cmp    $0x1,%eax
    9768:	19 c0                	sbb    %eax,%eax
    976a:	83 c0 31             	add    $0x31,%eax
    976d:	88 44 0d c8          	mov    %al,0xffffffc8(%ebp,%ecx,1)
    9771:	d1 fa                	sar    %edx
    9773:	41                   	inc    %ecx
    9774:	83 f9 20             	cmp    $0x20,%ecx
    9777:	7e e7                	jle    9760 <_prtl2+0x16>
    9779:	b9 20 00 00 00       	mov    $0x20,%ecx
    977e:	80 7d e8 30          	cmpb   $0x30,0xffffffe8(%ebp)
    9782:	75 08                	jne    978c <_prtl2+0x42>
    9784:	49                   	dec    %ecx
    9785:	80 7c 0d c8 30       	cmpb   $0x30,0xffffffc8(%ebp,%ecx,1)
    978a:	74 f8                	je     9784 <_prtl2+0x3a>
    978c:	85 c9                	test   %ecx,%ecx
    978e:	75 02                	jne    9792 <_prtl2+0x48>
    9790:	b1 01                	mov    $0x1,%cl
    9792:	85 c9                	test   %ecx,%ecx
    9794:	78 0f                	js     97a5 <_prtl2+0x5b>
    9796:	8d 55 f8             	lea    0xfffffff8(%ebp),%edx
    9799:	8d 04 11             	lea    (%ecx,%edx,1),%eax
    979c:	8a 40 d0             	mov    0xffffffd0(%eax),%al
    979f:	88 03                	mov    %al,(%ebx)
    97a1:	43                   	inc    %ebx
    97a2:	49                   	dec    %ecx
    97a3:	79 f1                	jns    9796 <_prtl2+0x4c>
    97a5:	83 c4 34             	add    $0x34,%esp
    97a8:	5b                   	pop    %ebx
    97a9:	5d                   	pop    %ebp
    97aa:	c3                   	ret    
    97ab:	90                   	nop    

000097ac <sprintf>:
    97ac:	55                   	push   %ebp
    97ad:	89 e5                	mov    %esp,%ebp
    97af:	53                   	push   %ebx
    97b0:	83 ec 04             	sub    $0x4,%esp
    97b3:	8b 5d 08             	mov    0x8(%ebp),%ebx
    97b6:	89 5d f8             	mov    %ebx,0xfffffff8(%ebp)
    97b9:	8d 45 f8             	lea    0xfffffff8(%ebp),%eax
    97bc:	50                   	push   %eax
    97bd:	68 db 97 00 00       	push   $0x97db
    97c2:	8d 45 10             	lea    0x10(%ebp),%eax
    97c5:	50                   	push   %eax
    97c6:	ff 75 0c             	pushl  0xc(%ebp)
    97c9:	e8 d6 f8 ff ff       	call   90a4 <_doprnt>
    97ce:	8b 45 f8             	mov    0xfffffff8(%ebp),%eax
    97d1:	c6 00 00             	movb   $0x0,(%eax)
    97d4:	89 d8                	mov    %ebx,%eax
    97d6:	8b 5d fc             	mov    0xfffffffc(%ebp),%ebx
    97d9:	c9                   	leave  
    97da:	c3                   	ret    

000097db <sprntf>:
    97db:	55                   	push   %ebp
    97dc:	89 e5                	mov    %esp,%ebp
    97de:	8b 55 08             	mov    0x8(%ebp),%edx
    97e1:	8b 45 0c             	mov    0xc(%ebp),%eax
    97e4:	8b 0a                	mov    (%edx),%ecx
    97e6:	88 01                	mov    %al,(%ecx)
    97e8:	0f be c0             	movsbl %al,%eax
    97eb:	ff 02                	incl   (%edx)
    97ed:	5d                   	pop    %ebp
    97ee:	c3                   	ret    
    97ef:	90                   	nop    

000097f0 <strcmp>:
    97f0:	55                   	push   %ebp
    97f1:	89 e5                	mov    %esp,%ebp
    97f3:	8b 55 08             	mov    0x8(%ebp),%edx
    97f6:	8b 4d 0c             	mov    0xc(%ebp),%ecx
    97f9:	8a 01                	mov    (%ecx),%al
    97fb:	41                   	inc    %ecx
    97fc:	38 02                	cmp    %al,(%edx)
    97fe:	75 15                	jne    9815 <strcmp+0x25>
    9800:	8a 02                	mov    (%edx),%al
    9802:	42                   	inc    %edx
    9803:	84 c0                	test   %al,%al
    9805:	75 07                	jne    980e <strcmp+0x1e>
    9807:	b8 00 00 00 00       	mov    $0x0,%eax
    980c:	eb 12                	jmp    9820 <strcmp+0x30>
    980e:	8a 01                	mov    (%ecx),%al
    9810:	41                   	inc    %ecx
    9811:	38 02                	cmp    %al,(%edx)
    9813:	74 eb                	je     9800 <strcmp+0x10>
    9815:	0f be 12             	movsbl (%edx),%edx
    9818:	0f be 41 ff          	movsbl 0xffffffff(%ecx),%eax
    981c:	29 c2                	sub    %eax,%edx
    981e:	89 d0                	mov    %edx,%eax
    9820:	5d                   	pop    %ebp
    9821:	c3                   	ret    
    9822:	90                   	nop    
    9823:	90                   	nop    

00009824 <strcpy>:
    9824:	55                   	push   %ebp
    9825:	89 e5                	mov    %esp,%ebp
    9827:	53                   	push   %ebx
    9828:	8b 4d 08             	mov    0x8(%ebp),%ecx
    982b:	8b 55 0c             	mov    0xc(%ebp),%edx
    982e:	89 cb                	mov    %ecx,%ebx
    9830:	8a 02                	mov    (%edx),%al
    9832:	42                   	inc    %edx
    9833:	88 01                	mov    %al,(%ecx)
    9835:	41                   	inc    %ecx
    9836:	84 c0                	test   %al,%al
    9838:	75 f6                	jne    9830 <strcpy+0xc>
    983a:	89 d8                	mov    %ebx,%eax
    983c:	5b                   	pop    %ebx
    983d:	5d                   	pop    %ebp
    983e:	c3                   	ret    
    983f:	90                   	nop    

00009840 <strlen>:
    9840:	55                   	push   %ebp
    9841:	89 e5                	mov    %esp,%ebp
    9843:	8b 55 08             	mov    0x8(%ebp),%edx
    9846:	b9 00 00 00 00       	mov    $0x0,%ecx
    984b:	8a 02                	mov    (%edx),%al
    984d:	42                   	inc    %edx
    984e:	84 c0                	test   %al,%al
    9850:	74 08                	je     985a <strlen+0x1a>
    9852:	41                   	inc    %ecx
    9853:	8a 02                	mov    (%edx),%al
    9855:	42                   	inc    %edx
    9856:	84 c0                	test   %al,%al
    9858:	75 f8                	jne    9852 <strlen+0x12>
    985a:	89 c8                	mov    %ecx,%eax
    985c:	5d                   	pop    %ebp
    985d:	c3                   	ret    
