
xinu.elf:     file format elf32-i386

Disassembly of section .text:

00000000 <entry>:
       0:	be 00 00 10 00       	mov    $0x100000,%esi
       5:	bf 00 00 00 00       	mov    $0x0,%edi
       a:	b9 00 b0 04 00       	mov    $0x4b000,%ecx
       f:	fc                   	cld    
      10:	f3 a4                	repz movsb %ds:(%esi),%es:(%edi)
      12:	bc 00 a0 15 00       	mov    $0x15a000,%esp
      17:	68 1d 00 00 00       	push   $0x1d
      1c:	c3                   	ret    

0000001d <start>:
      1d:	89 e6                	mov    %esp,%esi
      1f:	bb 00 00 01 00       	mov    $0x10000,%ebx
      24:	b8 f4 9a 01 00       	mov    $0x19af4,%eax
      29:	2d 30 b6 00 00       	sub    $0xb630,%eax
      2e:	01 d8                	add    %ebx,%eax
      30:	50                   	push   %eax
      31:	68 30 b6 00 00       	push   $0xb630
      36:	e8 ab 00 00 00       	call   e6 <bzero>
      3b:	89 f0                	mov    %esi,%eax
      3d:	29 d8                	sub    %ebx,%eax
      3f:	83 eb 14             	sub    $0x14,%ebx
      42:	53                   	push   %ebx
      43:	50                   	push   %eax
      44:	e8 9d 00 00 00       	call   e6 <bzero>
      49:	89 f4                	mov    %esi,%esp
      4b:	6a 00                	push   $0x0
      4d:	9d                   	popf   
      4e:	89 e5                	mov    %esp,%ebp
      50:	e8 13 55 00 00       	call   5568 <setsegs>
      55:	0f 01 15 40 b0 00 00 	lgdtl  0xb040
      5c:	ea 63 00 00 00 08 00 	ljmp   $0x8,$0x63

00000063 <gdt1>:
      63:	b8 10 00 00 00       	mov    $0x10,%eax
      68:	8e d8                	mov    %eax,%ds
      6a:	8e c0                	mov    %eax,%es
      6c:	b8 18 00 00 00       	mov    $0x18,%eax
      71:	8e d0                	mov    %eax,%ss
      73:	8b 25 80 8f 01 00    	mov    0x18f80,%esp
      79:	89 e5                	mov    %esp,%ebp
      7b:	66 b8 28 00          	mov    $0x28,%ax
      7f:	0f 00 d8             	ltr    %ax
      82:	e8 c5 00 00 00       	call   14c <nulluser>
      87:	e8 19 07 00 00       	call   7a5 <halt>

0000008c <inb>:
      8c:	8b 54 24 04          	mov    0x4(%esp),%edx
      90:	31 c0                	xor    %eax,%eax
      92:	ec                   	in     (%dx),%al
      93:	c3                   	ret    

00000094 <inw>:
      94:	8b 54 24 04          	mov    0x4(%esp),%edx
      98:	31 c0                	xor    %eax,%eax
      9a:	66 ed                	in     (%dx),%ax
      9c:	c3                   	ret    

0000009d <inl>:
      9d:	8b 54 24 04          	mov    0x4(%esp),%edx
      a1:	31 c0                	xor    %eax,%eax
      a3:	ed                   	in     (%dx),%eax
      a4:	c3                   	ret    

000000a5 <outb>:
      a5:	8b 54 24 04          	mov    0x4(%esp),%edx
      a9:	8b 44 24 08          	mov    0x8(%esp),%eax
      ad:	ee                   	out    %al,(%dx)
      ae:	c3                   	ret    

000000af <outw>:
      af:	8b 54 24 04          	mov    0x4(%esp),%edx
      b3:	8b 44 24 08          	mov    0x8(%esp),%eax
      b7:	66 ef                	out    %ax,(%dx)
      b9:	c3                   	ret    

000000ba <outl>:
      ba:	8b 54 24 04          	mov    0x4(%esp),%edx
      be:	8b 44 24 08          	mov    0x8(%esp),%eax
      c2:	ef                   	out    %eax,(%dx)
      c3:	c3                   	ret    

000000c4 <_rtcin>:
      c4:	8b 44 24 04          	mov    0x4(%esp),%eax
      c8:	e6 70                	out    %al,$0x70
      ca:	29 c0                	sub    %eax,%eax
      cc:	e4 71                	in     $0x71,%al
      ce:	c3                   	ret    

000000cf <___udivsi3>:
      cf:	8b 44 24 04          	mov    0x4(%esp),%eax
      d3:	31 d2                	xor    %edx,%edx
      d5:	f7 74 24 08          	divl   0x8(%esp)
      d9:	c3                   	ret    

000000da <___divsi3>:
      da:	8b 44 24 04          	mov    0x4(%esp),%eax
      de:	31 d2                	xor    %edx,%edx
      e0:	99                   	cltd   
      e1:	f7 7c 24 08          	idivl  0x8(%esp)
      e5:	c3                   	ret    

000000e6 <bzero>:
      e6:	57                   	push   %edi
      e7:	8b 7c 24 08          	mov    0x8(%esp),%edi
      eb:	8b 4c 24 0c          	mov    0xc(%esp),%ecx
      ef:	b0 00                	mov    $0x0,%al
      f1:	fc                   	cld    
      f2:	f3 aa                	repz stos %al,%es:(%edi)
      f4:	5f                   	pop    %edi
      f5:	c3                   	ret    

000000f6 <bcopy>:
      f6:	56                   	push   %esi
      f7:	57                   	push   %edi
      f8:	8b 74 24 0c          	mov    0xc(%esp),%esi
      fc:	8b 7c 24 10          	mov    0x10(%esp),%edi

00000100 <L1>:
     100:	8b 4c 24 14          	mov    0x14(%esp),%ecx
     104:	fc                   	cld    
     105:	f3 a4                	repz movsb %ds:(%esi),%es:(%edi)
     107:	5f                   	pop    %edi
     108:	5e                   	pop    %esi
     109:	c3                   	ret    

0000010a <insw>:
     10a:	57                   	push   %edi
     10b:	66 8b 54 24 08       	mov    0x8(%esp),%dx
     110:	8b 7c 24 0c          	mov    0xc(%esp),%edi
     114:	8b 4c 24 10          	mov    0x10(%esp),%ecx
     118:	fc                   	cld    
     119:	66 f2 6d             	repnz insw (%dx),%es:(%edi)
     11c:	89 f8                	mov    %edi,%eax
     11e:	5f                   	pop    %edi
     11f:	c3                   	ret    

00000120 <outsw>:
     120:	56                   	push   %esi
     121:	66 8b 54 24 08       	mov    0x8(%esp),%dx
     126:	8b 74 24 0c          	mov    0xc(%esp),%esi
     12a:	8b 4c 24 10          	mov    0x10(%esp),%ecx
     12e:	fc                   	cld    
     12f:	66 f2 6f             	repnz outsw %ds:(%esi),(%dx)
     132:	89 f0                	mov    %esi,%eax
     134:	5e                   	pop    %esi
     135:	c3                   	ret    

00000136 <lidt>:
     136:	0f 01 1d c6 b1 00 00 	lidtl  0xb1c6
     13d:	c3                   	ret    

0000013e <jumptocode>:
     13e:	ea 00 00 10 00 20 00 	ljmp   $0x20,$0x100000

00000145 <jumptobootcode>:
     145:	ea 00 00 15 00 20 00 	ljmp   $0x20,$0x150000

0000014c <nulluser>:
     14c:	55                   	push   %ebp
     14d:	89 e5                	mov    %esp,%ebp
     14f:	83 ec 08             	sub    $0x8,%esp
     152:	c7 05 68 7f 01 00 01 	movl   $0x1,0x17f68
     159:	00 00 00 
     15c:	e8 3f 47 00 00       	call   48a0 <initevec>
     161:	83 ec 0c             	sub    $0xc,%esp
     164:	68 60 98 00 00       	push   $0x9860
     169:	e8 fa 58 00 00       	call   5a68 <kprintf>
     16e:	e8 e3 00 00 00       	call   256 <sysinit>
     173:	e8 33 06 00 00       	call   7ab <enable>
     178:	83 c4 0c             	add    $0xc,%esp
     17b:	68 f8 98 00 00       	push   $0x98f8
     180:	68 74 98 00 00       	push   $0x9874
     185:	68 e0 75 01 00       	push   $0x175e0
     18a:	e8 1d 96 00 00       	call   97ac <sprintf>
     18f:	83 c4 08             	add    $0x8,%esp
     192:	68 e0 75 01 00       	push   $0x175e0
     197:	68 7f 98 00 00       	push   $0x987f
     19c:	e8 c7 58 00 00       	call   5a68 <kprintf>
     1a1:	8b 15 40 b6 00 00    	mov    0xb640,%edx
     1a7:	8d 42 01             	lea    0x1(%edx),%eax
     1aa:	a3 40 b6 00 00       	mov    %eax,0xb640
     1af:	83 c4 10             	add    $0x10,%esp
     1b2:	85 d2                	test   %edx,%edx
     1b4:	7f 12                	jg     1c8 <nulluser+0x7c>
     1b6:	83 ec 0c             	sub    $0xc,%esp
     1b9:	68 6b a6 00 00       	push   $0xa66b
     1be:	e8 a5 58 00 00       	call   5a68 <kprintf>
     1c3:	83 c4 10             	add    $0x10,%esp
     1c6:	eb 16                	jmp    1de <nulluser+0x92>
     1c8:	83 ec 08             	sub    $0x8,%esp
     1cb:	ff 35 40 b6 00 00    	pushl  0xb640
     1d1:	68 85 98 00 00       	push   $0x9885
     1d6:	e8 8d 58 00 00       	call   5a68 <kprintf>
     1db:	83 c4 10             	add    $0x10,%esp
     1de:	83 ec 08             	sub    $0x8,%esp
     1e1:	a1 c4 75 01 00       	mov    0x175c4,%eax
     1e6:	40                   	inc    %eax
     1e7:	50                   	push   %eax
     1e8:	68 95 98 00 00       	push   $0x9895
     1ed:	e8 76 58 00 00       	call   5a68 <kprintf>
     1f2:	83 c4 08             	add    $0x8,%esp
     1f5:	b8 f4 9a 01 00       	mov    $0x19af4,%eax
     1fa:	2d 1d 00 00 00       	sub    $0x1d,%eax
     1ff:	50                   	push   %eax
     200:	68 a8 98 00 00       	push   $0x98a8
     205:	e8 5e 58 00 00       	call   5a68 <kprintf>
     20a:	83 c4 08             	add    $0x8,%esp
     20d:	b8 bc 98 00 00       	mov    $0x98bc,%eax
     212:	83 3d 78 8f 01 00 01 	cmpl   $0x1,0x18f78
     219:	74 05                	je     220 <nulluser+0xd4>
     21b:	b8 bf 98 00 00       	mov    $0x98bf,%eax
     220:	50                   	push   %eax
     221:	68 c3 98 00 00       	push   $0x98c3
     226:	e8 3d 58 00 00       	call   5a68 <kprintf>
     22b:	83 c4 08             	add    $0x8,%esp
     22e:	6a 00                	push   $0x0
     230:	6a 01                	push   $0x1
     232:	68 d2 98 00 00       	push   $0x98d2
     237:	6a 14                	push   $0x14
     239:	68 00 04 00 00       	push   $0x400
     23e:	68 5d 43 00 00       	push   $0x435d
     243:	e8 24 44 00 00       	call   466c <create>
     248:	83 c4 14             	add    $0x14,%esp
     24b:	50                   	push   %eax
     24c:	e8 53 5f 00 00       	call   61a4 <resume>
     251:	83 c4 10             	add    $0x10,%esp
     254:	eb fe                	jmp    254 <nulluser+0x108>

00000256 <sysinit>:
     256:	55                   	push   %ebp
     257:	89 e5                	mov    %esp,%ebp
     259:	56                   	push   %esi
     25a:	53                   	push   %ebx
     25b:	c7 05 e0 c8 00 00 00 	movl   $0x0,0xc8e0
     262:	00 00 00 
     265:	c7 05 c0 75 01 00 31 	movl   $0x31,0x175c0
     26c:	00 00 00 
     26f:	c7 05 a0 f5 00 00 63 	movl   $0x63,0xf5a0
     276:	00 00 00 
     279:	c7 05 a4 f5 00 00 32 	movl   $0x32,0xf5a4
     280:	00 00 00 
     283:	a1 c4 75 01 00       	mov    0x175c4,%eax
     288:	40                   	inc    %eax
     289:	3d 00 00 0a 00       	cmp    $0xa0000,%eax
     28e:	76 47                	jbe    2d7 <sysinit+0x81>
     290:	b8 fb 9a 01 00       	mov    $0x19afb,%eax
     295:	89 c2                	mov    %eax,%edx
     297:	83 e2 f8             	and    $0xfffffff8,%edx
     29a:	89 15 68 8b 01 00    	mov    %edx,0x18b68
     2a0:	c7 02 00 60 19 00    	movl   $0x196000,(%edx)
     2a6:	b8 00 00 0a 00       	mov    $0xa0000,%eax
     2ab:	2d f4 9a 01 00       	sub    $0x19af4,%eax
     2b0:	83 e0 fc             	and    $0xfffffffc,%eax
     2b3:	83 e8 04             	sub    $0x4,%eax
     2b6:	89 42 04             	mov    %eax,0x4(%edx)
     2b9:	c7 05 00 60 19 00 00 	movl   $0x0,0x196000
     2c0:	00 00 00 
     2c3:	a1 c4 75 01 00       	mov    0x175c4,%eax
     2c8:	2d 00 70 19 00       	sub    $0x197000,%eax
     2cd:	83 e0 fc             	and    $0xfffffffc,%eax
     2d0:	a3 04 60 19 00       	mov    %eax,0x196004
     2d5:	eb 26                	jmp    2fd <sysinit+0xa7>
     2d7:	b8 fb 9a 01 00       	mov    $0x19afb,%eax
     2dc:	89 c2                	mov    %eax,%edx
     2de:	83 e2 f8             	and    $0xfffffff8,%edx
     2e1:	89 15 68 8b 01 00    	mov    %edx,0x18b68
     2e7:	c7 02 00 00 00 00    	movl   $0x0,(%edx)
     2ed:	a1 c4 75 01 00       	mov    0x175c4,%eax
     2f2:	2d f4 aa 01 00       	sub    $0x1aaf4,%eax
     2f7:	83 e0 fc             	and    $0xfffffffc,%eax
     2fa:	89 42 04             	mov    %eax,0x4(%edx)
     2fd:	e8 4a 7a 00 00       	call   7d4c <init_bsm>
     302:	e8 51 80 00 00       	call   8358 <init_frm>
     307:	e8 3c 7d 00 00       	call   8048 <init_pt>
     30c:	ba ff ff ff ff       	mov    $0xffffffff,%edx
     311:	83 f8 ff             	cmp    $0xffffffff,%eax
     314:	0f 84 21 01 00 00    	je     43b <sysinit+0x1e5>
     31a:	e8 17 7e 00 00       	call   8136 <init_pd>
     31f:	ba ff ff ff ff       	mov    $0xffffffff,%edx
     324:	85 c0                	test   %eax,%eax
     326:	0f 84 0f 01 00 00    	je     43b <sysinit+0x1e5>
     32c:	89 c3                	mov    %eax,%ebx
     32e:	81 e3 00 f0 ff ff    	and    $0xfffff000,%ebx
     334:	83 ec 0c             	sub    $0xc,%esp
     337:	53                   	push   %ebx
     338:	e8 95 79 00 00       	call   7cd2 <write_cr3>
     33d:	83 c4 08             	add    $0x8,%esp
     340:	68 98 08 00 00       	push   $0x898
     345:	6a 0e                	push   $0xe
     347:	e8 96 45 00 00       	call   48e2 <set_evec>
     34c:	e8 dd 79 00 00       	call   7d2e <enable_paging>
     351:	be 00 00 00 00       	mov    $0x0,%esi
     356:	83 c4 10             	add    $0x10,%esp
     359:	8d 04 76             	lea    (%esi,%esi,2),%eax
     35c:	c1 e0 04             	shl    $0x4,%eax
     35f:	01 f0                	add    %esi,%eax
     361:	c6 04 85 00 c9 00 00 	movb   $0x2,0xc900(,%eax,4)
     368:	02 
     369:	46                   	inc    %esi
     36a:	83 fe 31             	cmp    $0x31,%esi
     36d:	7e ea                	jle    359 <sysinit+0x103>
     36f:	e8 58 57 00 00       	call   5acc <_mkinit>
     374:	e8 fb 41 00 00       	call   4574 <clkinit>
     379:	e8 16 18 00 00       	call   1b94 <mon_init>
     37e:	be 00 00 00 00       	mov    $0x0,%esi
     383:	83 ec 0c             	sub    $0xc,%esp
     386:	56                   	push   %esi
     387:	e8 60 54 00 00       	call   57ec <init_dev>
     38c:	83 c4 10             	add    $0x10,%esp
     38f:	46                   	inc    %esi
     390:	83 fe 05             	cmp    $0x5,%esi
     393:	7e ee                	jle    383 <sysinit+0x12d>
     395:	b9 00 c9 00 00       	mov    $0xc900,%ecx
     39a:	c6 05 00 c9 00 00 01 	movb   $0x1,0xc900
     3a1:	ba 00 00 00 00       	mov    $0x0,%edx
     3a6:	8a 82 d7 98 00 00    	mov    0x98d7(%edx),%al
     3ac:	88 44 0a 28          	mov    %al,0x28(%edx,%ecx,1)
     3b0:	42                   	inc    %edx
     3b1:	83 fa 06             	cmp    $0x6,%edx
     3b4:	7e f0                	jle    3a6 <sysinit+0x150>
     3b6:	8b 15 c4 75 01 00    	mov    0x175c4,%edx
     3bc:	8d 82 01 f0 ff ff    	lea    0xfffff001(%edx),%eax
     3c2:	89 41 24             	mov    %eax,0x24(%ecx)
     3c5:	8d 42 fd             	lea    0xfffffffd(%edx),%eax
     3c8:	89 41 1c             	mov    %eax,0x1c(%ecx)
     3cb:	8d 42 f9             	lea    0xfffffff9(%edx),%eax
     3ce:	89 41 08             	mov    %eax,0x8(%ecx)
     3d1:	c7 42 fd a9 aa 00 00 	movl   $0xaaa9,0xfffffffd(%edx)
     3d8:	c7 41 3c 4c 01 00 00 	movl   $0x14c,0x3c(%ecx)
     3df:	c7 41 38 00 00 00 00 	movl   $0x0,0x38(%ecx)
     3e6:	c7 41 04 00 00 00 00 	movl   $0x0,0x4(%ecx)
     3ed:	89 99 b0 00 00 00    	mov    %ebx,0xb0(%ecx)
     3f3:	c7 05 e4 c8 00 00 00 	movl   $0x0,0xc8e4
     3fa:	00 00 00 
     3fd:	be 00 00 00 00       	mov    $0x0,%esi
     402:	89 f0                	mov    %esi,%eax
     404:	c1 e0 04             	shl    $0x4,%eax
     407:	8d 98 60 ef 00 00    	lea    0xef60(%eax),%ebx
     40d:	c6 80 60 ef 00 00 01 	movb   $0x1,0xef60(%eax)
     414:	e8 67 58 00 00       	call   5c80 <newqueue>
     419:	89 43 08             	mov    %eax,0x8(%ebx)
     41c:	40                   	inc    %eax
     41d:	89 43 0c             	mov    %eax,0xc(%ebx)
     420:	46                   	inc    %esi
     421:	83 fe 63             	cmp    $0x63,%esi
     424:	7e dc                	jle    402 <sysinit+0x1ac>
     426:	e8 55 58 00 00       	call   5c80 <newqueue>
     42b:	a3 64 7f 01 00       	mov    %eax,0x17f64
     430:	40                   	inc    %eax
     431:	a3 60 7f 01 00       	mov    %eax,0x17f60
     436:	ba 01 00 00 00       	mov    $0x1,%edx
     43b:	89 d0                	mov    %edx,%eax
     43d:	8d 65 f8             	lea    0xfffffff8(%ebp),%esp
     440:	5b                   	pop    %ebx
     441:	5e                   	pop    %esi
     442:	5d                   	pop    %ebp
     443:	c3                   	ret    

00000444 <stop>:
     444:	55                   	push   %ebp
     445:	89 e5                	mov    %esp,%ebp
     447:	83 ec 10             	sub    $0x10,%esp
     44a:	ff 75 08             	pushl  0x8(%ebp)
     44d:	68 81 98 00 00       	push   $0x9881
     452:	e8 11 56 00 00       	call   5a68 <kprintf>
     457:	c7 04 24 de 98 00 00 	movl   $0x98de,(%esp)
     45e:	e8 05 56 00 00       	call   5a68 <kprintf>
     463:	83 c4 10             	add    $0x10,%esp
     466:	eb fe                	jmp    466 <stop+0x22>

00000468 <delay>:
     468:	55                   	push   %ebp
     469:	89 e5                	mov    %esp,%ebp
     46b:	56                   	push   %esi
     46c:	53                   	push   %ebx
     46d:	be 00 00 00 00       	mov    $0x0,%esi
     472:	8b 45 08             	mov    0x8(%ebp),%eax
     475:	89 c3                	mov    %eax,%ebx
     477:	c1 e3 04             	shl    $0x4,%ebx
     47a:	a1 cc b1 00 00       	mov    0xb1cc,%eax
     47f:	89 da                	mov    %ebx,%edx
     481:	88 c1                	mov    %al,%cl
     483:	d3 fa                	sar    %cl,%edx
     485:	4a                   	dec    %edx
     486:	85 d2                	test   %edx,%edx
     488:	7f fb                	jg     485 <delay+0x1d>
     48a:	46                   	inc    %esi
     48b:	83 fe 04             	cmp    $0x4,%esi
     48e:	7e ef                	jle    47f <delay+0x17>
     490:	5b                   	pop    %ebx
     491:	5e                   	pop    %esi
     492:	5d                   	pop    %ebp
     493:	c3                   	ret    

00000494 <sizmem>:
     494:	55                   	push   %ebp
     495:	89 e5                	mov    %esp,%ebp
     497:	b8 00 10 00 00       	mov    $0x1000,%eax
     49c:	5d                   	pop    %ebp
     49d:	c3                   	ret    
     49e:	90                   	nop    
     49f:	90                   	nop    

000004a0 <Xtrap>:
     4a0:	e8 8e 44 00 00       	call   4933 <trap>
     4a5:	b0 20                	mov    $0x20,%al
     4a7:	e6 20                	out    %al,$0x20
     4a9:	58                   	pop    %eax
     4aa:	a9 23 00 00 00       	test   $0x23,%eax
     4af:	72 2f                	jb     4e0 <Xtrap+0x40>
     4b1:	c1 e8 05             	shr    $0x5,%eax
     4b4:	a9 07 00 00 00       	test   $0x7,%eax
     4b9:	77 09                	ja     4c4 <Xtrap+0x24>
     4bb:	0d f0 02 00 00       	or     $0x2f0,%eax
     4c0:	88 18                	mov    %bl,(%eax)
     4c2:	eb 1c                	jmp    4e0 <Xtrap+0x40>
     4c4:	a9 09 00 00 00       	test   $0x9,%eax
     4c9:	74 10                	je     4db <Xtrap+0x3b>
     4cb:	a9 0f 00 00 00       	test   $0xf,%eax
     4d0:	77 0e                	ja     4e0 <Xtrap+0x40>
     4d2:	0d f0 06 00 00       	or     $0x6f0,%eax
     4d7:	88 18                	mov    %bl,(%eax)
     4d9:	eb 05                	jmp    4e0 <Xtrap+0x40>
     4db:	a2 f2 02 00 00       	mov    %al,0x2f2
     4e0:	61                   	popa   
     4e1:	c9                   	leave  
     4e2:	cf                   	iret   

000004e3 <_Xint0>:
     4e3:	55                   	push   %ebp
     4e4:	89 e5                	mov    %esp,%ebp
     4e6:	60                   	pusha  
     4e7:	6a 00                	push   $0x0
     4e9:	eb b5                	jmp    4a0 <Xtrap>

000004eb <_Xint1>:
     4eb:	55                   	push   %ebp
     4ec:	89 e5                	mov    %esp,%ebp
     4ee:	60                   	pusha  
     4ef:	6a 01                	push   $0x1
     4f1:	eb ad                	jmp    4a0 <Xtrap>

000004f3 <_Xint2>:
     4f3:	55                   	push   %ebp
     4f4:	89 e5                	mov    %esp,%ebp
     4f6:	60                   	pusha  
     4f7:	6a 02                	push   $0x2
     4f9:	eb a5                	jmp    4a0 <Xtrap>

000004fb <_Xint3>:
     4fb:	55                   	push   %ebp
     4fc:	89 e5                	mov    %esp,%ebp
     4fe:	60                   	pusha  
     4ff:	6a 03                	push   $0x3
     501:	eb 9d                	jmp    4a0 <Xtrap>

00000503 <_Xint4>:
     503:	55                   	push   %ebp
     504:	89 e5                	mov    %esp,%ebp
     506:	60                   	pusha  
     507:	6a 04                	push   $0x4
     509:	eb 95                	jmp    4a0 <Xtrap>

0000050b <_Xint5>:
     50b:	55                   	push   %ebp
     50c:	89 e5                	mov    %esp,%ebp
     50e:	60                   	pusha  
     50f:	6a 05                	push   $0x5
     511:	eb 8d                	jmp    4a0 <Xtrap>

00000513 <_Xint6>:
     513:	55                   	push   %ebp
     514:	89 e5                	mov    %esp,%ebp
     516:	60                   	pusha  
     517:	6a 06                	push   $0x6
     519:	eb 85                	jmp    4a0 <Xtrap>

0000051b <_Xint7>:
     51b:	55                   	push   %ebp
     51c:	89 e5                	mov    %esp,%ebp
     51e:	60                   	pusha  
     51f:	6a 07                	push   $0x7
     521:	e9 7a ff ff ff       	jmp    4a0 <Xtrap>

00000526 <_Xint8>:
     526:	55                   	push   %ebp
     527:	89 e5                	mov    %esp,%ebp
     529:	60                   	pusha  
     52a:	6a 08                	push   $0x8
     52c:	e9 6f ff ff ff       	jmp    4a0 <Xtrap>

00000531 <_Xint9>:
     531:	55                   	push   %ebp
     532:	89 e5                	mov    %esp,%ebp
     534:	60                   	pusha  
     535:	6a 09                	push   $0x9
     537:	e9 64 ff ff ff       	jmp    4a0 <Xtrap>

0000053c <_Xint10>:
     53c:	55                   	push   %ebp
     53d:	89 e5                	mov    %esp,%ebp
     53f:	60                   	pusha  
     540:	6a 0a                	push   $0xa
     542:	e9 59 ff ff ff       	jmp    4a0 <Xtrap>

00000547 <_Xint11>:
     547:	55                   	push   %ebp
     548:	89 e5                	mov    %esp,%ebp
     54a:	60                   	pusha  
     54b:	6a 0b                	push   $0xb
     54d:	e9 4e ff ff ff       	jmp    4a0 <Xtrap>

00000552 <_Xint12>:
     552:	55                   	push   %ebp
     553:	89 e5                	mov    %esp,%ebp
     555:	60                   	pusha  
     556:	6a 0c                	push   $0xc
     558:	e9 43 ff ff ff       	jmp    4a0 <Xtrap>

0000055d <_Xint13>:
     55d:	55                   	push   %ebp
     55e:	89 e5                	mov    %esp,%ebp
     560:	60                   	pusha  
     561:	6a 0d                	push   $0xd
     563:	e9 38 ff ff ff       	jmp    4a0 <Xtrap>

00000568 <_Xint14>:
     568:	55                   	push   %ebp
     569:	89 e5                	mov    %esp,%ebp
     56b:	60                   	pusha  
     56c:	6a 0e                	push   $0xe
     56e:	e9 2d ff ff ff       	jmp    4a0 <Xtrap>

00000573 <_Xint15>:
     573:	55                   	push   %ebp
     574:	89 e5                	mov    %esp,%ebp
     576:	60                   	pusha  
     577:	6a 0f                	push   $0xf
     579:	e9 22 ff ff ff       	jmp    4a0 <Xtrap>

0000057e <_Xint16>:
     57e:	55                   	push   %ebp
     57f:	89 e5                	mov    %esp,%ebp
     581:	60                   	pusha  
     582:	6a 10                	push   $0x10
     584:	e9 17 ff ff ff       	jmp    4a0 <Xtrap>

00000589 <_Xint17>:
     589:	55                   	push   %ebp
     58a:	89 e5                	mov    %esp,%ebp
     58c:	60                   	pusha  
     58d:	6a 11                	push   $0x11
     58f:	e9 0c ff ff ff       	jmp    4a0 <Xtrap>

00000594 <_Xint18>:
     594:	55                   	push   %ebp
     595:	89 e5                	mov    %esp,%ebp
     597:	60                   	pusha  
     598:	6a 12                	push   $0x12
     59a:	e9 01 ff ff ff       	jmp    4a0 <Xtrap>

0000059f <_Xint19>:
     59f:	55                   	push   %ebp
     5a0:	89 e5                	mov    %esp,%ebp
     5a2:	60                   	pusha  
     5a3:	6a 13                	push   $0x13
     5a5:	e9 f6 fe ff ff       	jmp    4a0 <Xtrap>

000005aa <_Xint20>:
     5aa:	55                   	push   %ebp
     5ab:	89 e5                	mov    %esp,%ebp
     5ad:	60                   	pusha  
     5ae:	6a 01                	push   $0x1
     5b0:	e9 eb fe ff ff       	jmp    4a0 <Xtrap>

000005b5 <_Xint21>:
     5b5:	55                   	push   %ebp
     5b6:	89 e5                	mov    %esp,%ebp
     5b8:	60                   	pusha  
     5b9:	6a 15                	push   $0x15
     5bb:	e9 e0 fe ff ff       	jmp    4a0 <Xtrap>

000005c0 <_Xint22>:
     5c0:	55                   	push   %ebp
     5c1:	89 e5                	mov    %esp,%ebp
     5c3:	60                   	pusha  
     5c4:	6a 16                	push   $0x16
     5c6:	e9 d5 fe ff ff       	jmp    4a0 <Xtrap>

000005cb <_Xint23>:
     5cb:	55                   	push   %ebp
     5cc:	89 e5                	mov    %esp,%ebp
     5ce:	60                   	pusha  
     5cf:	6a 17                	push   $0x17
     5d1:	e9 ca fe ff ff       	jmp    4a0 <Xtrap>

000005d6 <_Xint24>:
     5d6:	55                   	push   %ebp
     5d7:	89 e5                	mov    %esp,%ebp
     5d9:	60                   	pusha  
     5da:	6a 18                	push   $0x18
     5dc:	e9 bf fe ff ff       	jmp    4a0 <Xtrap>

000005e1 <_Xint25>:
     5e1:	55                   	push   %ebp
     5e2:	89 e5                	mov    %esp,%ebp
     5e4:	60                   	pusha  
     5e5:	6a 19                	push   $0x19
     5e7:	e9 b4 fe ff ff       	jmp    4a0 <Xtrap>

000005ec <_Xint26>:
     5ec:	55                   	push   %ebp
     5ed:	89 e5                	mov    %esp,%ebp
     5ef:	60                   	pusha  
     5f0:	6a 1a                	push   $0x1a
     5f2:	e9 a9 fe ff ff       	jmp    4a0 <Xtrap>

000005f7 <_Xint27>:
     5f7:	55                   	push   %ebp
     5f8:	89 e5                	mov    %esp,%ebp
     5fa:	60                   	pusha  
     5fb:	6a 1b                	push   $0x1b
     5fd:	e9 9e fe ff ff       	jmp    4a0 <Xtrap>

00000602 <_Xint28>:
     602:	55                   	push   %ebp
     603:	89 e5                	mov    %esp,%ebp
     605:	60                   	pusha  
     606:	6a 1c                	push   $0x1c
     608:	e9 93 fe ff ff       	jmp    4a0 <Xtrap>

0000060d <_Xint29>:
     60d:	55                   	push   %ebp
     60e:	89 e5                	mov    %esp,%ebp
     610:	60                   	pusha  
     611:	6a 1d                	push   $0x1d
     613:	e9 88 fe ff ff       	jmp    4a0 <Xtrap>

00000618 <_Xint30>:
     618:	55                   	push   %ebp
     619:	89 e5                	mov    %esp,%ebp
     61b:	60                   	pusha  
     61c:	6a 1e                	push   $0x1e
     61e:	e9 7d fe ff ff       	jmp    4a0 <Xtrap>

00000623 <_Xint31>:
     623:	55                   	push   %ebp
     624:	89 e5                	mov    %esp,%ebp
     626:	60                   	pusha  
     627:	6a 1f                	push   $0x1f
     629:	e9 72 fe ff ff       	jmp    4a0 <Xtrap>

0000062e <_Xint32>:
     62e:	55                   	push   %ebp
     62f:	89 e5                	mov    %esp,%ebp
     631:	60                   	pusha  
     632:	6a 20                	push   $0x20
     634:	e9 67 fe ff ff       	jmp    4a0 <Xtrap>

00000639 <_Xint33>:
     639:	55                   	push   %ebp
     63a:	89 e5                	mov    %esp,%ebp
     63c:	60                   	pusha  
     63d:	6a 21                	push   $0x21
     63f:	e9 5c fe ff ff       	jmp    4a0 <Xtrap>

00000644 <_Xint34>:
     644:	55                   	push   %ebp
     645:	89 e5                	mov    %esp,%ebp
     647:	60                   	pusha  
     648:	6a 22                	push   $0x22
     64a:	e9 51 fe ff ff       	jmp    4a0 <Xtrap>

0000064f <_Xint35>:
     64f:	55                   	push   %ebp
     650:	89 e5                	mov    %esp,%ebp
     652:	60                   	pusha  
     653:	6a 23                	push   $0x23
     655:	e9 46 fe ff ff       	jmp    4a0 <Xtrap>

0000065a <_Xint36>:
     65a:	55                   	push   %ebp
     65b:	89 e5                	mov    %esp,%ebp
     65d:	60                   	pusha  
     65e:	6a 24                	push   $0x24
     660:	e9 3b fe ff ff       	jmp    4a0 <Xtrap>

00000665 <_Xint37>:
     665:	55                   	push   %ebp
     666:	89 e5                	mov    %esp,%ebp
     668:	60                   	pusha  
     669:	6a 25                	push   $0x25
     66b:	e9 30 fe ff ff       	jmp    4a0 <Xtrap>

00000670 <_Xint38>:
     670:	55                   	push   %ebp
     671:	89 e5                	mov    %esp,%ebp
     673:	60                   	pusha  
     674:	6a 26                	push   $0x26
     676:	e9 25 fe ff ff       	jmp    4a0 <Xtrap>

0000067b <_Xint39>:
     67b:	55                   	push   %ebp
     67c:	89 e5                	mov    %esp,%ebp
     67e:	60                   	pusha  
     67f:	6a 27                	push   $0x27
     681:	e9 1a fe ff ff       	jmp    4a0 <Xtrap>

00000686 <_Xint40>:
     686:	55                   	push   %ebp
     687:	89 e5                	mov    %esp,%ebp
     689:	60                   	pusha  
     68a:	6a 28                	push   $0x28
     68c:	e9 0f fe ff ff       	jmp    4a0 <Xtrap>

00000691 <_Xint41>:
     691:	55                   	push   %ebp
     692:	89 e5                	mov    %esp,%ebp
     694:	60                   	pusha  
     695:	6a 29                	push   $0x29
     697:	e9 04 fe ff ff       	jmp    4a0 <Xtrap>

0000069c <_Xint42>:
     69c:	55                   	push   %ebp
     69d:	89 e5                	mov    %esp,%ebp
     69f:	60                   	pusha  
     6a0:	6a 2a                	push   $0x2a
     6a2:	e9 f9 fd ff ff       	jmp    4a0 <Xtrap>

000006a7 <_Xint43>:
     6a7:	55                   	push   %ebp
     6a8:	89 e5                	mov    %esp,%ebp
     6aa:	60                   	pusha  
     6ab:	6a 2b                	push   $0x2b
     6ad:	e9 ee fd ff ff       	jmp    4a0 <Xtrap>

000006b2 <_Xint44>:
     6b2:	55                   	push   %ebp
     6b3:	89 e5                	mov    %esp,%ebp
     6b5:	60                   	pusha  
     6b6:	6a 2c                	push   $0x2c
     6b8:	e9 e3 fd ff ff       	jmp    4a0 <Xtrap>

000006bd <_Xint45>:
     6bd:	55                   	push   %ebp
     6be:	89 e5                	mov    %esp,%ebp
     6c0:	60                   	pusha  
     6c1:	6a 2d                	push   $0x2d
     6c3:	e9 d8 fd ff ff       	jmp    4a0 <Xtrap>

000006c8 <_Xint46>:
     6c8:	55                   	push   %ebp
     6c9:	89 e5                	mov    %esp,%ebp
     6cb:	60                   	pusha  
     6cc:	6a 2e                	push   $0x2e
     6ce:	e9 cd fd ff ff       	jmp    4a0 <Xtrap>

000006d3 <_Xint47>:
     6d3:	55                   	push   %ebp
     6d4:	89 e5                	mov    %esp,%ebp
     6d6:	60                   	pusha  
     6d7:	6a 2f                	push   $0x2f
     6d9:	e9 c2 fd ff ff       	jmp    4a0 <Xtrap>

000006de <defevec>:
     6de:	e3 04                	jecxz  6e4 <defevec+0x6>
     6e0:	00 00                	add    %al,(%eax)
     6e2:	eb 04                	jmp    6e8 <defevec+0xa>
     6e4:	00 00                	add    %al,(%eax)
     6e6:	f3 04 00             	repz add $0x0,%al
     6e9:	00 fb                	add    %bh,%bl
     6eb:	04 00                	add    $0x0,%al
     6ed:	00 03                	add    %al,(%ebx)
     6ef:	05 00 00 0b 05       	add    $0x50b0000,%eax
     6f4:	00 00                	add    %al,(%eax)
     6f6:	13 05 00 00 1b 05    	adc    0x51b0000,%eax
     6fc:	00 00                	add    %al,(%eax)
     6fe:	26                   	es
     6ff:	05 00 00 31 05       	add    $0x5310000,%eax
     704:	00 00                	add    %al,(%eax)
     706:	3c 05                	cmp    $0x5,%al
     708:	00 00                	add    %al,(%eax)
     70a:	47                   	inc    %edi
     70b:	05 00 00 52 05       	add    $0x5520000,%eax
     710:	00 00                	add    %al,(%eax)
     712:	5d                   	pop    %ebp
     713:	05 00 00 68 05       	add    $0x5680000,%eax
     718:	00 00                	add    %al,(%eax)
     71a:	73 05                	jae    721 <defevec+0x43>
     71c:	00 00                	add    %al,(%eax)
     71e:	7e 05                	jle    725 <defevec+0x47>
     720:	00 00                	add    %al,(%eax)
     722:	89 05 00 00 94 05    	mov    %eax,0x5940000
     728:	00 00                	add    %al,(%eax)
     72a:	9f                   	lahf   
     72b:	05 00 00 aa 05       	add    $0x5aa0000,%eax
     730:	00 00                	add    %al,(%eax)
     732:	b5 05                	mov    $0x5,%ch
     734:	00 00                	add    %al,(%eax)
     736:	c0 05 00 00 cb 05 00 	rolb   $0x0,0x5cb0000
     73d:	00 d6                	add    %dl,%dh
     73f:	05 00 00 e1 05       	add    $0x5e10000,%eax
     744:	00 00                	add    %al,(%eax)
     746:	ec                   	in     (%dx),%al
     747:	05 00 00 f7 05       	add    $0x5f70000,%eax
     74c:	00 00                	add    %al,(%eax)
     74e:	02 06                	add    (%esi),%al
     750:	00 00                	add    %al,(%eax)
     752:	0d 06 00 00 18       	or     $0x18000006,%eax
     757:	06                   	push   %es
     758:	00 00                	add    %al,(%eax)
     75a:	23 06                	and    (%esi),%eax
     75c:	00 00                	add    %al,(%eax)
     75e:	2e                   	cs
     75f:	06                   	push   %es
     760:	00 00                	add    %al,(%eax)
     762:	39 06                	cmp    %eax,(%esi)
     764:	00 00                	add    %al,(%eax)
     766:	44                   	inc    %esp
     767:	06                   	push   %es
     768:	00 00                	add    %al,(%eax)
     76a:	4f                   	dec    %edi
     76b:	06                   	push   %es
     76c:	00 00                	add    %al,(%eax)
     76e:	5a                   	pop    %edx
     76f:	06                   	push   %es
     770:	00 00                	add    %al,(%eax)
     772:	65                   	gs
     773:	06                   	push   %es
     774:	00 00                	add    %al,(%eax)
     776:	70 06                	jo     77e <defevec+0xa0>
     778:	00 00                	add    %al,(%eax)
     77a:	7b 06                	jnp    782 <defevec+0xa4>
     77c:	00 00                	add    %al,(%eax)
     77e:	86 06                	xchg   %al,(%esi)
     780:	00 00                	add    %al,(%eax)
     782:	91                   	xchg   %eax,%ecx
     783:	06                   	push   %es
     784:	00 00                	add    %al,(%eax)
     786:	9c                   	pushf  
     787:	06                   	push   %es
     788:	00 00                	add    %al,(%eax)
     78a:	a7                   	cmpsl  %es:(%edi),%ds:(%esi)
     78b:	06                   	push   %es
     78c:	00 00                	add    %al,(%eax)
     78e:	b2 06                	mov    $0x6,%dl
     790:	00 00                	add    %al,(%eax)
     792:	bd 06 00 00 c8       	mov    $0xc8000006,%ebp
     797:	06                   	push   %es
     798:	00 00                	add    %al,(%eax)
     79a:	d3 06                	roll   %cl,(%esi)
	...

0000079e <pause>:
     79e:	e8 08 00 00 00       	call   7ab <enable>
     7a3:	f4                   	hlt    
     7a4:	c3                   	ret    

000007a5 <halt>:
     7a5:	e9 fb ff ff ff       	jmp    7a5 <halt>
     7aa:	c3                   	ret    

000007ab <enable>:
     7ab:	fa                   	cli    
     7ac:	66 a1 7c 8f 01 00    	mov    0x18f7c,%ax
     7b2:	e6 21                	out    %al,$0x21
     7b4:	66 c1 e8 08          	shr    $0x8,%ax
     7b8:	e6 a1                	out    %al,$0xa1
     7ba:	fb                   	sti    
     7bb:	c3                   	ret    

000007bc <disable>:
     7bc:	fa                   	cli    
     7bd:	9c                   	pushf  
     7be:	e4 a1                	in     $0xa1,%al
     7c0:	66 c1 e0 08          	shl    $0x8,%ax
     7c4:	e4 21                	in     $0x21,%al
     7c6:	66 f7 d0             	not    %ax
     7c9:	66 0b 05 7c 8f 01 00 	or     0x18f7c,%ax
     7d0:	66 f7 d0             	not    %ax
     7d3:	8b 54 24 08          	mov    0x8(%esp),%edx
     7d7:	66 89 02             	mov    %ax,(%edx)
     7da:	b0 ff                	mov    $0xff,%al
     7dc:	e6 a1                	out    %al,$0xa1
     7de:	b0 ff                	mov    $0xff,%al
     7e0:	e6 21                	out    %al,$0x21
     7e2:	9d                   	popf   
     7e3:	c3                   	ret    

000007e4 <restore>:
     7e4:	fa                   	cli    
     7e5:	9c                   	pushf  
     7e6:	8b 54 24 08          	mov    0x8(%esp),%edx
     7ea:	66 8b 02             	mov    (%edx),%ax
     7ed:	66 0b 05 7c 8f 01 00 	or     0x18f7c,%ax
     7f4:	e6 21                	out    %al,$0x21
     7f6:	66 c1 e8 08          	shr    $0x8,%ax
     7fa:	e6 a1                	out    %al,$0xa1
     7fc:	9d                   	popf   
     7fd:	fb                   	sti    
     7fe:	c3                   	ret    

000007ff <getirmask>:
     7ff:	e4 a1                	in     $0xa1,%al
     801:	66 c1 e0 08          	shl    $0x8,%ax
     805:	e4 21                	in     $0x21,%al
     807:	8b 54 24 04          	mov    0x4(%esp),%edx
     80b:	66 89 02             	mov    %ax,(%edx)
     80e:	c3                   	ret    
     80f:	90                   	nop    

00000810 <count1000>:
     810:	e8 03 fa 60 b0       	call   b0610218 <_end+0xb05f6724>

00000812 <clkint>:
     812:	fa                   	cli    
     813:	60                   	pusha  
     814:	b0 20                	mov    $0x20,%al
     816:	e6 20                	out    %al,$0x20
     818:	ff 05 64 8f 01 00    	incl   0x18f64
     81e:	66 83 2d 10 08 00 00 	subw   $0x1,0x810
     825:	01 
     826:	77 0f                	ja     837 <cl1>
     828:	ff 05 04 ba 00 00    	incl   0xba04
     82e:	66 c7 05 10 08 00 00 	movw   $0x3e8,0x810
     835:	e8 03 

00000837 <cl1>:
     837:	83 3d 68 8f 01 00 00 	cmpl   $0x0,0x18f68
     83e:	74 0e                	je     84e <clpreem>
     840:	a1 54 8f 01 00       	mov    0x18f54,%eax
     845:	ff 08                	decl   (%eax)
     847:	7f 05                	jg     84e <clpreem>
     849:	e8 fe 62 00 00       	call   6b4c <wakeup>

0000084e <clpreem>:
     84e:	ff 0d 60 8f 01 00    	decl   0x18f60
     854:	7f 05                	jg     85b <clret>
     856:	e8 0d 58 00 00       	call   6068 <resched>

0000085b <clret>:
     85b:	61                   	popa   
     85c:	fb                   	sti    
     85d:	cf                   	iret   
     85e:	90                   	nop    
     85f:	90                   	nop    

00000860 <newmask>:
	...

00000862 <ctxsw>:
     862:	55                   	push   %ebp
     863:	89 e5                	mov    %esp,%ebp
     865:	ff 75 0c             	pushl  0xc(%ebp)
     868:	e8 4f ff ff ff       	call   7bc <disable>
     86d:	8b 45 14             	mov    0x14(%ebp),%eax
     870:	66 8b 10             	mov    (%eax),%dx
     873:	66 89 15 60 08 00 00 	mov    %dx,0x860
     87a:	9c                   	pushf  
     87b:	60                   	pusha  
     87c:	8b 45 08             	mov    0x8(%ebp),%eax
     87f:	89 20                	mov    %esp,(%eax)
     881:	8b 45 10             	mov    0x10(%ebp),%eax
     884:	8b 20                	mov    (%eax),%esp
     886:	61                   	popa   
     887:	9d                   	popf   
     888:	68 60 08 00 00       	push   $0x860
     88d:	e8 52 ff ff ff       	call   7e4 <restore>
     892:	c9                   	leave  
     893:	c3                   	ret    

00000894 <pferrcode>:
     894:	00 00                	add    %al,(%eax)
	...

00000898 <pfintr>:
     898:	8f 05 94 08 00 00    	popl   0x894
     89e:	9c                   	pushf  
     89f:	fa                   	cli    
     8a0:	60                   	pusha  
     8a1:	e8 ce 7e 00 00       	call   8774 <pfint>
     8a6:	61                   	popa   
     8a7:	9d                   	popf   
     8a8:	cf                   	iret   
     8a9:	90                   	nop    
     8aa:	90                   	nop    
     8ab:	90                   	nop    

000008ac <comcntl>:
     8ac:	55                   	push   %ebp
     8ad:	89 e5                	mov    %esp,%ebp
     8af:	b8 ff ff ff ff       	mov    $0xffffffff,%eax
     8b4:	5d                   	pop    %ebp
     8b5:	c3                   	ret    
     8b6:	90                   	nop    
     8b7:	90                   	nop    

000008b8 <comgetc>:
     8b8:	55                   	push   %ebp
     8b9:	89 e5                	mov    %esp,%ebp
     8bb:	83 ec 14             	sub    $0x14,%esp
     8be:	68 4e 99 00 00       	push   $0x994e
     8c3:	e8 a0 51 00 00       	call   5a68 <kprintf>
     8c8:	b8 01 00 00 00       	mov    $0x1,%eax
     8cd:	c9                   	leave  
     8ce:	c3                   	ret    

000008cf <comread>:
     8cf:	55                   	push   %ebp
     8d0:	89 e5                	mov    %esp,%ebp
     8d2:	83 ec 14             	sub    $0x14,%esp
     8d5:	68 58 99 00 00       	push   $0x9958
     8da:	e8 89 51 00 00       	call   5a68 <kprintf>
     8df:	b8 01 00 00 00       	mov    $0x1,%eax
     8e4:	c9                   	leave  
     8e5:	c3                   	ret    
     8e6:	90                   	nop    
     8e7:	90                   	nop    

000008e8 <comiin>:
     8e8:	55                   	push   %ebp
     8e9:	89 e5                	mov    %esp,%ebp
     8eb:	83 ec 08             	sub    $0x8,%esp
     8ee:	8a 4d 0c             	mov    0xc(%ebp),%cl
     8f1:	8b 45 08             	mov    0x8(%ebp),%eax
     8f4:	8b 50 28             	mov    0x28(%eax),%edx
     8f7:	b8 01 00 00 00       	mov    $0x1,%eax
     8fc:	83 7a 40 00          	cmpl   $0x0,0x40(%edx)
     900:	74 20                	je     922 <comiin+0x3a>
     902:	8b 52 40             	mov    0x40(%edx),%edx
     905:	b8 01 00 00 00       	mov    $0x1,%eax
     90a:	85 d2                	test   %edx,%edx
     90c:	74 14                	je     922 <comiin+0x3a>
     90e:	83 ec 08             	sub    $0x8,%esp
     911:	b8 00 00 00 00       	mov    $0x0,%eax
     916:	88 c8                	mov    %cl,%al
     918:	50                   	push   %eax
     919:	52                   	push   %edx
     91a:	ff 52 38             	call   *0x38(%edx)
     91d:	b8 01 00 00 00       	mov    $0x1,%eax
     922:	c9                   	leave  
     923:	c3                   	ret    

00000924 <cominit>:
     924:	55                   	push   %ebp
     925:	89 e5                	mov    %esp,%ebp
     927:	57                   	push   %edi
     928:	56                   	push   %esi
     929:	53                   	push   %ebx
     92a:	83 ec 18             	sub    $0x18,%esp
     92d:	8b 75 08             	mov    0x8(%ebp),%esi
     930:	8b 7e 2c             	mov    0x2c(%esi),%edi
     933:	8b 46 44             	mov    0x44(%esi),%eax
     936:	8d 1c 80             	lea    (%eax,%eax,4),%ebx
     939:	8d 1c 58             	lea    (%eax,%ebx,2),%ebx
     93c:	8d 1c 9d 80 8b 01 00 	lea    0x18b80(,%ebx,4),%ebx
     943:	89 73 28             	mov    %esi,0x28(%ebx)
     946:	6a 20                	push   $0x20
     948:	e8 f7 58 00 00       	call   6244 <screate>
     94d:	89 43 24             	mov    %eax,0x24(%ebx)
     950:	83 c4 08             	add    $0x8,%esp
     953:	68 a0 8c 00 00       	push   $0x8ca0
     958:	ff 76 30             	pushl  0x30(%esi)
     95b:	e8 82 3f 00 00       	call   48e2 <set_evec>
     960:	83 c4 08             	add    $0x8,%esp
     963:	68 80 00 00 00       	push   $0x80
     968:	8d 5f 03             	lea    0x3(%edi),%ebx
     96b:	53                   	push   %ebx
     96c:	e8 34 f7 ff ff       	call   a5 <outb>
     971:	c7 04 24 0a 00 00 00 	movl   $0xa,(%esp)
     978:	e8 eb fa ff ff       	call   468 <delay>
     97d:	83 c4 08             	add    $0x8,%esp
     980:	6a 0c                	push   $0xc
     982:	57                   	push   %edi
     983:	e8 1d f7 ff ff       	call   a5 <outb>
     988:	c7 04 24 0a 00 00 00 	movl   $0xa,(%esp)
     98f:	e8 d4 fa ff ff       	call   468 <delay>
     994:	83 c4 08             	add    $0x8,%esp
     997:	6a 00                	push   $0x0
     999:	8d 47 01             	lea    0x1(%edi),%eax
     99c:	89 45 f0             	mov    %eax,0xfffffff0(%ebp)
     99f:	50                   	push   %eax
     9a0:	e8 00 f7 ff ff       	call   a5 <outb>
     9a5:	c7 04 24 0a 00 00 00 	movl   $0xa,(%esp)
     9ac:	e8 b7 fa ff ff       	call   468 <delay>
     9b1:	83 c4 08             	add    $0x8,%esp
     9b4:	6a 03                	push   $0x3
     9b6:	53                   	push   %ebx
     9b7:	e8 e9 f6 ff ff       	call   a5 <outb>
     9bc:	c7 04 24 0a 00 00 00 	movl   $0xa,(%esp)
     9c3:	e8 a0 fa ff ff       	call   468 <delay>
     9c8:	89 3c 24             	mov    %edi,(%esp)
     9cb:	e8 90 00 00 00       	call   a60 <comprobe>
     9d0:	83 c4 08             	add    $0x8,%esp
     9d3:	6a 00                	push   $0x0
     9d5:	8d 77 04             	lea    0x4(%edi),%esi
     9d8:	56                   	push   %esi
     9d9:	e8 c7 f6 ff ff       	call   a5 <outb>
     9de:	c7 04 24 0a 00 00 00 	movl   $0xa,(%esp)
     9e5:	e8 7e fa ff ff       	call   468 <delay>
     9ea:	8d 5f 06             	lea    0x6(%edi),%ebx
     9ed:	89 1c 24             	mov    %ebx,(%esp)
     9f0:	e8 97 f6 ff ff       	call   8c <inb>
     9f5:	83 c4 08             	add    $0x8,%esp
     9f8:	6a 0b                	push   $0xb
     9fa:	56                   	push   %esi
     9fb:	e8 a5 f6 ff ff       	call   a5 <outb>
     a00:	c7 04 24 0a 00 00 00 	movl   $0xa,(%esp)
     a07:	e8 5c fa ff ff       	call   468 <delay>
     a0c:	89 1c 24             	mov    %ebx,(%esp)
     a0f:	e8 78 f6 ff ff       	call   8c <inb>
     a14:	83 c4 08             	add    $0x8,%esp
     a17:	6a 0d                	push   $0xd
     a19:	ff 75 f0             	pushl  0xfffffff0(%ebp)
     a1c:	e8 84 f6 ff ff       	call   a5 <outb>
     a21:	c7 04 24 0a 00 00 00 	movl   $0xa,(%esp)
     a28:	e8 3b fa ff ff       	call   468 <delay>
     a2d:	8d 47 02             	lea    0x2(%edi),%eax
     a30:	89 04 24             	mov    %eax,(%esp)
     a33:	e8 54 f6 ff ff       	call   8c <inb>
     a38:	8d 47 05             	lea    0x5(%edi),%eax
     a3b:	89 04 24             	mov    %eax,(%esp)
     a3e:	e8 49 f6 ff ff       	call   8c <inb>
     a43:	89 1c 24             	mov    %ebx,(%esp)
     a46:	e8 41 f6 ff ff       	call   8c <inb>
     a4b:	89 3c 24             	mov    %edi,(%esp)
     a4e:	e8 39 f6 ff ff       	call   8c <inb>
     a53:	b8 01 00 00 00       	mov    $0x1,%eax
     a58:	8d 65 f4             	lea    0xfffffff4(%ebp),%esp
     a5b:	5b                   	pop    %ebx
     a5c:	5e                   	pop    %esi
     a5d:	5f                   	pop    %edi
     a5e:	5d                   	pop    %ebp
     a5f:	c3                   	ret    

00000a60 <comprobe>:
     a60:	55                   	push   %ebp
     a61:	89 e5                	mov    %esp,%ebp
     a63:	57                   	push   %edi
     a64:	56                   	push   %esi
     a65:	53                   	push   %ebx
     a66:	83 ec 18             	sub    $0x18,%esp
     a69:	8b 75 08             	mov    0x8(%ebp),%esi
     a6c:	83 c6 03             	add    $0x3,%esi
     a6f:	56                   	push   %esi
     a70:	e8 17 f6 ff ff       	call   8c <inb>
     a75:	83 c4 08             	add    $0x8,%esp
     a78:	0f be f8             	movsbl %al,%edi
     a7b:	89 f8                	mov    %edi,%eax
     a7d:	0c 80                	or     $0x80,%al
     a7f:	89 45 f0             	mov    %eax,0xfffffff0(%ebp)
     a82:	50                   	push   %eax
     a83:	56                   	push   %esi
     a84:	e8 1c f6 ff ff       	call   a5 <outb>
     a89:	c7 04 24 0a 00 00 00 	movl   $0xa,(%esp)
     a90:	e8 d3 f9 ff ff       	call   468 <delay>
     a95:	83 c4 08             	add    $0x8,%esp
     a98:	6a 00                	push   $0x0
     a9a:	8b 5d 08             	mov    0x8(%ebp),%ebx
     a9d:	83 c3 02             	add    $0x2,%ebx
     aa0:	53                   	push   %ebx
     aa1:	e8 ff f5 ff ff       	call   a5 <outb>
     aa6:	c7 04 24 0a 00 00 00 	movl   $0xa,(%esp)
     aad:	e8 b6 f9 ff ff       	call   468 <delay>
     ab2:	83 c4 08             	add    $0x8,%esp
     ab5:	57                   	push   %edi
     ab6:	56                   	push   %esi
     ab7:	e8 e9 f5 ff ff       	call   a5 <outb>
     abc:	c7 04 24 0a 00 00 00 	movl   $0xa,(%esp)
     ac3:	e8 a0 f9 ff ff       	call   468 <delay>
     ac8:	83 c4 08             	add    $0x8,%esp
     acb:	6a 01                	push   $0x1
     acd:	53                   	push   %ebx
     ace:	e8 d2 f5 ff ff       	call   a5 <outb>
     ad3:	c7 04 24 0a 00 00 00 	movl   $0xa,(%esp)
     ada:	e8 89 f9 ff ff       	call   468 <delay>
     adf:	c7 04 24 02 00 00 00 	movl   $0x2,(%esp)
     ae6:	e8 a1 f5 ff ff       	call   8c <inb>
     aeb:	c1 e8 06             	shr    $0x6,%eax
     aee:	83 c4 10             	add    $0x10,%esp
     af1:	3c 03                	cmp    $0x3,%al
     af3:	75 39                	jne    b2e <comprobe+0xce>
     af5:	83 ec 08             	sub    $0x8,%esp
     af8:	ff 75 f0             	pushl  0xfffffff0(%ebp)
     afb:	56                   	push   %esi
     afc:	e8 a4 f5 ff ff       	call   a5 <outb>
     b01:	c7 04 24 0a 00 00 00 	movl   $0xa,(%esp)
     b08:	e8 5b f9 ff ff       	call   468 <delay>
     b0d:	89 1c 24             	mov    %ebx,(%esp)
     b10:	e8 77 f5 ff ff       	call   8c <inb>
     b15:	83 c4 08             	add    $0x8,%esp
     b18:	57                   	push   %edi
     b19:	56                   	push   %esi
     b1a:	e8 86 f5 ff ff       	call   a5 <outb>
     b1f:	c7 04 24 0a 00 00 00 	movl   $0xa,(%esp)
     b26:	e8 3d f9 ff ff       	call   468 <delay>
     b2b:	83 c4 10             	add    $0x10,%esp
     b2e:	83 ec 08             	sub    $0x8,%esp
     b31:	6a 00                	push   $0x0
     b33:	8b 45 08             	mov    0x8(%ebp),%eax
     b36:	83 c0 04             	add    $0x4,%eax
     b39:	50                   	push   %eax
     b3a:	e8 66 f5 ff ff       	call   a5 <outb>
     b3f:	c7 04 24 0a 00 00 00 	movl   $0xa,(%esp)
     b46:	e8 1d f9 ff ff       	call   468 <delay>
     b4b:	83 c4 08             	add    $0x8,%esp
     b4e:	6a 06                	push   $0x6
     b50:	8b 45 08             	mov    0x8(%ebp),%eax
     b53:	83 c0 02             	add    $0x2,%eax
     b56:	50                   	push   %eax
     b57:	e8 49 f5 ff ff       	call   a5 <outb>
     b5c:	c7 04 24 0a 00 00 00 	movl   $0xa,(%esp)
     b63:	e8 00 f9 ff ff       	call   468 <delay>
     b68:	83 c4 04             	add    $0x4,%esp
     b6b:	ff 75 08             	pushl  0x8(%ebp)
     b6e:	e8 19 f5 ff ff       	call   8c <inb>
     b73:	b8 01 00 00 00       	mov    $0x1,%eax
     b78:	8d 65 f4             	lea    0xfffffff4(%ebp),%esp
     b7b:	5b                   	pop    %ebx
     b7c:	5e                   	pop    %esi
     b7d:	5f                   	pop    %edi
     b7e:	5d                   	pop    %ebp
     b7f:	c3                   	ret    

00000b80 <comtest>:
     b80:	55                   	push   %ebp
     b81:	89 e5                	mov    %esp,%ebp
     b83:	83 ec 14             	sub    $0x14,%esp
     b86:	68 62 99 00 00       	push   $0x9962
     b8b:	e8 d8 4e 00 00       	call   5a68 <kprintf>
     b90:	b8 01 00 00 00       	mov    $0x1,%eax
     b95:	c9                   	leave  
     b96:	c3                   	ret    

00000b97 <comdump>:
     b97:	55                   	push   %ebp
     b98:	89 e5                	mov    %esp,%ebp
     b9a:	57                   	push   %edi
     b9b:	56                   	push   %esi
     b9c:	53                   	push   %ebx
     b9d:	83 ec 18             	sub    $0x18,%esp
     ba0:	8b 75 08             	mov    0x8(%ebp),%esi
     ba3:	68 6b 99 00 00       	push   $0x996b
     ba8:	e8 bb 4e 00 00       	call   5a68 <kprintf>
     bad:	8d 5e 03             	lea    0x3(%esi),%ebx
     bb0:	89 1c 24             	mov    %ebx,(%esp)
     bb3:	e8 d4 f4 ff ff       	call   8c <inb>
     bb8:	89 c7                	mov    %eax,%edi
     bba:	83 c4 08             	add    $0x8,%esp
     bbd:	83 e0 7f             	and    $0x7f,%eax
     bc0:	50                   	push   %eax
     bc1:	53                   	push   %ebx
     bc2:	e8 de f4 ff ff       	call   a5 <outb>
     bc7:	bb 00 00 00 00       	mov    $0x0,%ebx
     bcc:	83 c4 10             	add    $0x10,%esp
     bcf:	83 ec 0c             	sub    $0xc,%esp
     bd2:	8d 04 1e             	lea    (%esi,%ebx,1),%eax
     bd5:	50                   	push   %eax
     bd6:	e8 b1 f4 ff ff       	call   8c <inb>
     bdb:	83 c4 08             	add    $0x8,%esp
     bde:	50                   	push   %eax
     bdf:	68 7c 99 00 00       	push   $0x997c
     be4:	e8 7f 4e 00 00       	call   5a68 <kprintf>
     be9:	83 c4 10             	add    $0x10,%esp
     bec:	43                   	inc    %ebx
     bed:	83 fb 07             	cmp    $0x7,%ebx
     bf0:	7e dd                	jle    bcf <comdump+0x38>
     bf2:	83 ec 0c             	sub    $0xc,%esp
     bf5:	68 82 99 00 00       	push   $0x9982
     bfa:	e8 69 4e 00 00       	call   5a68 <kprintf>
     bff:	83 c4 08             	add    $0x8,%esp
     c02:	89 f8                	mov    %edi,%eax
     c04:	83 c8 80             	or     $0xffffff80,%eax
     c07:	25 ff 00 00 00       	and    $0xff,%eax
     c0c:	50                   	push   %eax
     c0d:	8d 5e 03             	lea    0x3(%esi),%ebx
     c10:	53                   	push   %ebx
     c11:	e8 8f f4 ff ff       	call   a5 <outb>
     c16:	8d 46 01             	lea    0x1(%esi),%eax
     c19:	89 04 24             	mov    %eax,(%esp)
     c1c:	e8 6b f4 ff ff       	call   8c <inb>
     c21:	83 c4 0c             	add    $0xc,%esp
     c24:	50                   	push   %eax
     c25:	83 ec 04             	sub    $0x4,%esp
     c28:	56                   	push   %esi
     c29:	e8 5e f4 ff ff       	call   8c <inb>
     c2e:	83 c4 08             	add    $0x8,%esp
     c31:	50                   	push   %eax
     c32:	68 8b 99 00 00       	push   $0x998b
     c37:	e8 2c 4e 00 00       	call   5a68 <kprintf>
     c3c:	83 c4 08             	add    $0x8,%esp
     c3f:	89 f8                	mov    %edi,%eax
     c41:	25 ff 00 00 00       	and    $0xff,%eax
     c46:	50                   	push   %eax
     c47:	53                   	push   %ebx
     c48:	e8 58 f4 ff ff       	call   a5 <outb>
     c4d:	b8 01 00 00 00       	mov    $0x1,%eax
     c52:	8d 65 f4             	lea    0xfffffff4(%ebp),%esp
     c55:	5b                   	pop    %ebx
     c56:	5e                   	pop    %esi
     c57:	5f                   	pop    %edi
     c58:	5d                   	pop    %ebp
     c59:	c3                   	ret    
     c5a:	90                   	nop    
     c5b:	90                   	nop    

00000c5c <cominput>:
     c5c:	55                   	push   %ebp
     c5d:	89 e5                	mov    %esp,%ebp
     c5f:	83 ec 14             	sub    $0x14,%esp
     c62:	68 96 99 00 00       	push   $0x9996
     c67:	e8 fc 4d 00 00       	call   5a68 <kprintf>
     c6c:	b8 01 00 00 00       	mov    $0x1,%eax
     c71:	c9                   	leave  
     c72:	c3                   	ret    
     c73:	90                   	nop    

00000c74 <computc>:
     c74:	55                   	push   %ebp
     c75:	89 e5                	mov    %esp,%ebp
     c77:	57                   	push   %edi
     c78:	56                   	push   %esi
     c79:	53                   	push   %ebx
     c7a:	83 ec 18             	sub    $0x18,%esp
     c7d:	0f b6 7d 0c          	movzbl 0xc(%ebp),%edi
     c81:	8b 55 08             	mov    0x8(%ebp),%edx
     c84:	8b 42 44             	mov    0x44(%edx),%eax
     c87:	8d 14 80             	lea    (%eax,%eax,4),%edx
     c8a:	8d 14 50             	lea    (%eax,%edx,2),%edx
     c8d:	8d 34 95 80 8b 01 00 	lea    0x18b80(,%edx,4),%esi
     c94:	bb 00 00 00 00       	mov    $0x0,%ebx
     c99:	8d 45 f2             	lea    0xfffffff2(%ebp),%eax
     c9c:	50                   	push   %eax
     c9d:	e8 1a fb ff ff       	call   7bc <disable>
     ca2:	8b 55 08             	mov    0x8(%ebp),%edx
     ca5:	8b 42 40             	mov    0x40(%edx),%eax
     ca8:	83 c4 10             	add    $0x10,%esp
     cab:	85 c0                	test   %eax,%eax
     cad:	74 03                	je     cb2 <computc+0x3e>
     caf:	8b 58 40             	mov    0x40(%eax),%ebx
     cb2:	85 db                	test   %ebx,%ebx
     cb4:	74 30                	je     ce6 <computc+0x72>
     cb6:	f6 83 2c 01 00 00 02 	testb  $0x2,0x12c(%ebx)
     cbd:	74 27                	je     ce6 <computc+0x72>
     cbf:	83 ec 08             	sub    $0x8,%esp
     cc2:	89 f8                	mov    %edi,%eax
     cc4:	25 ff 00 00 00       	and    $0xff,%eax
     cc9:	50                   	push   %eax
     cca:	ff 75 08             	pushl  0x8(%ebp)
     ccd:	e8 8b 01 00 00       	call   e5d <comsputc>
     cd2:	89 c3                	mov    %eax,%ebx
     cd4:	8d 45 f2             	lea    0xfffffff2(%ebp),%eax
     cd7:	89 04 24             	mov    %eax,(%esp)
     cda:	e8 05 fb ff ff       	call   7e4 <restore>
     cdf:	89 d8                	mov    %ebx,%eax
     ce1:	e9 b1 00 00 00       	jmp    d97 <computc+0x123>
     ce6:	83 ec 0c             	sub    $0xc,%esp
     ce9:	ff 76 24             	pushl  0x24(%esi)
     cec:	e8 a7 5d 00 00       	call   6a98 <wait>
     cf1:	bb 00 00 00 00       	mov    $0x0,%ebx
     cf6:	8a 5e 20             	mov    0x20(%esi),%bl
     cf9:	b8 00 00 00 00       	mov    $0x0,%eax
     cfe:	8a 46 21             	mov    0x21(%esi),%al
     d01:	01 c3                	add    %eax,%ebx
     d03:	83 c4 10             	add    $0x10,%esp
     d06:	89 f8                	mov    %edi,%eax
     d08:	3c 0a                	cmp    $0xa,%al
     d0a:	75 1e                	jne    d2a <computc+0xb6>
     d0c:	83 ec 0c             	sub    $0xc,%esp
     d0f:	ff 76 24             	pushl  0x24(%esi)
     d12:	e8 81 5d 00 00       	call   6a98 <wait>
     d17:	83 c4 10             	add    $0x10,%esp
     d1a:	83 fb 1f             	cmp    $0x1f,%ebx
     d1d:	7e 03                	jle    d22 <computc+0xae>
     d1f:	83 eb 20             	sub    $0x20,%ebx
     d22:	c6 04 1e 0d          	movb   $0xd,(%esi,%ebx,1)
     d26:	fe 46 21             	incb   0x21(%esi)
     d29:	43                   	inc    %ebx
     d2a:	83 fb 1f             	cmp    $0x1f,%ebx
     d2d:	7e 03                	jle    d32 <computc+0xbe>
     d2f:	83 eb 20             	sub    $0x20,%ebx
     d32:	89 fa                	mov    %edi,%edx
     d34:	88 14 1e             	mov    %dl,(%esi,%ebx,1)
     d37:	fe 46 21             	incb   0x21(%esi)
     d3a:	83 ec 08             	sub    $0x8,%esp
     d3d:	6a 0f                	push   $0xf
     d3f:	8b 55 08             	mov    0x8(%ebp),%edx
     d42:	8b 42 2c             	mov    0x2c(%edx),%eax
     d45:	40                   	inc    %eax
     d46:	50                   	push   %eax
     d47:	e8 59 f3 ff ff       	call   a5 <outb>
     d4c:	8b 55 08             	mov    0x8(%ebp),%edx
     d4f:	8b 42 2c             	mov    0x2c(%edx),%eax
     d52:	83 c0 05             	add    $0x5,%eax
     d55:	89 04 24             	mov    %eax,(%esp)
     d58:	e8 2f f3 ff ff       	call   8c <inb>
     d5d:	83 c4 10             	add    $0x10,%esp
     d60:	a8 20                	test   $0x20,%al
     d62:	74 22                	je     d86 <computc+0x112>
     d64:	83 ec 08             	sub    $0x8,%esp
     d67:	8b 45 08             	mov    0x8(%ebp),%eax
     d6a:	ff 70 2c             	pushl  0x2c(%eax)
     d6d:	8b 40 44             	mov    0x44(%eax),%eax
     d70:	8d 14 80             	lea    (%eax,%eax,4),%edx
     d73:	8d 14 50             	lea    (%eax,%edx,2),%edx
     d76:	8d 14 95 80 8b 01 00 	lea    0x18b80(,%edx,4),%edx
     d7d:	52                   	push   %edx
     d7e:	e8 55 03 00 00       	call   10d8 <comwstrt>
     d83:	83 c4 10             	add    $0x10,%esp
     d86:	83 ec 0c             	sub    $0xc,%esp
     d89:	8d 45 f2             	lea    0xfffffff2(%ebp),%eax
     d8c:	50                   	push   %eax
     d8d:	e8 52 fa ff ff       	call   7e4 <restore>
     d92:	b8 01 00 00 00       	mov    $0x1,%eax
     d97:	8d 65 f4             	lea    0xfffffff4(%ebp),%esp
     d9a:	5b                   	pop    %ebx
     d9b:	5e                   	pop    %esi
     d9c:	5f                   	pop    %edi
     d9d:	5d                   	pop    %ebp
     d9e:	c3                   	ret    

00000d9f <comflush>:
     d9f:	55                   	push   %ebp
     da0:	89 e5                	mov    %esp,%ebp
     da2:	57                   	push   %edi
     da3:	56                   	push   %esi
     da4:	53                   	push   %ebx
     da5:	83 ec 18             	sub    $0x18,%esp
     da8:	8b 4d 08             	mov    0x8(%ebp),%ecx
     dab:	8b 41 44             	mov    0x44(%ecx),%eax
     dae:	8d 14 80             	lea    (%eax,%eax,4),%edx
     db1:	8d 14 50             	lea    (%eax,%edx,2),%edx
     db4:	8d 1c 95 80 8b 01 00 	lea    0x18b80(,%edx,4),%ebx
     dbb:	8b 79 2c             	mov    0x2c(%ecx),%edi
     dbe:	8d 47 04             	lea    0x4(%edi),%eax
     dc1:	50                   	push   %eax
     dc2:	e8 c5 f2 ff ff       	call   8c <inb>
     dc7:	83 e0 fd             	and    $0xfffffffd,%eax
     dca:	83 c4 08             	add    $0x8,%esp
     dcd:	50                   	push   %eax
     dce:	8d 47 01             	lea    0x1(%edi),%eax
     dd1:	50                   	push   %eax
     dd2:	e8 ce f2 ff ff       	call   a5 <outb>
     dd7:	83 c4 10             	add    $0x10,%esp
     dda:	8d 77 05             	lea    0x5(%edi),%esi
     ddd:	80 7b 21 00          	cmpb   $0x0,0x21(%ebx)
     de1:	74 51                	je     e34 <comflush+0x95>
     de3:	83 ec 0c             	sub    $0xc,%esp
     de6:	56                   	push   %esi
     de7:	e8 a0 f2 ff ff       	call   8c <inb>
     dec:	83 c4 10             	add    $0x10,%esp
     def:	a8 20                	test   $0x20,%al
     df1:	74 f0                	je     de3 <comflush+0x44>
     df3:	83 ec 08             	sub    $0x8,%esp
     df6:	b8 00 00 00 00       	mov    $0x0,%eax
     dfb:	8a 43 20             	mov    0x20(%ebx),%al
     dfe:	8a 04 03             	mov    (%ebx,%eax,1),%al
     e01:	25 ff 00 00 00       	and    $0xff,%eax
     e06:	50                   	push   %eax
     e07:	57                   	push   %edi
     e08:	e8 98 f2 ff ff       	call   a5 <outb>
     e0d:	fe 43 20             	incb   0x20(%ebx)
     e10:	83 c4 10             	add    $0x10,%esp
     e13:	80 7b 20 1f          	cmpb   $0x1f,0x20(%ebx)
     e17:	76 04                	jbe    e1d <comflush+0x7e>
     e19:	c6 43 20 00          	movb   $0x0,0x20(%ebx)
     e1d:	fe 4b 21             	decb   0x21(%ebx)
     e20:	83 ec 0c             	sub    $0xc,%esp
     e23:	ff 73 24             	pushl  0x24(%ebx)
     e26:	e8 b5 56 00 00       	call   64e0 <signal>
     e2b:	83 c4 10             	add    $0x10,%esp
     e2e:	80 7b 21 00          	cmpb   $0x0,0x21(%ebx)
     e32:	75 af                	jne    de3 <comflush+0x44>
     e34:	83 ec 0c             	sub    $0xc,%esp
     e37:	8d 47 04             	lea    0x4(%edi),%eax
     e3a:	50                   	push   %eax
     e3b:	e8 4c f2 ff ff       	call   8c <inb>
     e40:	83 c8 02             	or     $0x2,%eax
     e43:	83 c4 08             	add    $0x8,%esp
     e46:	50                   	push   %eax
     e47:	8d 47 01             	lea    0x1(%edi),%eax
     e4a:	50                   	push   %eax
     e4b:	e8 55 f2 ff ff       	call   a5 <outb>
     e50:	b8 01 00 00 00       	mov    $0x1,%eax
     e55:	8d 65 f4             	lea    0xfffffff4(%ebp),%esp
     e58:	5b                   	pop    %ebx
     e59:	5e                   	pop    %esi
     e5a:	5f                   	pop    %edi
     e5b:	5d                   	pop    %ebp
     e5c:	c3                   	ret    

00000e5d <comsputc>:
     e5d:	55                   	push   %ebp
     e5e:	89 e5                	mov    %esp,%ebp
     e60:	56                   	push   %esi
     e61:	53                   	push   %ebx
     e62:	83 ec 10             	sub    $0x10,%esp
     e65:	8a 45 0c             	mov    0xc(%ebp),%al
     e68:	88 45 f7             	mov    %al,0xfffffff7(%ebp)
     e6b:	8b 45 08             	mov    0x8(%ebp),%eax
     e6e:	8b 70 2c             	mov    0x2c(%eax),%esi
     e71:	8d 5e 05             	lea    0x5(%esi),%ebx
     e74:	83 ec 0c             	sub    $0xc,%esp
     e77:	53                   	push   %ebx
     e78:	e8 0f f2 ff ff       	call   8c <inb>
     e7d:	83 c4 10             	add    $0x10,%esp
     e80:	a8 20                	test   $0x20,%al
     e82:	74 f0                	je     e74 <comsputc+0x17>
     e84:	83 ec 08             	sub    $0x8,%esp
     e87:	b8 00 00 00 00       	mov    $0x0,%eax
     e8c:	8a 45 f7             	mov    0xfffffff7(%ebp),%al
     e8f:	50                   	push   %eax
     e90:	56                   	push   %esi
     e91:	e8 0f f2 ff ff       	call   a5 <outb>
     e96:	83 c4 10             	add    $0x10,%esp
     e99:	80 7d f7 0a          	cmpb   $0xa,0xfffffff7(%ebp)
     e9d:	75 21                	jne    ec0 <comsputc+0x63>
     e9f:	8d 5e 05             	lea    0x5(%esi),%ebx
     ea2:	83 ec 0c             	sub    $0xc,%esp
     ea5:	53                   	push   %ebx
     ea6:	e8 e1 f1 ff ff       	call   8c <inb>
     eab:	83 c4 10             	add    $0x10,%esp
     eae:	a8 20                	test   $0x20,%al
     eb0:	74 f0                	je     ea2 <comsputc+0x45>
     eb2:	83 ec 08             	sub    $0x8,%esp
     eb5:	6a 0d                	push   $0xd
     eb7:	56                   	push   %esi
     eb8:	e8 e8 f1 ff ff       	call   a5 <outb>
     ebd:	83 c4 10             	add    $0x10,%esp
     ec0:	b8 01 00 00 00       	mov    $0x1,%eax
     ec5:	8d 65 f8             	lea    0xfffffff8(%ebp),%esp
     ec8:	5b                   	pop    %ebx
     ec9:	5e                   	pop    %esi
     eca:	5d                   	pop    %ebp
     ecb:	c3                   	ret    

00000ecc <comwrite>:
     ecc:	55                   	push   %ebp
     ecd:	89 e5                	mov    %esp,%ebp
     ecf:	57                   	push   %edi
     ed0:	56                   	push   %esi
     ed1:	53                   	push   %ebx
     ed2:	83 ec 0c             	sub    $0xc,%esp
     ed5:	8b 7d 08             	mov    0x8(%ebp),%edi
     ed8:	8b 75 0c             	mov    0xc(%ebp),%esi
     edb:	8b 5d 10             	mov    0x10(%ebp),%ebx
     ede:	b8 ff ff ff ff       	mov    $0xffffffff,%eax
     ee3:	85 db                	test   %ebx,%ebx
     ee5:	78 28                	js     f0f <comwrite+0x43>
     ee7:	b8 01 00 00 00       	mov    $0x1,%eax
     eec:	85 db                	test   %ebx,%ebx
     eee:	74 1f                	je     f0f <comwrite+0x43>
     ef0:	85 db                	test   %ebx,%ebx
     ef2:	7e 16                	jle    f0a <comwrite+0x3e>
     ef4:	83 ec 08             	sub    $0x8,%esp
     ef7:	0f be 06             	movsbl (%esi),%eax
     efa:	50                   	push   %eax
     efb:	46                   	inc    %esi
     efc:	57                   	push   %edi
     efd:	e8 72 fd ff ff       	call   c74 <computc>
     f02:	83 c4 10             	add    $0x10,%esp
     f05:	4b                   	dec    %ebx
     f06:	85 db                	test   %ebx,%ebx
     f08:	7f ea                	jg     ef4 <comwrite+0x28>
     f0a:	b8 01 00 00 00       	mov    $0x1,%eax
     f0f:	8d 65 f4             	lea    0xfffffff4(%ebp),%esp
     f12:	5b                   	pop    %ebx
     f13:	5e                   	pop    %esi
     f14:	5f                   	pop    %edi
     f15:	5d                   	pop    %ebp
     f16:	c3                   	ret    
     f17:	90                   	nop    

00000f18 <congetc>:
     f18:	55                   	push   %ebp
     f19:	89 e5                	mov    %esp,%ebp
     f1b:	b8 01 00 00 00       	mov    $0x1,%eax
     f20:	5d                   	pop    %ebp
     f21:	c3                   	ret    

00000f22 <conread>:
     f22:	55                   	push   %ebp
     f23:	89 e5                	mov    %esp,%ebp
     f25:	b8 01 00 00 00       	mov    $0x1,%eax
     f2a:	5d                   	pop    %ebp
     f2b:	c3                   	ret    

00000f2c <comintr>:
     f2c:	55                   	push   %ebp
     f2d:	89 e5                	mov    %esp,%ebp
     f2f:	56                   	push   %esi
     f30:	53                   	push   %ebx
     f31:	83 ec 1c             	sub    $0x1c,%esp
     f34:	8d 45 f6             	lea    0xfffffff6(%ebp),%eax
     f37:	50                   	push   %eax
     f38:	e8 7f f8 ff ff       	call   7bc <disable>
     f3d:	bb 00 00 00 00       	mov    $0x0,%ebx
     f42:	83 c4 10             	add    $0x10,%esp
     f45:	8d 04 9b             	lea    (%ebx,%ebx,4),%eax
     f48:	8d 04 43             	lea    (%ebx,%eax,2),%eax
     f4b:	8b 04 85 a8 8b 01 00 	mov    0x18ba8(,%eax,4),%eax
     f52:	8b 70 2c             	mov    0x2c(%eax),%esi
     f55:	83 ec 0c             	sub    $0xc,%esp
     f58:	8d 46 02             	lea    0x2(%esi),%eax
     f5b:	50                   	push   %eax
     f5c:	e8 2b f1 ff ff       	call   8c <inb>
     f61:	83 c4 10             	add    $0x10,%esp
     f64:	a8 01                	test   $0x1,%al
     f66:	74 06                	je     f6e <comintr+0x42>
     f68:	43                   	inc    %ebx
     f69:	83 fb 01             	cmp    $0x1,%ebx
     f6c:	7e d7                	jle    f45 <comintr+0x19>
     f6e:	83 fb 02             	cmp    $0x2,%ebx
     f71:	75 16                	jne    f89 <comintr+0x5d>
     f73:	83 ec 0c             	sub    $0xc,%esp
     f76:	8d 45 f6             	lea    0xfffffff6(%ebp),%eax
     f79:	50                   	push   %eax
     f7a:	e8 65 f8 ff ff       	call   7e4 <restore>
     f7f:	b8 01 00 00 00       	mov    $0x1,%eax
     f84:	e9 48 01 00 00       	jmp    10d1 <comintr+0x1a5>
     f89:	89 c2                	mov    %eax,%edx
     f8b:	83 e2 06             	and    $0x6,%edx
     f8e:	83 fa 02             	cmp    $0x2,%edx
     f91:	0f 84 da 00 00 00    	je     1071 <comintr+0x145>
     f97:	83 fa 02             	cmp    $0x2,%edx
     f9a:	7f 09                	jg     fa5 <comintr+0x79>
     f9c:	85 d2                	test   %edx,%edx
     f9e:	74 6b                	je     100b <comintr+0xdf>
     fa0:	e9 05 01 00 00       	jmp    10aa <comintr+0x17e>
     fa5:	83 fa 04             	cmp    $0x4,%edx
     fa8:	74 75                	je     101f <comintr+0xf3>
     faa:	83 fa 06             	cmp    $0x6,%edx
     fad:	0f 85 f7 00 00 00    	jne    10aa <comintr+0x17e>
     fb3:	83 ec 0c             	sub    $0xc,%esp
     fb6:	8d 46 05             	lea    0x5(%esi),%eax
     fb9:	50                   	push   %eax
     fba:	e8 cd f0 ff ff       	call   8c <inb>
     fbf:	bb 00 00 00 00       	mov    $0x0,%ebx
     fc4:	88 c3                	mov    %al,%bl
     fc6:	83 c4 10             	add    $0x10,%esp
     fc9:	f6 c3 10             	test   $0x10,%bl
     fcc:	0f 84 ee 00 00 00    	je     10c0 <comintr+0x194>
     fd2:	83 ec 0c             	sub    $0xc,%esp
     fd5:	56                   	push   %esi
     fd6:	e8 b1 f0 ff ff       	call   8c <inb>
     fdb:	83 c4 10             	add    $0x10,%esp
     fde:	f6 c3 02             	test   $0x2,%bl
     fe1:	0f 85 d9 00 00 00    	jne    10c0 <comintr+0x194>
     fe7:	83 ec 0c             	sub    $0xc,%esp
     fea:	68 a0 99 00 00       	push   $0x99a0
     fef:	e8 74 4a 00 00       	call   5a68 <kprintf>
     ff4:	89 f0                	mov    %esi,%eax
     ff6:	25 ff ff 00 00       	and    $0xffff,%eax
     ffb:	89 04 24             	mov    %eax,(%esp)
     ffe:	e8 3d 01 00 00       	call   1140 <monitor>
    1003:	83 c4 10             	add    $0x10,%esp
    1006:	e9 b5 00 00 00       	jmp    10c0 <comintr+0x194>
    100b:	83 ec 0c             	sub    $0xc,%esp
    100e:	8d 46 06             	lea    0x6(%esi),%eax
    1011:	50                   	push   %eax
    1012:	e8 75 f0 ff ff       	call   8c <inb>
    1017:	83 c4 10             	add    $0x10,%esp
    101a:	e9 a1 00 00 00       	jmp    10c0 <comintr+0x194>
    101f:	83 ec 0c             	sub    $0xc,%esp
    1022:	56                   	push   %esi
    1023:	e8 64 f0 ff ff       	call   8c <inb>
    1028:	83 c4 10             	add    $0x10,%esp
    102b:	84 c0                	test   %al,%al
    102d:	75 21                	jne    1050 <comintr+0x124>
    102f:	83 ec 0c             	sub    $0xc,%esp
    1032:	68 bd 99 00 00       	push   $0x99bd
    1037:	e8 2c 4a 00 00       	call   5a68 <kprintf>
    103c:	89 f0                	mov    %esi,%eax
    103e:	25 ff ff 00 00       	and    $0xffff,%eax
    1043:	89 04 24             	mov    %eax,(%esp)
    1046:	e8 f5 00 00 00       	call   1140 <monitor>
    104b:	83 c4 10             	add    $0x10,%esp
    104e:	eb 70                	jmp    10c0 <comintr+0x194>
    1050:	83 ec 08             	sub    $0x8,%esp
    1053:	25 ff 00 00 00       	and    $0xff,%eax
    1058:	50                   	push   %eax
    1059:	8d 04 9b             	lea    (%ebx,%ebx,4),%eax
    105c:	8d 04 43             	lea    (%ebx,%eax,2),%eax
    105f:	8d 04 85 80 8b 01 00 	lea    0x18b80(,%eax,4),%eax
    1066:	50                   	push   %eax
    1067:	e8 7c f8 ff ff       	call   8e8 <comiin>
    106c:	83 c4 10             	add    $0x10,%esp
    106f:	eb 4f                	jmp    10c0 <comintr+0x194>
    1071:	83 ec 0c             	sub    $0xc,%esp
    1074:	8d 46 05             	lea    0x5(%esi),%eax
    1077:	50                   	push   %eax
    1078:	e8 0f f0 ff ff       	call   8c <inb>
    107d:	83 c4 10             	add    $0x10,%esp
    1080:	a8 20                	test   $0x20,%al
    1082:	74 3c                	je     10c0 <comintr+0x194>
    1084:	8d 04 9b             	lea    (%ebx,%ebx,4),%eax
    1087:	8d 04 43             	lea    (%ebx,%eax,2),%eax
    108a:	c1 e0 02             	shl    $0x2,%eax
    108d:	80 b8 a1 8b 01 00 00 	cmpb   $0x0,0x18ba1(%eax)
    1094:	74 2a                	je     10c0 <comintr+0x194>
    1096:	83 ec 08             	sub    $0x8,%esp
    1099:	56                   	push   %esi
    109a:	05 80 8b 01 00       	add    $0x18b80,%eax
    109f:	50                   	push   %eax
    10a0:	e8 33 00 00 00       	call   10d8 <comwstrt>
    10a5:	83 c4 10             	add    $0x10,%esp
    10a8:	eb 16                	jmp    10c0 <comintr+0x194>
    10aa:	83 ec 08             	sub    $0x8,%esp
    10ad:	25 ff 00 00 00       	and    $0xff,%eax
    10b2:	50                   	push   %eax
    10b3:	68 dc 99 00 00       	push   $0x99dc
    10b8:	e8 ab 49 00 00       	call   5a68 <kprintf>
    10bd:	83 c4 10             	add    $0x10,%esp
    10c0:	83 ec 0c             	sub    $0xc,%esp
    10c3:	8d 45 f6             	lea    0xfffffff6(%ebp),%eax
    10c6:	50                   	push   %eax
    10c7:	e8 18 f7 ff ff       	call   7e4 <restore>
    10cc:	b8 01 00 00 00       	mov    $0x1,%eax
    10d1:	8d 65 f8             	lea    0xfffffff8(%ebp),%esp
    10d4:	5b                   	pop    %ebx
    10d5:	5e                   	pop    %esi
    10d6:	5d                   	pop    %ebp
    10d7:	c3                   	ret    

000010d8 <comwstrt>:
    10d8:	55                   	push   %ebp
    10d9:	89 e5                	mov    %esp,%ebp
    10db:	56                   	push   %esi
    10dc:	53                   	push   %ebx
    10dd:	8b 5d 08             	mov    0x8(%ebp),%ebx
    10e0:	8b 75 0c             	mov    0xc(%ebp),%esi
    10e3:	83 ec 08             	sub    $0x8,%esp
    10e6:	b8 00 00 00 00       	mov    $0x0,%eax
    10eb:	8a 43 20             	mov    0x20(%ebx),%al
    10ee:	8a 04 03             	mov    (%ebx,%eax,1),%al
    10f1:	25 ff 00 00 00       	and    $0xff,%eax
    10f6:	50                   	push   %eax
    10f7:	56                   	push   %esi
    10f8:	e8 a8 ef ff ff       	call   a5 <outb>
    10fd:	fe 4b 21             	decb   0x21(%ebx)
    1100:	fe 43 20             	incb   0x20(%ebx)
    1103:	83 c4 10             	add    $0x10,%esp
    1106:	80 7b 21 00          	cmpb   $0x0,0x21(%ebx)
    110a:	75 11                	jne    111d <comwstrt+0x45>
    110c:	83 ec 08             	sub    $0x8,%esp
    110f:	6a 0d                	push   $0xd
    1111:	8d 46 01             	lea    0x1(%esi),%eax
    1114:	50                   	push   %eax
    1115:	e8 8b ef ff ff       	call   a5 <outb>
    111a:	83 c4 10             	add    $0x10,%esp
    111d:	80 7b 20 1f          	cmpb   $0x1f,0x20(%ebx)
    1121:	76 04                	jbe    1127 <comwstrt+0x4f>
    1123:	c6 43 20 00          	movb   $0x0,0x20(%ebx)
    1127:	83 ec 0c             	sub    $0xc,%esp
    112a:	ff 73 24             	pushl  0x24(%ebx)
    112d:	e8 ae 53 00 00       	call   64e0 <signal>
    1132:	b8 01 00 00 00       	mov    $0x1,%eax
    1137:	8d 65 f8             	lea    0xfffffff8(%ebp),%esp
    113a:	5b                   	pop    %ebx
    113b:	5e                   	pop    %esi
    113c:	5d                   	pop    %ebp
    113d:	c3                   	ret    
    113e:	90                   	nop    
    113f:	90                   	nop    

00001140 <monitor>:
    1140:	55                   	push   %ebp
    1141:	89 e5                	mov    %esp,%ebp
    1143:	57                   	push   %edi
    1144:	56                   	push   %esi
    1145:	53                   	push   %ebx
    1146:	83 ec 68             	sub    $0x68,%esp
    1149:	8b 5d 08             	mov    0x8(%ebp),%ebx
    114c:	bf 00 00 00 00       	mov    $0x0,%edi
    1151:	68 00 9a 00 00       	push   $0x9a00
    1156:	e8 0d 49 00 00       	call   5a68 <kprintf>
    115b:	83 c4 08             	add    $0x8,%esp
    115e:	68 e8 9a 00 00       	push   $0x9ae8
    1163:	68 f3 9a 00 00       	push   $0x9af3
    1168:	e8 fb 48 00 00       	call   5a68 <kprintf>
    116d:	83 c4 10             	add    $0x10,%esp
    1170:	89 de                	mov    %ebx,%esi
    1172:	81 e6 ff ff 00 00    	and    $0xffff,%esi
    1178:	83 ec 0c             	sub    $0xc,%esp
    117b:	8d 46 05             	lea    0x5(%esi),%eax
    117e:	50                   	push   %eax
    117f:	e8 08 ef ff ff       	call   8c <inb>
    1184:	83 c4 10             	add    $0x10,%esp
    1187:	a8 10                	test   $0x10,%al
    1189:	74 20                	je     11ab <monitor+0x6b>
    118b:	83 ec 0c             	sub    $0xc,%esp
    118e:	56                   	push   %esi
    118f:	e8 f8 ee ff ff       	call   8c <inb>
    1194:	83 c4 08             	add    $0x8,%esp
    1197:	68 e8 9a 00 00       	push   $0x9ae8
    119c:	68 f3 9a 00 00       	push   $0x9af3
    11a1:	e8 c2 48 00 00       	call   5a68 <kprintf>
    11a6:	83 c4 10             	add    $0x10,%esp
    11a9:	eb cd                	jmp    1178 <monitor+0x38>
    11ab:	a8 01                	test   $0x1,%al
    11ad:	74 c9                	je     1178 <monitor+0x38>
    11af:	83 ec 0c             	sub    $0xc,%esp
    11b2:	56                   	push   %esi
    11b3:	e8 d4 ee ff ff       	call   8c <inb>
    11b8:	88 c3                	mov    %al,%bl
    11ba:	83 c4 10             	add    $0x10,%esp
    11bd:	b8 00 00 00 00       	mov    $0x0,%eax
    11c2:	88 d8                	mov    %bl,%al
    11c4:	83 f8 08             	cmp    $0x8,%eax
    11c7:	0f 84 9b 00 00 00    	je     1268 <monitor+0x128>
    11cd:	83 f8 08             	cmp    $0x8,%eax
    11d0:	7f 09                	jg     11db <monitor+0x9b>
    11d2:	85 c0                	test   %eax,%eax
    11d4:	74 0f                	je     11e5 <monitor+0xa5>
    11d6:	e9 ce 00 00 00       	jmp    12a9 <monitor+0x169>
    11db:	83 f8 0d             	cmp    $0xd,%eax
    11de:	74 1f                	je     11ff <monitor+0xbf>
    11e0:	e9 c4 00 00 00       	jmp    12a9 <monitor+0x169>
    11e5:	83 ec 08             	sub    $0x8,%esp
    11e8:	68 e8 9a 00 00       	push   $0x9ae8
    11ed:	68 f3 9a 00 00       	push   $0x9af3
    11f2:	e8 71 48 00 00       	call   5a68 <kprintf>
    11f7:	83 c4 10             	add    $0x10,%esp
    11fa:	e9 79 ff ff ff       	jmp    1178 <monitor+0x38>
    11ff:	85 ff                	test   %edi,%edi
    1201:	7e 4b                	jle    124e <monitor+0x10e>
    1203:	83 ec 08             	sub    $0x8,%esp
    1206:	b8 00 00 00 00       	mov    $0x0,%eax
    120b:	88 d8                	mov    %bl,%al
    120d:	50                   	push   %eax
    120e:	ff 35 68 7f 01 00    	pushl  0x17f68
    1214:	e8 87 48 00 00       	call   5aa0 <kputc>
    1219:	83 c4 08             	add    $0x8,%esp
    121c:	6a 0a                	push   $0xa
    121e:	ff 35 68 7f 01 00    	pushl  0x17f68
    1224:	e8 77 48 00 00       	call   5aa0 <kputc>
    1229:	c6 44 3d 98 00       	movb   $0x0,0xffffff98(%ebp,%edi,1)
    122e:	8d 45 98             	lea    0xffffff98(%ebp),%eax
    1231:	89 04 24             	mov    %eax,(%esp)
    1234:	e8 a9 00 00 00       	call   12e2 <mon_cmd>
    1239:	83 c4 10             	add    $0x10,%esp
    123c:	85 c0                	test   %eax,%eax
    123e:	0f 85 91 00 00 00    	jne    12d5 <monitor+0x195>
    1244:	bf 00 00 00 00       	mov    $0x0,%edi
    1249:	e9 2a ff ff ff       	jmp    1178 <monitor+0x38>
    124e:	83 ec 08             	sub    $0x8,%esp
    1251:	68 e8 9a 00 00       	push   $0x9ae8
    1256:	68 f2 9a 00 00       	push   $0x9af2
    125b:	e8 08 48 00 00       	call   5a68 <kprintf>
    1260:	83 c4 10             	add    $0x10,%esp
    1263:	e9 10 ff ff ff       	jmp    1178 <monitor+0x38>
    1268:	85 ff                	test   %edi,%edi
    126a:	0f 8e 08 ff ff ff    	jle    1178 <monitor+0x38>
    1270:	83 ec 08             	sub    $0x8,%esp
    1273:	6a 08                	push   $0x8
    1275:	ff 35 68 7f 01 00    	pushl  0x17f68
    127b:	e8 20 48 00 00       	call   5aa0 <kputc>
    1280:	83 c4 08             	add    $0x8,%esp
    1283:	6a 20                	push   $0x20
    1285:	ff 35 68 7f 01 00    	pushl  0x17f68
    128b:	e8 10 48 00 00       	call   5aa0 <kputc>
    1290:	83 c4 08             	add    $0x8,%esp
    1293:	6a 08                	push   $0x8
    1295:	ff 35 68 7f 01 00    	pushl  0x17f68
    129b:	e8 00 48 00 00       	call   5aa0 <kputc>
    12a0:	4f                   	dec    %edi
    12a1:	83 c4 10             	add    $0x10,%esp
    12a4:	e9 cf fe ff ff       	jmp    1178 <monitor+0x38>
    12a9:	83 ec 08             	sub    $0x8,%esp
    12ac:	b8 00 00 00 00       	mov    $0x0,%eax
    12b1:	88 d8                	mov    %bl,%al
    12b3:	50                   	push   %eax
    12b4:	ff 35 68 7f 01 00    	pushl  0x17f68
    12ba:	e8 e1 47 00 00       	call   5aa0 <kputc>
    12bf:	83 c4 10             	add    $0x10,%esp
    12c2:	83 ff 4e             	cmp    $0x4e,%edi
    12c5:	0f 8f ad fe ff ff    	jg     1178 <monitor+0x38>
    12cb:	88 5c 2f 98          	mov    %bl,0xffffff98(%edi,%ebp,1)
    12cf:	47                   	inc    %edi
    12d0:	e9 a3 fe ff ff       	jmp    1178 <monitor+0x38>
    12d5:	b8 01 00 00 00       	mov    $0x1,%eax
    12da:	8d 65 f4             	lea    0xfffffff4(%ebp),%esp
    12dd:	5b                   	pop    %ebx
    12de:	5e                   	pop    %esi
    12df:	5f                   	pop    %edi
    12e0:	5d                   	pop    %ebp
    12e1:	c3                   	ret    

000012e2 <mon_cmd>:
    12e2:	55                   	push   %ebp
    12e3:	89 e5                	mov    %esp,%ebp
    12e5:	53                   	push   %ebx
    12e6:	83 ec 0c             	sub    $0xc,%esp
    12e9:	8b 5d 08             	mov    0x8(%ebp),%ebx
    12ec:	68 f6 9a 00 00       	push   $0x9af6
    12f1:	53                   	push   %ebx
    12f2:	e8 f9 84 00 00       	call   97f0 <strcmp>
    12f7:	83 c4 10             	add    $0x10,%esp
    12fa:	85 c0                	test   %eax,%eax
    12fc:	0f 85 8f 00 00 00    	jne    1391 <mon_cmd+0xaf>
    1302:	66 8b 1d 7c 8f 01 00 	mov    0x18f7c,%bx
    1309:	83 ec 08             	sub    $0x8,%esp
    130c:	6a 20                	push   $0x20
    130e:	68 f2 05 00 00       	push   $0x5f2
    1313:	e8 4c 48 00 00       	call   5b64 <mkpool>
    1318:	a3 d8 8b 01 00       	mov    %eax,0x18bd8
    131d:	e8 12 12 00 00       	call   2534 <mon_ethinit>
    1322:	e8 81 01 00 00       	call   14a8 <mon_arpinit>
    1327:	e8 8e 08 00 00       	call   1bba <mon_netinit>
    132c:	c7 04 24 f8 9a 00 00 	movl   $0x9af8,(%esp)
    1333:	e8 30 47 00 00       	call   5a68 <kprintf>
    1338:	e8 43 20 00 00       	call   3380 <boot_xinu>
    133d:	83 c4 10             	add    $0x10,%esp
    1340:	83 f8 ff             	cmp    $0xffffffff,%eax
    1343:	0f 85 00 01 00 00    	jne    1449 <mon_cmd+0x167>
    1349:	83 ec 0c             	sub    $0xc,%esp
    134c:	8d 45 fa             	lea    0xfffffffa(%ebp),%eax
    134f:	50                   	push   %eax
    1350:	e8 67 f4 ff ff       	call   7bc <disable>
    1355:	83 c4 08             	add    $0x8,%esp
    1358:	68 12 08 00 00       	push   $0x812
    135d:	6a 20                	push   $0x20
    135f:	e8 7e 35 00 00       	call   48e2 <set_evec>
    1364:	66 89 1d 7c 8f 01 00 	mov    %bx,0x18f7c
    136b:	c7 04 24 48 9a 00 00 	movl   $0x9a48,(%esp)
    1372:	e8 f1 46 00 00       	call   5a68 <kprintf>
    1377:	83 c4 08             	add    $0x8,%esp
    137a:	68 e8 9a 00 00       	push   $0x9ae8
    137f:	68 f3 9a 00 00       	push   $0x9af3
    1384:	e8 df 46 00 00       	call   5a68 <kprintf>
    1389:	83 c4 10             	add    $0x10,%esp
    138c:	e9 b8 00 00 00       	jmp    1449 <mon_cmd+0x167>
    1391:	83 ec 08             	sub    $0x8,%esp
    1394:	68 0a 9b 00 00       	push   $0x9b0a
    1399:	53                   	push   %ebx
    139a:	e8 51 84 00 00       	call   97f0 <strcmp>
    139f:	83 c4 10             	add    $0x10,%esp
    13a2:	ba 01 00 00 00       	mov    $0x1,%edx
    13a7:	85 c0                	test   %eax,%eax
    13a9:	0f 84 9f 00 00 00    	je     144e <mon_cmd+0x16c>
    13af:	83 ec 08             	sub    $0x8,%esp
    13b2:	68 b0 a2 00 00       	push   $0xa2b0
    13b7:	53                   	push   %ebx
    13b8:	e8 33 84 00 00       	call   97f0 <strcmp>
    13bd:	83 c4 10             	add    $0x10,%esp
    13c0:	85 c0                	test   %eax,%eax
    13c2:	75 07                	jne    13cb <mon_cmd+0xe9>
    13c4:	e8 54 ec ff ff       	call   1d <start>
    13c9:	eb 7e                	jmp    1449 <mon_cmd+0x167>
    13cb:	83 ec 08             	sub    $0x8,%esp
    13ce:	68 0c 9b 00 00       	push   $0x9b0c
    13d3:	53                   	push   %ebx
    13d4:	e8 17 84 00 00       	call   97f0 <strcmp>
    13d9:	83 c4 10             	add    $0x10,%esp
    13dc:	85 c0                	test   %eax,%eax
    13de:	74 2a                	je     140a <mon_cmd+0x128>
    13e0:	83 ec 08             	sub    $0x8,%esp
    13e3:	68 0e 9b 00 00       	push   $0x9b0e
    13e8:	53                   	push   %ebx
    13e9:	e8 02 84 00 00       	call   97f0 <strcmp>
    13ee:	83 c4 10             	add    $0x10,%esp
    13f1:	85 c0                	test   %eax,%eax
    13f3:	74 15                	je     140a <mon_cmd+0x128>
    13f5:	83 ec 08             	sub    $0x8,%esp
    13f8:	68 10 9b 00 00       	push   $0x9b10
    13fd:	53                   	push   %ebx
    13fe:	e8 ed 83 00 00       	call   97f0 <strcmp>
    1403:	83 c4 10             	add    $0x10,%esp
    1406:	85 c0                	test   %eax,%eax
    1408:	75 1c                	jne    1426 <mon_cmd+0x144>
    140a:	e8 46 00 00 00       	call   1455 <mon_help>
    140f:	83 ec 08             	sub    $0x8,%esp
    1412:	68 e8 9a 00 00       	push   $0x9ae8
    1417:	68 f3 9a 00 00       	push   $0x9af3
    141c:	e8 47 46 00 00       	call   5a68 <kprintf>
    1421:	83 c4 10             	add    $0x10,%esp
    1424:	eb 23                	jmp    1449 <mon_cmd+0x167>
    1426:	83 ec 08             	sub    $0x8,%esp
    1429:	53                   	push   %ebx
    142a:	68 74 9a 00 00       	push   $0x9a74
    142f:	e8 34 46 00 00       	call   5a68 <kprintf>
    1434:	83 c4 08             	add    $0x8,%esp
    1437:	68 e8 9a 00 00       	push   $0x9ae8
    143c:	68 f3 9a 00 00       	push   $0x9af3
    1441:	e8 22 46 00 00       	call   5a68 <kprintf>
    1446:	83 c4 10             	add    $0x10,%esp
    1449:	ba 00 00 00 00       	mov    $0x0,%edx
    144e:	89 d0                	mov    %edx,%eax
    1450:	8b 5d fc             	mov    0xfffffffc(%ebp),%ebx
    1453:	c9                   	leave  
    1454:	c3                   	ret    

00001455 <mon_help>:
    1455:	55                   	push   %ebp
    1456:	89 e5                	mov    %esp,%ebp
    1458:	83 ec 14             	sub    $0x14,%esp
    145b:	68 a0 9a 00 00       	push   $0x9aa0
    1460:	e8 03 46 00 00       	call   5a68 <kprintf>
    1465:	c7 04 24 15 9b 00 00 	movl   $0x9b15,(%esp)
    146c:	e8 f7 45 00 00       	call   5a68 <kprintf>
    1471:	c7 04 24 1f 9b 00 00 	movl   $0x9b1f,(%esp)
    1478:	e8 eb 45 00 00       	call   5a68 <kprintf>
    147d:	c7 04 24 39 9b 00 00 	movl   $0x9b39,(%esp)
    1484:	e8 df 45 00 00       	call   5a68 <kprintf>
    1489:	c7 04 24 4f 9b 00 00 	movl   $0x9b4f,(%esp)
    1490:	e8 d3 45 00 00       	call   5a68 <kprintf>
    1495:	c7 04 24 c4 9a 00 00 	movl   $0x9ac4,(%esp)
    149c:	e8 c7 45 00 00       	call   5a68 <kprintf>
    14a1:	b8 01 00 00 00       	mov    $0x1,%eax
    14a6:	c9                   	leave  
    14a7:	c3                   	ret    

000014a8 <mon_arpinit>:
    14a8:	55                   	push   %ebp
    14a9:	89 e5                	mov    %esp,%ebp
    14ab:	ba 00 00 00 00       	mov    $0x0,%edx
    14b0:	89 d0                	mov    %edx,%eax
    14b2:	c1 e0 04             	shl    $0x4,%eax
    14b5:	66 c7 80 e0 8b 01 00 	movw   $0x0,0x18be0(%eax)
    14bc:	00 00 
    14be:	42                   	inc    %edx
    14bf:	83 fa 02             	cmp    $0x2,%edx
    14c2:	7e ec                	jle    14b0 <mon_arpinit+0x8>
    14c4:	5d                   	pop    %ebp
    14c5:	c3                   	ret    

000014c6 <mon_arp_in>:
    14c6:	55                   	push   %ebp
    14c7:	89 e5                	mov    %esp,%ebp
    14c9:	57                   	push   %edi
    14ca:	56                   	push   %esi
    14cb:	53                   	push   %ebx
    14cc:	83 ec 0c             	sub    $0xc,%esp
    14cf:	8b 7d 0c             	mov    0xc(%ebp),%edi
    14d2:	8d 77 16             	lea    0x16(%edi),%esi
    14d5:	ba 00 00 00 00       	mov    $0x0,%edx
    14da:	8a 57 17             	mov    0x17(%edi),%dl
    14dd:	b8 00 00 00 00       	mov    $0x0,%eax
    14e2:	8a 47 16             	mov    0x16(%edi),%al
    14e5:	c1 e0 08             	shl    $0x8,%eax
    14e8:	09 c2                	or     %eax,%edx
    14ea:	66 89 57 16          	mov    %dx,0x16(%edi)
    14ee:	ba 00 00 00 00       	mov    $0x0,%edx
    14f3:	8a 56 03             	mov    0x3(%esi),%dl
    14f6:	b8 00 00 00 00       	mov    $0x0,%eax
    14fb:	8a 46 02             	mov    0x2(%esi),%al
    14fe:	c1 e0 08             	shl    $0x8,%eax
    1501:	09 c2                	or     %eax,%edx
    1503:	66 89 56 02          	mov    %dx,0x2(%esi)
    1507:	ba 00 00 00 00       	mov    $0x0,%edx
    150c:	8a 56 07             	mov    0x7(%esi),%dl
    150f:	b8 00 00 00 00       	mov    $0x0,%eax
    1514:	8a 46 06             	mov    0x6(%esi),%al
    1517:	c1 e0 08             	shl    $0x8,%eax
    151a:	09 c2                	or     %eax,%edx
    151c:	66 89 56 06          	mov    %dx,0x6(%esi)
    1520:	66 83 7f 16 01       	cmpw   $0x1,0x16(%edi)
    1525:	75 08                	jne    152f <mon_arp_in+0x69>
    1527:	66 81 7e 02 00 08    	cmpw   $0x800,0x2(%esi)
    152d:	74 13                	je     1542 <mon_arp_in+0x7c>
    152f:	83 ec 0c             	sub    $0xc,%esp
    1532:	57                   	push   %edi
    1533:	e8 d4 35 00 00       	call   4b0c <freebuf>
    1538:	b8 01 00 00 00       	mov    $0x1,%eax
    153d:	e9 e7 01 00 00       	jmp    1729 <mon_arp_in+0x263>
    1542:	83 ec 0c             	sub    $0xc,%esp
    1545:	0f be 46 04          	movsbl 0x4(%esi),%eax
    1549:	8d 44 30 08          	lea    0x8(%eax,%esi,1),%eax
    154d:	50                   	push   %eax
    154e:	e8 0f 02 00 00       	call   1762 <mon_arpfind>
    1553:	89 c3                	mov    %eax,%ebx
    1555:	83 c4 10             	add    $0x10,%esp
    1558:	85 c0                	test   %eax,%eax
    155a:	74 15                	je     1571 <mon_arp_in+0xab>
    155c:	83 ec 04             	sub    $0x4,%esp
    155f:	6a 06                	push   $0x6
    1561:	8d 46 08             	lea    0x8(%esi),%eax
    1564:	50                   	push   %eax
    1565:	8d 43 02             	lea    0x2(%ebx),%eax
    1568:	50                   	push   %eax
    1569:	e8 f2 7a 00 00       	call   9060 <blkcopy>
    156e:	83 c4 10             	add    $0x10,%esp
    1571:	83 ec 04             	sub    $0x4,%esp
    1574:	6a 04                	push   $0x4
    1576:	8b 45 08             	mov    0x8(%ebp),%eax
    1579:	83 c0 04             	add    $0x4,%eax
    157c:	50                   	push   %eax
    157d:	0f be 46 04          	movsbl 0x4(%esi),%eax
    1581:	0f be 56 05          	movsbl 0x5(%esi),%edx
    1585:	8d 04 42             	lea    (%edx,%eax,2),%eax
    1588:	8d 44 06 08          	lea    0x8(%esi,%eax,1),%eax
    158c:	50                   	push   %eax
    158d:	e8 47 08 00 00       	call   1dd9 <mon_blkequ>
    1592:	83 c4 10             	add    $0x10,%esp
    1595:	85 c0                	test   %eax,%eax
    1597:	75 13                	jne    15ac <mon_arp_in+0xe6>
    1599:	83 ec 0c             	sub    $0xc,%esp
    159c:	57                   	push   %edi
    159d:	e8 6a 35 00 00       	call   4b0c <freebuf>
    15a2:	b8 01 00 00 00       	mov    $0x1,%eax
    15a7:	e9 7d 01 00 00       	jmp    1729 <mon_arp_in+0x263>
    15ac:	85 db                	test   %ebx,%ebx
    15ae:	75 3f                	jne    15ef <mon_arp_in+0x129>
    15b0:	e8 7c 01 00 00       	call   1731 <mon_arpalloc>
    15b5:	89 c3                	mov    %eax,%ebx
    15b7:	c7 40 0c 00 00 00 00 	movl   $0x0,0xc(%eax)
    15be:	83 ec 04             	sub    $0x4,%esp
    15c1:	6a 06                	push   $0x6
    15c3:	8d 46 08             	lea    0x8(%esi),%eax
    15c6:	50                   	push   %eax
    15c7:	8d 43 02             	lea    0x2(%ebx),%eax
    15ca:	50                   	push   %eax
    15cb:	e8 90 7a 00 00       	call   9060 <blkcopy>
    15d0:	83 c4 0c             	add    $0xc,%esp
    15d3:	6a 04                	push   $0x4
    15d5:	0f be 46 04          	movsbl 0x4(%esi),%eax
    15d9:	8d 44 30 08          	lea    0x8(%eax,%esi,1),%eax
    15dd:	50                   	push   %eax
    15de:	8d 43 08             	lea    0x8(%ebx),%eax
    15e1:	50                   	push   %eax
    15e2:	e8 79 7a 00 00       	call   9060 <blkcopy>
    15e7:	66 c7 03 02 00       	movw   $0x2,(%ebx)
    15ec:	83 c4 10             	add    $0x10,%esp
    15ef:	66 83 3b 01          	cmpw   $0x1,(%ebx)
    15f3:	75 28                	jne    161d <mon_arp_in+0x157>
    15f5:	66 c7 03 02 00       	movw   $0x2,(%ebx)
    15fa:	83 7b 0c 00          	cmpl   $0x0,0xc(%ebx)
    15fe:	74 1d                	je     161d <mon_arp_in+0x157>
    1600:	83 ec 08             	sub    $0x8,%esp
    1603:	8b 43 0c             	mov    0xc(%ebx),%eax
    1606:	0f bf 40 06          	movswl 0x6(%eax),%eax
    160a:	50                   	push   %eax
    160b:	ff 73 0c             	pushl  0xc(%ebx)
    160e:	e8 6a 06 00 00       	call   1c7d <mon_netwrite>
    1613:	c7 43 0c 00 00 00 00 	movl   $0x0,0xc(%ebx)
    161a:	83 c4 10             	add    $0x10,%esp
    161d:	66 83 7e 06 01       	cmpw   $0x1,0x6(%esi)
    1622:	0f 85 f0 00 00 00    	jne    1718 <mon_arp_in+0x252>
    1628:	66 c7 46 06 02 00    	movw   $0x2,0x6(%esi)
    162e:	83 ec 04             	sub    $0x4,%esp
    1631:	0f be 4e 05          	movsbl 0x5(%esi),%ecx
    1635:	51                   	push   %ecx
    1636:	0f be 46 04          	movsbl 0x4(%esi),%eax
    163a:	8d 54 30 08          	lea    0x8(%eax,%esi,1),%edx
    163e:	52                   	push   %edx
    163f:	8d 04 41             	lea    (%ecx,%eax,2),%eax
    1642:	8d 44 06 08          	lea    0x8(%esi,%eax,1),%eax
    1646:	50                   	push   %eax
    1647:	e8 14 7a 00 00       	call   9060 <blkcopy>
    164c:	83 c4 0c             	add    $0xc,%esp
    164f:	0f be 56 04          	movsbl 0x4(%esi),%edx
    1653:	52                   	push   %edx
    1654:	8d 5e 08             	lea    0x8(%esi),%ebx
    1657:	53                   	push   %ebx
    1658:	0f be 46 05          	movsbl 0x5(%esi),%eax
    165c:	01 c2                	add    %eax,%edx
    165e:	8d 44 16 08          	lea    0x8(%esi,%edx,1),%eax
    1662:	50                   	push   %eax
    1663:	e8 f8 79 00 00       	call   9060 <blkcopy>
    1668:	83 c4 0c             	add    $0xc,%esp
    166b:	6a 06                	push   $0x6
    166d:	0f be 46 04          	movsbl 0x4(%esi),%eax
    1671:	0f be 56 05          	movsbl 0x5(%esi),%edx
    1675:	01 d0                	add    %edx,%eax
    1677:	8d 44 06 08          	lea    0x8(%esi,%eax,1),%eax
    167b:	50                   	push   %eax
    167c:	8d 47 08             	lea    0x8(%edi),%eax
    167f:	50                   	push   %eax
    1680:	e8 db 79 00 00       	call   9060 <blkcopy>
    1685:	83 c4 0c             	add    $0xc,%esp
    1688:	6a 06                	push   $0x6
    168a:	8b 45 08             	mov    0x8(%ebp),%eax
    168d:	83 c0 08             	add    $0x8,%eax
    1690:	50                   	push   %eax
    1691:	53                   	push   %ebx
    1692:	e8 c9 79 00 00       	call   9060 <blkcopy>
    1697:	83 c4 0c             	add    $0xc,%esp
    169a:	6a 04                	push   $0x4
    169c:	8b 45 08             	mov    0x8(%ebp),%eax
    169f:	83 c0 04             	add    $0x4,%eax
    16a2:	50                   	push   %eax
    16a3:	0f be 46 04          	movsbl 0x4(%esi),%eax
    16a7:	8d 44 30 08          	lea    0x8(%eax,%esi,1),%eax
    16ab:	50                   	push   %eax
    16ac:	e8 af 79 00 00       	call   9060 <blkcopy>
    16b1:	ba 00 00 00 00       	mov    $0x0,%edx
    16b6:	8a 56 01             	mov    0x1(%esi),%dl
    16b9:	b8 00 00 00 00       	mov    $0x0,%eax
    16be:	8a 06                	mov    (%esi),%al
    16c0:	c1 e0 08             	shl    $0x8,%eax
    16c3:	09 c2                	or     %eax,%edx
    16c5:	66 89 16             	mov    %dx,(%esi)
    16c8:	ba 00 00 00 00       	mov    $0x0,%edx
    16cd:	8a 56 03             	mov    0x3(%esi),%dl
    16d0:	b8 00 00 00 00       	mov    $0x0,%eax
    16d5:	8a 46 02             	mov    0x2(%esi),%al
    16d8:	c1 e0 08             	shl    $0x8,%eax
    16db:	09 c2                	or     %eax,%edx
    16dd:	66 89 56 02          	mov    %dx,0x2(%esi)
    16e1:	ba 00 00 00 00       	mov    $0x0,%edx
    16e6:	8a 56 07             	mov    0x7(%esi),%dl
    16e9:	b8 00 00 00 00       	mov    $0x0,%eax
    16ee:	8a 46 06             	mov    0x6(%esi),%al
    16f1:	c1 e0 08             	shl    $0x8,%eax
    16f4:	09 c2                	or     %eax,%edx
    16f6:	66 89 56 06          	mov    %dx,0x6(%esi)
    16fa:	0f be 46 05          	movsbl 0x5(%esi),%eax
    16fe:	0f be 56 04          	movsbl 0x4(%esi),%edx
    1702:	01 d0                	add    %edx,%eax
    1704:	8d 44 00 08          	lea    0x8(%eax,%eax,1),%eax
    1708:	83 c4 08             	add    $0x8,%esp
    170b:	50                   	push   %eax
    170c:	57                   	push   %edi
    170d:	ff 15 88 8c 01 00    	call   *0x18c88
    1713:	83 c4 10             	add    $0x10,%esp
    1716:	eb 0c                	jmp    1724 <mon_arp_in+0x25e>
    1718:	83 ec 0c             	sub    $0xc,%esp
    171b:	57                   	push   %edi
    171c:	e8 eb 33 00 00       	call   4b0c <freebuf>
    1721:	83 c4 10             	add    $0x10,%esp
    1724:	b8 01 00 00 00       	mov    $0x1,%eax
    1729:	8d 65 f4             	lea    0xfffffff4(%ebp),%esp
    172c:	5b                   	pop    %ebx
    172d:	5e                   	pop    %esi
    172e:	5f                   	pop    %edi
    172f:	5d                   	pop    %ebp
    1730:	c3                   	ret    

00001731 <mon_arpalloc>:
    1731:	55                   	push   %ebp
    1732:	89 e5                	mov    %esp,%ebp
    1734:	ba 00 00 00 00       	mov    $0x0,%edx
    1739:	89 d0                	mov    %edx,%eax
    173b:	c1 e0 04             	shl    $0x4,%eax
    173e:	8d 88 e0 8b 01 00    	lea    0x18be0(%eax),%ecx
    1744:	66 83 b8 e0 8b 01 00 	cmpw   $0x0,0x18be0(%eax)
    174b:	00 
    174c:	74 06                	je     1754 <mon_arpalloc+0x23>
    174e:	42                   	inc    %edx
    174f:	83 fa 02             	cmp    $0x2,%edx
    1752:	7e e5                	jle    1739 <mon_arpalloc+0x8>
    1754:	83 fa 03             	cmp    $0x3,%edx
    1757:	75 05                	jne    175e <mon_arpalloc+0x2d>
    1759:	b9 e0 8b 01 00       	mov    $0x18be0,%ecx
    175e:	89 c8                	mov    %ecx,%eax
    1760:	5d                   	pop    %ebp
    1761:	c3                   	ret    

00001762 <mon_arpfind>:
    1762:	55                   	push   %ebp
    1763:	89 e5                	mov    %esp,%ebp
    1765:	57                   	push   %edi
    1766:	56                   	push   %esi
    1767:	53                   	push   %ebx
    1768:	83 ec 0c             	sub    $0xc,%esp
    176b:	8b 7d 08             	mov    0x8(%ebp),%edi
    176e:	bb 00 00 00 00       	mov    $0x0,%ebx
    1773:	89 d8                	mov    %ebx,%eax
    1775:	c1 e0 04             	shl    $0x4,%eax
    1778:	8d b0 e0 8b 01 00    	lea    0x18be0(%eax),%esi
    177e:	66 83 b8 e0 8b 01 00 	cmpw   $0x0,0x18be0(%eax)
    1785:	00 
    1786:	74 1a                	je     17a2 <mon_arpfind+0x40>
    1788:	83 ec 04             	sub    $0x4,%esp
    178b:	6a 04                	push   $0x4
    178d:	57                   	push   %edi
    178e:	8d 46 08             	lea    0x8(%esi),%eax
    1791:	50                   	push   %eax
    1792:	e8 42 06 00 00       	call   1dd9 <mon_blkequ>
    1797:	83 c4 10             	add    $0x10,%esp
    179a:	85 c0                	test   %eax,%eax
    179c:	74 04                	je     17a2 <mon_arpfind+0x40>
    179e:	89 f0                	mov    %esi,%eax
    17a0:	eb 0b                	jmp    17ad <mon_arpfind+0x4b>
    17a2:	43                   	inc    %ebx
    17a3:	83 fb 02             	cmp    $0x2,%ebx
    17a6:	7e cb                	jle    1773 <mon_arpfind+0x11>
    17a8:	b8 00 00 00 00       	mov    $0x0,%eax
    17ad:	8d 65 f4             	lea    0xfffffff4(%ebp),%esp
    17b0:	5b                   	pop    %ebx
    17b1:	5e                   	pop    %esi
    17b2:	5f                   	pop    %edi
    17b3:	5d                   	pop    %ebp
    17b4:	c3                   	ret    

000017b5 <mon_arpsend>:
    17b5:	55                   	push   %ebp
    17b6:	89 e5                	mov    %esp,%ebp
    17b8:	57                   	push   %edi
    17b9:	56                   	push   %esi
    17ba:	53                   	push   %ebx
    17bb:	83 ec 18             	sub    $0x18,%esp
    17be:	bf 74 8c 01 00       	mov    $0x18c74,%edi
    17c3:	ff 35 70 8c 01 00    	pushl  0x18c70
    17c9:	e8 ce 34 00 00       	call   4c9c <getbuf>
    17ce:	89 c6                	mov    %eax,%esi
    17d0:	83 c4 10             	add    $0x10,%esp
    17d3:	b8 ff ff ff ff       	mov    $0xffffffff,%eax
    17d8:	83 fe ff             	cmp    $0xffffffff,%esi
    17db:	0f 84 b6 00 00 00    	je     1897 <mon_arpsend+0xe2>
    17e1:	83 ec 04             	sub    $0x4,%esp
    17e4:	6a 06                	push   $0x6
    17e6:	8d 47 0e             	lea    0xe(%edi),%eax
    17e9:	50                   	push   %eax
    17ea:	8d 46 08             	lea    0x8(%esi),%eax
    17ed:	50                   	push   %eax
    17ee:	e8 6d 78 00 00       	call   9060 <blkcopy>
    17f3:	66 c7 46 14 06 08    	movw   $0x806,0x14(%esi)
    17f9:	8d 5e 16             	lea    0x16(%esi),%ebx
    17fc:	66 c7 46 16 00 01    	movw   $0x100,0x16(%esi)
    1802:	66 c7 43 02 08 00    	movw   $0x8,0x2(%ebx)
    1808:	c6 43 04 06          	movb   $0x6,0x4(%ebx)
    180c:	c6 43 05 04          	movb   $0x4,0x5(%ebx)
    1810:	66 c7 43 06 00 01    	movw   $0x100,0x6(%ebx)
    1816:	83 c4 0c             	add    $0xc,%esp
    1819:	6a 06                	push   $0x6
    181b:	8d 47 08             	lea    0x8(%edi),%eax
    181e:	50                   	push   %eax
    181f:	8d 46 1e             	lea    0x1e(%esi),%eax
    1822:	50                   	push   %eax
    1823:	e8 38 78 00 00       	call   9060 <blkcopy>
    1828:	83 c4 0c             	add    $0xc,%esp
    182b:	6a 04                	push   $0x4
    182d:	8d 47 04             	lea    0x4(%edi),%eax
    1830:	50                   	push   %eax
    1831:	0f be 43 04          	movsbl 0x4(%ebx),%eax
    1835:	8d 44 18 08          	lea    0x8(%eax,%ebx,1),%eax
    1839:	50                   	push   %eax
    183a:	e8 21 78 00 00       	call   9060 <blkcopy>
    183f:	83 c4 08             	add    $0x8,%esp
    1842:	6a 06                	push   $0x6
    1844:	0f be 43 04          	movsbl 0x4(%ebx),%eax
    1848:	0f be 53 05          	movsbl 0x5(%ebx),%edx
    184c:	01 d0                	add    %edx,%eax
    184e:	8d 44 03 08          	lea    0x8(%ebx,%eax,1),%eax
    1852:	50                   	push   %eax
    1853:	e8 8e e8 ff ff       	call   e6 <bzero>
    1858:	83 c4 0c             	add    $0xc,%esp
    185b:	6a 04                	push   $0x4
    185d:	8b 45 08             	mov    0x8(%ebp),%eax
    1860:	83 c0 08             	add    $0x8,%eax
    1863:	50                   	push   %eax
    1864:	0f be 43 04          	movsbl 0x4(%ebx),%eax
    1868:	0f be 53 05          	movsbl 0x5(%ebx),%edx
    186c:	8d 04 42             	lea    (%edx,%eax,2),%eax
    186f:	8d 44 03 08          	lea    0x8(%ebx,%eax,1),%eax
    1873:	50                   	push   %eax
    1874:	e8 e7 77 00 00       	call   9060 <blkcopy>
    1879:	0f be 43 04          	movsbl 0x4(%ebx),%eax
    187d:	0f be 53 05          	movsbl 0x5(%ebx),%edx
    1881:	01 d0                	add    %edx,%eax
    1883:	83 c4 08             	add    $0x8,%esp
    1886:	8d 44 00 16          	lea    0x16(%eax,%eax,1),%eax
    188a:	50                   	push   %eax
    188b:	56                   	push   %esi
    188c:	ff 15 88 8c 01 00    	call   *0x18c88
    1892:	b8 01 00 00 00       	mov    $0x1,%eax
    1897:	8d 65 f4             	lea    0xfffffff4(%ebp),%esp
    189a:	5b                   	pop    %ebx
    189b:	5e                   	pop    %esi
    189c:	5f                   	pop    %edi
    189d:	5d                   	pop    %ebp
    189e:	c3                   	ret    
    189f:	90                   	nop    

000018a0 <mon_bootp_in>:
    18a0:	55                   	push   %ebp
    18a1:	89 e5                	mov    %esp,%ebp
    18a3:	83 ec 08             	sub    $0x8,%esp
    18a6:	8b 45 08             	mov    0x8(%ebp),%eax
    18a9:	8d 50 08             	lea    0x8(%eax),%edx
    18ac:	80 78 08 02          	cmpb   $0x2,0x8(%eax)
    18b0:	75 16                	jne    18c8 <mon_bootp_in+0x28>
    18b2:	83 ec 0c             	sub    $0xc,%esp
    18b5:	52                   	push   %edx
    18b6:	e8 16 00 00 00       	call   18d1 <mon_bootp_parse>
    18bb:	83 c4 10             	add    $0x10,%esp
    18be:	ba ff ff ff ff       	mov    $0xffffffff,%edx
    18c3:	83 f8 01             	cmp    $0x1,%eax
    18c6:	75 05                	jne    18cd <mon_bootp_in+0x2d>
    18c8:	ba 01 00 00 00       	mov    $0x1,%edx
    18cd:	89 d0                	mov    %edx,%eax
    18cf:	c9                   	leave  
    18d0:	c3                   	ret    

000018d1 <mon_bootp_parse>:
    18d1:	55                   	push   %ebp
    18d2:	89 e5                	mov    %esp,%ebp
    18d4:	53                   	push   %ebx
    18d5:	83 ec 04             	sub    $0x4,%esp
    18d8:	8b 5d 08             	mov    0x8(%ebp),%ebx
    18db:	8b 83 ec 00 00 00    	mov    0xec(%ebx),%eax
    18e1:	89 c1                	mov    %eax,%ecx
    18e3:	c1 e1 18             	shl    $0x18,%ecx
    18e6:	89 c2                	mov    %eax,%edx
    18e8:	c1 ea 18             	shr    $0x18,%edx
    18eb:	09 d1                	or     %edx,%ecx
    18ed:	89 c2                	mov    %eax,%edx
    18ef:	81 e2 00 00 ff 00    	and    $0xff0000,%edx
    18f5:	c1 ea 08             	shr    $0x8,%edx
    18f8:	25 00 ff 00 00       	and    $0xff00,%eax
    18fd:	c1 e0 08             	shl    $0x8,%eax
    1900:	09 c2                	or     %eax,%edx
    1902:	09 d1                	or     %edx,%ecx
    1904:	b8 ff ff ff ff       	mov    $0xffffffff,%eax
    1909:	81 f9 63 53 82 63    	cmp    $0x63825363,%ecx
    190f:	75 29                	jne    193a <mon_bootp_parse+0x69>
    1911:	8b 53 10             	mov    0x10(%ebx),%edx
    1914:	a1 c0 b2 00 00       	mov    0xb2c0,%eax
    1919:	89 50 04             	mov    %edx,0x4(%eax)
    191c:	8b 43 14             	mov    0x14(%ebx),%eax
    191f:	a3 e0 9a 01 00       	mov    %eax,0x19ae0
    1924:	83 ec 08             	sub    $0x8,%esp
    1927:	8d 43 6c             	lea    0x6c(%ebx),%eax
    192a:	50                   	push   %eax
    192b:	68 20 8c 01 00       	push   $0x18c20
    1930:	e8 ef 7e 00 00       	call   9824 <strcpy>
    1935:	b8 01 00 00 00       	mov    $0x1,%eax
    193a:	8b 5d fc             	mov    0xfffffffc(%ebp),%ebx
    193d:	c9                   	leave  
    193e:	c3                   	ret    

0000193f <mon_bootp_request>:
    193f:	55                   	push   %ebp
    1940:	89 e5                	mov    %esp,%ebp
    1942:	57                   	push   %edi
    1943:	56                   	push   %esi
    1944:	53                   	push   %ebx
    1945:	81 ec 58 01 00 00    	sub    $0x158,%esp
    194b:	ff 35 70 8c 01 00    	pushl  0x18c70
    1951:	e8 46 33 00 00       	call   4c9c <getbuf>
    1956:	89 85 b4 fe ff ff    	mov    %eax,0xfffffeb4(%ebp)
    195c:	83 c4 10             	add    $0x10,%esp
    195f:	b8 ff ff ff ff       	mov    $0xffffffff,%eax
    1964:	83 bd b4 fe ff ff 00 	cmpl   $0x0,0xfffffeb4(%ebp)
    196b:	0f 84 d4 00 00 00    	je     1a45 <mon_bootp_request+0x106>
    1971:	8b 9d b4 fe ff ff    	mov    0xfffffeb4(%ebp),%ebx
    1977:	83 c3 16             	add    $0x16,%ebx
    197a:	8b bd b4 fe ff ff    	mov    0xfffffeb4(%ebp),%edi
    1980:	83 c7 2a             	add    $0x2a,%edi
    1983:	83 ec 08             	sub    $0x8,%esp
    1986:	ff 75 08             	pushl  0x8(%ebp)
    1989:	8d b5 b8 fe ff ff    	lea    0xfffffeb8(%ebp),%esi
    198f:	56                   	push   %esi
    1990:	e8 b8 00 00 00       	call   1a4d <make_bootp_packet>
    1995:	83 c4 0c             	add    $0xc,%esp
    1998:	68 2c 01 00 00       	push   $0x12c
    199d:	56                   	push   %esi
    199e:	8b 85 b4 fe ff ff    	mov    0xfffffeb4(%ebp),%eax
    19a4:	83 c0 32             	add    $0x32,%eax
    19a7:	50                   	push   %eax
    19a8:	e8 b3 76 00 00       	call   9060 <blkcopy>
    19ad:	8b 85 b4 fe ff ff    	mov    0xfffffeb4(%ebp),%eax
    19b3:	66 c7 40 2a 00 44    	movw   $0x4400,0x2a(%eax)
    19b9:	66 c7 47 02 00 43    	movw   $0x4300,0x2(%edi)
    19bf:	66 c7 47 04 01 34    	movw   $0x3401,0x4(%edi)
    19c5:	66 c7 47 06 00 00    	movw   $0x0,0x6(%edi)
    19cb:	c6 43 09 11          	movb   $0x11,0x9(%ebx)
    19cf:	c6 40 16 45          	movb   $0x45,0x16(%eax)
    19d3:	c6 43 01 00          	movb   $0x0,0x1(%ebx)
    19d7:	66 c7 43 02 01 48    	movw   $0x4801,0x2(%ebx)
    19dd:	66 c7 43 04 00 00    	movw   $0x0,0x4(%ebx)
    19e3:	66 c7 43 06 00 00    	movw   $0x0,0x6(%ebx)
    19e9:	c6 43 08 ff          	movb   $0xff,0x8(%ebx)
    19ed:	c7 43 0c 00 00 00 00 	movl   $0x0,0xc(%ebx)
    19f4:	a1 ac b2 00 00       	mov    0xb2ac,%eax
    19f9:	89 43 10             	mov    %eax,0x10(%ebx)
    19fc:	66 c7 43 0a 00 00    	movw   $0x0,0xa(%ebx)
    1a02:	83 c4 08             	add    $0x8,%esp
    1a05:	6a 14                	push   $0x14
    1a07:	53                   	push   %ebx
    1a08:	e8 c7 71 00 00       	call   8bd4 <mon_cksum>
    1a0d:	66 89 43 0a          	mov    %ax,0xa(%ebx)
    1a11:	83 c4 0c             	add    $0xc,%esp
    1a14:	6a 06                	push   $0x6
    1a16:	68 5f 9b 00 00       	push   $0x9b5f
    1a1b:	8b 85 b4 fe ff ff    	mov    0xfffffeb4(%ebp),%eax
    1a21:	83 c0 08             	add    $0x8,%eax
    1a24:	50                   	push   %eax
    1a25:	e8 36 76 00 00       	call   9060 <blkcopy>
    1a2a:	8b 85 b4 fe ff ff    	mov    0xfffffeb4(%ebp),%eax
    1a30:	66 c7 40 14 00 08    	movw   $0x800,0x14(%eax)
    1a36:	83 c4 08             	add    $0x8,%esp
    1a39:	68 56 01 00 00       	push   $0x156
    1a3e:	50                   	push   %eax
    1a3f:	ff 15 88 8c 01 00    	call   *0x18c88
    1a45:	8d 65 f4             	lea    0xfffffff4(%ebp),%esp
    1a48:	5b                   	pop    %ebx
    1a49:	5e                   	pop    %esi
    1a4a:	5f                   	pop    %edi
    1a4b:	5d                   	pop    %ebp
    1a4c:	c3                   	ret    

00001a4d <make_bootp_packet>:
    1a4d:	55                   	push   %ebp
    1a4e:	89 e5                	mov    %esp,%ebp
    1a50:	53                   	push   %ebx
    1a51:	83 ec 0c             	sub    $0xc,%esp
    1a54:	8b 5d 08             	mov    0x8(%ebp),%ebx
    1a57:	68 2c 01 00 00       	push   $0x12c
    1a5c:	53                   	push   %ebx
    1a5d:	e8 84 e6 ff ff       	call   e6 <bzero>
    1a62:	c6 03 01             	movb   $0x1,(%ebx)
    1a65:	c6 43 01 01          	movb   $0x1,0x1(%ebx)
    1a69:	c6 43 02 06          	movb   $0x6,0x2(%ebx)
    1a6d:	c7 43 04 2f 00 00 00 	movl   $0x2f,0x4(%ebx)
    1a74:	8b 55 0c             	mov    0xc(%ebp),%edx
    1a77:	0f b6 c6             	movzbl %dh,%eax
    1a7a:	0f b6 55 0c          	movzbl 0xc(%ebp),%edx
    1a7e:	c1 e2 08             	shl    $0x8,%edx
    1a81:	09 d0                	or     %edx,%eax
    1a83:	66 89 43 08          	mov    %ax,0x8(%ebx)
    1a87:	83 c4 0c             	add    $0xc,%esp
    1a8a:	6a 06                	push   $0x6
    1a8c:	68 a0 8c 01 00       	push   $0x18ca0
    1a91:	8d 43 1c             	lea    0x1c(%ebx),%eax
    1a94:	50                   	push   %eax
    1a95:	e8 c6 75 00 00       	call   9060 <blkcopy>
    1a9a:	c7 83 ec 00 00 00 63 	movl   $0x63538263,0xec(%ebx)
    1aa1:	82 53 63 
    1aa4:	c6 83 f1 00 00 00 ff 	movb   $0xff,0xf1(%ebx)
    1aab:	b8 01 00 00 00       	mov    $0x1,%eax
    1ab0:	8b 5d fc             	mov    0xfffffffc(%ebp),%ebx
    1ab3:	c9                   	leave  
    1ab4:	c3                   	ret    
    1ab5:	90                   	nop    
    1ab6:	90                   	nop    
    1ab7:	90                   	nop    

00001ab8 <mon_ip_in>:
    1ab8:	55                   	push   %ebp
    1ab9:	89 e5                	mov    %esp,%ebp
    1abb:	56                   	push   %esi
    1abc:	53                   	push   %ebx
    1abd:	8b 75 0c             	mov    0xc(%ebp),%esi
    1ac0:	8d 5e 16             	lea    0x16(%esi),%ebx
    1ac3:	8a 46 16             	mov    0x16(%esi),%al
    1ac6:	c0 e8 04             	shr    $0x4,%al
    1ac9:	3c 04                	cmp    $0x4,%al
    1acb:	74 13                	je     1ae0 <mon_ip_in+0x28>
    1acd:	83 ec 0c             	sub    $0xc,%esp
    1ad0:	56                   	push   %esi
    1ad1:	e8 36 30 00 00       	call   4b0c <freebuf>
    1ad6:	b8 01 00 00 00       	mov    $0x1,%eax
    1adb:	e9 ad 00 00 00       	jmp    1b8d <mon_ip_in+0xd5>
    1ae0:	8b 43 10             	mov    0x10(%ebx),%eax
    1ae3:	25 f8 00 00 00       	and    $0xf8,%eax
    1ae8:	3d f0 00 00 00       	cmp    $0xf0,%eax
    1aed:	75 13                	jne    1b02 <mon_ip_in+0x4a>
    1aef:	83 ec 0c             	sub    $0xc,%esp
    1af2:	56                   	push   %esi
    1af3:	e8 14 30 00 00       	call   4b0c <freebuf>
    1af8:	b8 01 00 00 00       	mov    $0x1,%eax
    1afd:	e9 8b 00 00 00       	jmp    1b8d <mon_ip_in+0xd5>
    1b02:	83 ec 08             	sub    $0x8,%esp
    1b05:	b8 00 00 00 00       	mov    $0x0,%eax
    1b0a:	8a 03                	mov    (%ebx),%al
    1b0c:	83 e0 0f             	and    $0xf,%eax
    1b0f:	c1 e0 02             	shl    $0x2,%eax
    1b12:	50                   	push   %eax
    1b13:	53                   	push   %ebx
    1b14:	e8 bb 70 00 00       	call   8bd4 <mon_cksum>
    1b19:	83 c4 10             	add    $0x10,%esp
    1b1c:	66 85 c0             	test   %ax,%ax
    1b1f:	74 10                	je     1b31 <mon_ip_in+0x79>
    1b21:	83 ec 0c             	sub    $0xc,%esp
    1b24:	56                   	push   %esi
    1b25:	e8 e2 2f 00 00       	call   4b0c <freebuf>
    1b2a:	b8 01 00 00 00       	mov    $0x1,%eax
    1b2f:	eb 5c                	jmp    1b8d <mon_ip_in+0xd5>
    1b31:	ba 00 00 00 00       	mov    $0x0,%edx
    1b36:	8a 53 03             	mov    0x3(%ebx),%dl
    1b39:	b8 00 00 00 00       	mov    $0x0,%eax
    1b3e:	8a 43 02             	mov    0x2(%ebx),%al
    1b41:	c1 e0 08             	shl    $0x8,%eax
    1b44:	09 c2                	or     %eax,%edx
    1b46:	66 89 53 02          	mov    %dx,0x2(%ebx)
    1b4a:	ba 00 00 00 00       	mov    $0x0,%edx
    1b4f:	8a 53 05             	mov    0x5(%ebx),%dl
    1b52:	b8 00 00 00 00       	mov    $0x0,%eax
    1b57:	8a 43 04             	mov    0x4(%ebx),%al
    1b5a:	c1 e0 08             	shl    $0x8,%eax
    1b5d:	09 c2                	or     %eax,%edx
    1b5f:	66 89 53 04          	mov    %dx,0x4(%ebx)
    1b63:	80 7b 09 11          	cmpb   $0x11,0x9(%ebx)
    1b67:	74 10                	je     1b79 <mon_ip_in+0xc1>
    1b69:	83 ec 0c             	sub    $0xc,%esp
    1b6c:	56                   	push   %esi
    1b6d:	e8 9a 2f 00 00       	call   4b0c <freebuf>
    1b72:	b8 01 00 00 00       	mov    $0x1,%eax
    1b77:	eb 14                	jmp    1b8d <mon_ip_in+0xd5>
    1b79:	83 ec 08             	sub    $0x8,%esp
    1b7c:	56                   	push   %esi
    1b7d:	ff 75 08             	pushl  0x8(%ebp)
    1b80:	e8 83 02 00 00       	call   1e08 <mon_udp_in>
    1b85:	83 c4 10             	add    $0x10,%esp
    1b88:	b8 01 00 00 00       	mov    $0x1,%eax
    1b8d:	8d 65 f8             	lea    0xfffffff8(%ebp),%esp
    1b90:	5b                   	pop    %ebx
    1b91:	5e                   	pop    %esi
    1b92:	5d                   	pop    %ebp
    1b93:	c3                   	ret    

00001b94 <mon_init>:
    1b94:	55                   	push   %ebp
    1b95:	89 e5                	mov    %esp,%ebp
    1b97:	83 ec 08             	sub    $0x8,%esp
    1b9a:	e8 8a 06 00 00       	call   2229 <mon_initq>
    1b9f:	83 ec 08             	sub    $0x8,%esp
    1ba2:	6a 10                	push   $0x10
    1ba4:	68 fa 05 00 00       	push   $0x5fa
    1ba9:	e8 b6 3f 00 00       	call   5b64 <mkpool>
    1bae:	a3 70 8c 01 00       	mov    %eax,0x18c70
    1bb3:	b8 01 00 00 00       	mov    $0x1,%eax
    1bb8:	c9                   	leave  
    1bb9:	c3                   	ret    

00001bba <mon_netinit>:
    1bba:	55                   	push   %ebp
    1bbb:	89 e5                	mov    %esp,%ebp
    1bbd:	83 ec 0c             	sub    $0xc,%esp
    1bc0:	6a 06                	push   $0x6
    1bc2:	68 a0 8c 01 00       	push   $0x18ca0
    1bc7:	68 7c 8c 01 00       	push   $0x18c7c
    1bcc:	e8 8f 74 00 00       	call   9060 <blkcopy>
    1bd1:	83 c4 0c             	add    $0xc,%esp
    1bd4:	6a 06                	push   $0x6
    1bd6:	68 a6 8c 01 00       	push   $0x18ca6
    1bdb:	68 82 8c 01 00       	push   $0x18c82
    1be0:	e8 7b 74 00 00       	call   9060 <blkcopy>
    1be5:	c6 05 74 8c 01 00 01 	movb   $0x1,0x18c74
    1bec:	66 c7 05 7c 8f 01 00 	movw   $0xfffb,0x18f7c
    1bf3:	fb ff 
    1bf5:	83 c4 08             	add    $0x8,%esp
    1bf8:	68 78 8c 00 00       	push   $0x8c78
    1bfd:	6a 20                	push   $0x20
    1bff:	e8 de 2c 00 00       	call   48e2 <set_evec>
    1c04:	66 8b 0d b2 8c 01 00 	mov    0x18cb2,%cx
    1c0b:	b8 fe ff ff ff       	mov    $0xfffffffe,%eax
    1c10:	d3 c0                	rol    %cl,%eax
    1c12:	66 21 05 7c 8f 01 00 	and    %ax,0x18f7c
    1c19:	e8 8d eb ff ff       	call   7ab <enable>
    1c1e:	b8 01 00 00 00       	mov    $0x1,%eax
    1c23:	c9                   	leave  
    1c24:	c3                   	ret    

00001c25 <mon_ni_in>:
    1c25:	55                   	push   %ebp
    1c26:	89 e5                	mov    %esp,%ebp
    1c28:	83 ec 08             	sub    $0x8,%esp
    1c2b:	8b 4d 08             	mov    0x8(%ebp),%ecx
    1c2e:	8b 55 0c             	mov    0xc(%ebp),%edx
    1c31:	66 8b 42 14          	mov    0x14(%edx),%ax
    1c35:	25 ff ff 00 00       	and    $0xffff,%eax
    1c3a:	3d 00 08 00 00       	cmp    $0x800,%eax
    1c3f:	74 16                	je     1c57 <mon_ni_in+0x32>
    1c41:	3d 06 08 00 00       	cmp    $0x806,%eax
    1c46:	75 1e                	jne    1c66 <mon_ni_in+0x41>
    1c48:	83 ec 08             	sub    $0x8,%esp
    1c4b:	52                   	push   %edx
    1c4c:	51                   	push   %ecx
    1c4d:	e8 74 f8 ff ff       	call   14c6 <mon_arp_in>
    1c52:	83 c4 10             	add    $0x10,%esp
    1c55:	eb 1f                	jmp    1c76 <mon_ni_in+0x51>
    1c57:	83 ec 08             	sub    $0x8,%esp
    1c5a:	52                   	push   %edx
    1c5b:	51                   	push   %ecx
    1c5c:	e8 57 fe ff ff       	call   1ab8 <mon_ip_in>
    1c61:	83 c4 10             	add    $0x10,%esp
    1c64:	eb 10                	jmp    1c76 <mon_ni_in+0x51>
    1c66:	83 ec 0c             	sub    $0xc,%esp
    1c69:	52                   	push   %edx
    1c6a:	e8 9d 2e 00 00       	call   4b0c <freebuf>
    1c6f:	b8 01 00 00 00       	mov    $0x1,%eax
    1c74:	eb 05                	jmp    1c7b <mon_ni_in+0x56>
    1c76:	b8 01 00 00 00       	mov    $0x1,%eax
    1c7b:	c9                   	leave  
    1c7c:	c3                   	ret    

00001c7d <mon_netwrite>:
    1c7d:	55                   	push   %ebp
    1c7e:	89 e5                	mov    %esp,%ebp
    1c80:	57                   	push   %edi
    1c81:	56                   	push   %esi
    1c82:	53                   	push   %ebx
    1c83:	83 ec 0c             	sub    $0xc,%esp
    1c86:	8b 75 08             	mov    0x8(%ebp),%esi
    1c89:	8b 7d 0c             	mov    0xc(%ebp),%edi
    1c8c:	80 3d 74 8c 01 00 01 	cmpb   $0x1,0x18c74
    1c93:	74 13                	je     1ca8 <mon_netwrite+0x2b>
    1c95:	83 ec 0c             	sub    $0xc,%esp
    1c98:	56                   	push   %esi
    1c99:	e8 6e 2e 00 00       	call   4b0c <freebuf>
    1c9e:	b8 ff ff ff ff       	mov    $0xffffffff,%eax
    1ca3:	e9 29 01 00 00       	jmp    1dd1 <mon_netwrite+0x154>
    1ca8:	66 89 7e 06          	mov    %di,0x6(%esi)
    1cac:	8b 06                	mov    (%esi),%eax
    1cae:	3b 05 48 b6 00 00    	cmp    0xb648,%eax
    1cb4:	74 08                	je     1cbe <mon_netwrite+0x41>
    1cb6:	3b 05 ac b2 00 00    	cmp    0xb2ac,%eax
    1cbc:	75 2c                	jne    1cea <mon_netwrite+0x6d>
    1cbe:	83 ec 04             	sub    $0x4,%esp
    1cc1:	6a 06                	push   $0x6
    1cc3:	b8 74 8c 01 00       	mov    $0x18c74,%eax
    1cc8:	83 c0 0e             	add    $0xe,%eax
    1ccb:	50                   	push   %eax
    1ccc:	8d 46 08             	lea    0x8(%esi),%eax
    1ccf:	50                   	push   %eax
    1cd0:	e8 8b 73 00 00       	call   9060 <blkcopy>
    1cd5:	83 c4 08             	add    $0x8,%esp
    1cd8:	57                   	push   %edi
    1cd9:	56                   	push   %esi
    1cda:	ff 15 88 8c 01 00    	call   *0x18c88
    1ce0:	b8 01 00 00 00       	mov    $0x1,%eax
    1ce5:	e9 e7 00 00 00       	jmp    1dd1 <mon_netwrite+0x154>
    1cea:	83 ec 0c             	sub    $0xc,%esp
    1ced:	8d 45 f2             	lea    0xfffffff2(%ebp),%eax
    1cf0:	50                   	push   %eax
    1cf1:	e8 c6 ea ff ff       	call   7bc <disable>
    1cf6:	89 34 24             	mov    %esi,(%esp)
    1cf9:	e8 64 fa ff ff       	call   1762 <mon_arpfind>
    1cfe:	89 c3                	mov    %eax,%ebx
    1d00:	83 c4 10             	add    $0x10,%esp
    1d03:	85 c0                	test   %eax,%eax
    1d05:	74 6b                	je     1d72 <mon_netwrite+0xf5>
    1d07:	66 83 38 02          	cmpw   $0x2,(%eax)
    1d0b:	75 2d                	jne    1d3a <mon_netwrite+0xbd>
    1d0d:	83 ec 04             	sub    $0x4,%esp
    1d10:	6a 06                	push   $0x6
    1d12:	8d 40 02             	lea    0x2(%eax),%eax
    1d15:	50                   	push   %eax
    1d16:	8d 46 08             	lea    0x8(%esi),%eax
    1d19:	50                   	push   %eax
    1d1a:	e8 41 73 00 00       	call   9060 <blkcopy>
    1d1f:	8d 45 f2             	lea    0xfffffff2(%ebp),%eax
    1d22:	89 04 24             	mov    %eax,(%esp)
    1d25:	e8 ba ea ff ff       	call   7e4 <restore>
    1d2a:	83 c4 08             	add    $0x8,%esp
    1d2d:	57                   	push   %edi
    1d2e:	56                   	push   %esi
    1d2f:	ff 15 88 8c 01 00    	call   *0x18c88
    1d35:	e9 97 00 00 00       	jmp    1dd1 <mon_netwrite+0x154>
    1d3a:	66 83 38 01          	cmpw   $0x1,(%eax)
    1d3e:	75 32                	jne    1d72 <mon_netwrite+0xf5>
    1d40:	83 78 0c 00          	cmpl   $0x0,0xc(%eax)
    1d44:	74 0e                	je     1d54 <mon_netwrite+0xd7>
    1d46:	83 ec 0c             	sub    $0xc,%esp
    1d49:	ff 70 0c             	pushl  0xc(%eax)
    1d4c:	e8 bb 2d 00 00       	call   4b0c <freebuf>
    1d51:	83 c4 10             	add    $0x10,%esp
    1d54:	89 73 0c             	mov    %esi,0xc(%ebx)
    1d57:	83 ec 0c             	sub    $0xc,%esp
    1d5a:	53                   	push   %ebx
    1d5b:	e8 55 fa ff ff       	call   17b5 <mon_arpsend>
    1d60:	8d 45 f2             	lea    0xfffffff2(%ebp),%eax
    1d63:	89 04 24             	mov    %eax,(%esp)
    1d66:	e8 79 ea ff ff       	call   7e4 <restore>
    1d6b:	b8 01 00 00 00       	mov    $0x1,%eax
    1d70:	eb 5f                	jmp    1dd1 <mon_netwrite+0x154>
    1d72:	8b 06                	mov    (%esi),%eax
    1d74:	25 f0 00 00 00       	and    $0xf0,%eax
    1d79:	3d e0 00 00 00       	cmp    $0xe0,%eax
    1d7e:	75 13                	jne    1d93 <mon_netwrite+0x116>
    1d80:	83 ec 0c             	sub    $0xc,%esp
    1d83:	8d 45 f2             	lea    0xfffffff2(%ebp),%eax
    1d86:	50                   	push   %eax
    1d87:	e8 58 ea ff ff       	call   7e4 <restore>
    1d8c:	b8 ff ff ff ff       	mov    $0xffffffff,%eax
    1d91:	eb 3e                	jmp    1dd1 <mon_netwrite+0x154>
    1d93:	85 db                	test   %ebx,%ebx
    1d95:	75 29                	jne    1dc0 <mon_netwrite+0x143>
    1d97:	e8 95 f9 ff ff       	call   1731 <mon_arpalloc>
    1d9c:	89 c3                	mov    %eax,%ebx
    1d9e:	66 c7 00 01 00       	movw   $0x1,(%eax)
    1da3:	89 70 0c             	mov    %esi,0xc(%eax)
    1da6:	83 ec 04             	sub    $0x4,%esp
    1da9:	6a 04                	push   $0x4
    1dab:	56                   	push   %esi
    1dac:	8d 40 08             	lea    0x8(%eax),%eax
    1daf:	50                   	push   %eax
    1db0:	e8 ab 72 00 00       	call   9060 <blkcopy>
    1db5:	89 1c 24             	mov    %ebx,(%esp)
    1db8:	e8 f8 f9 ff ff       	call   17b5 <mon_arpsend>
    1dbd:	83 c4 10             	add    $0x10,%esp
    1dc0:	83 ec 0c             	sub    $0xc,%esp
    1dc3:	8d 45 f2             	lea    0xfffffff2(%ebp),%eax
    1dc6:	50                   	push   %eax
    1dc7:	e8 18 ea ff ff       	call   7e4 <restore>
    1dcc:	b8 01 00 00 00       	mov    $0x1,%eax
    1dd1:	8d 65 f4             	lea    0xfffffff4(%ebp),%esp
    1dd4:	5b                   	pop    %ebx
    1dd5:	5e                   	pop    %esi
    1dd6:	5f                   	pop    %edi
    1dd7:	5d                   	pop    %ebp
    1dd8:	c3                   	ret    

00001dd9 <mon_blkequ>:
    1dd9:	55                   	push   %ebp
    1dda:	89 e5                	mov    %esp,%ebp
    1ddc:	56                   	push   %esi
    1ddd:	53                   	push   %ebx
    1dde:	8b 75 08             	mov    0x8(%ebp),%esi
    1de1:	8b 5d 0c             	mov    0xc(%ebp),%ebx
    1de4:	8b 4d 10             	mov    0x10(%ebp),%ecx
    1de7:	49                   	dec    %ecx
    1de8:	78 14                	js     1dfe <mon_blkequ+0x25>
    1dea:	8a 13                	mov    (%ebx),%dl
    1dec:	43                   	inc    %ebx
    1ded:	8a 06                	mov    (%esi),%al
    1def:	46                   	inc    %esi
    1df0:	38 d0                	cmp    %dl,%al
    1df2:	74 07                	je     1dfb <mon_blkequ+0x22>
    1df4:	b8 00 00 00 00       	mov    $0x0,%eax
    1df9:	eb 08                	jmp    1e03 <mon_blkequ+0x2a>
    1dfb:	49                   	dec    %ecx
    1dfc:	79 ec                	jns    1dea <mon_blkequ+0x11>
    1dfe:	b8 01 00 00 00       	mov    $0x1,%eax
    1e03:	5b                   	pop    %ebx
    1e04:	5e                   	pop    %esi
    1e05:	5d                   	pop    %ebp
    1e06:	c3                   	ret    
    1e07:	90                   	nop    

00001e08 <mon_udp_in>:
    1e08:	55                   	push   %ebp
    1e09:	89 e5                	mov    %esp,%ebp
    1e0b:	56                   	push   %esi
    1e0c:	53                   	push   %ebx
    1e0d:	8b 75 0c             	mov    0xc(%ebp),%esi
    1e10:	8d 5e 2a             	lea    0x2a(%esi),%ebx
    1e13:	66 83 7b 06 00       	cmpw   $0x0,0x6(%ebx)
    1e18:	74 36                	je     1e50 <mon_udp_in+0x48>
    1e1a:	83 ec 08             	sub    $0x8,%esp
    1e1d:	66 8b 43 04          	mov    0x4(%ebx),%ax
    1e21:	0f b6 d4             	movzbl %ah,%edx
    1e24:	25 ff 00 00 00       	and    $0xff,%eax
    1e29:	c1 e0 08             	shl    $0x8,%eax
    1e2c:	09 c2                	or     %eax,%edx
    1e2e:	52                   	push   %edx
    1e2f:	56                   	push   %esi
    1e30:	e8 13 01 00 00       	call   1f48 <mon_udpcksum>
    1e35:	83 c4 10             	add    $0x10,%esp
    1e38:	66 85 c0             	test   %ax,%ax
    1e3b:	74 13                	je     1e50 <mon_udp_in+0x48>
    1e3d:	83 ec 0c             	sub    $0xc,%esp
    1e40:	56                   	push   %esi
    1e41:	e8 c6 2c 00 00       	call   4b0c <freebuf>
    1e46:	b8 ff ff ff ff       	mov    $0xffffffff,%eax
    1e4b:	e9 f1 00 00 00       	jmp    1f41 <mon_udp_in+0x139>
    1e50:	66 8b 03             	mov    (%ebx),%ax
    1e53:	89 c2                	mov    %eax,%edx
    1e55:	66 c1 ea 08          	shr    $0x8,%dx
    1e59:	25 ff 00 00 00       	and    $0xff,%eax
    1e5e:	c1 e0 08             	shl    $0x8,%eax
    1e61:	09 c2                	or     %eax,%edx
    1e63:	66 89 13             	mov    %dx,(%ebx)
    1e66:	66 8b 43 02          	mov    0x2(%ebx),%ax
    1e6a:	89 c1                	mov    %eax,%ecx
    1e6c:	66 c1 e9 08          	shr    $0x8,%cx
    1e70:	25 ff 00 00 00       	and    $0xff,%eax
    1e75:	c1 e0 08             	shl    $0x8,%eax
    1e78:	09 c1                	or     %eax,%ecx
    1e7a:	66 89 4b 02          	mov    %cx,0x2(%ebx)
    1e7e:	66 8b 43 04          	mov    0x4(%ebx),%ax
    1e82:	89 c2                	mov    %eax,%edx
    1e84:	66 c1 ea 08          	shr    $0x8,%dx
    1e88:	25 ff 00 00 00       	and    $0xff,%eax
    1e8d:	c1 e0 08             	shl    $0x8,%eax
    1e90:	09 c2                	or     %eax,%edx
    1e92:	66 89 53 04          	mov    %dx,0x4(%ebx)
    1e96:	89 c8                	mov    %ecx,%eax
    1e98:	25 ff ff 00 00       	and    $0xffff,%eax
    1e9d:	83 f8 44             	cmp    $0x44,%eax
    1ea0:	74 0c                	je     1eae <mon_udp_in+0xa6>
    1ea2:	3d 6c f3 00 00       	cmp    $0xf36c,%eax
    1ea7:	74 4b                	je     1ef4 <mon_udp_in+0xec>
    1ea9:	e9 85 00 00 00       	jmp    1f33 <mon_udp_in+0x12b>
    1eae:	83 3d c8 8c 01 00 0b 	cmpl   $0xb,0x18cc8
    1eb5:	75 7c                	jne    1f33 <mon_udp_in+0x12b>
    1eb7:	c7 05 e8 b9 00 00 00 	movl   $0x0,0xb9e8
    1ebe:	00 00 00 
    1ec1:	83 ec 0c             	sub    $0xc,%esp
    1ec4:	53                   	push   %ebx
    1ec5:	e8 d6 f9 ff ff       	call   18a0 <mon_bootp_in>
    1eca:	83 c4 10             	add    $0x10,%esp
    1ecd:	83 f8 01             	cmp    $0x1,%eax
    1ed0:	75 16                	jne    1ee8 <mon_udp_in+0xe0>
    1ed2:	c7 05 c8 8c 01 00 0c 	movl   $0xc,0x18cc8
    1ed9:	00 00 00 
    1edc:	c7 05 e0 b9 00 00 00 	movl   $0x0,0xb9e0
    1ee3:	00 00 00 
    1ee6:	eb 4b                	jmp    1f33 <mon_udp_in+0x12b>
    1ee8:	c7 05 c8 8c 01 00 10 	movl   $0x10,0x18cc8
    1eef:	00 00 00 
    1ef2:	eb 3f                	jmp    1f33 <mon_udp_in+0x12b>
    1ef4:	83 3d c8 8c 01 00 0d 	cmpl   $0xd,0x18cc8
    1efb:	75 36                	jne    1f33 <mon_udp_in+0x12b>
    1efd:	c7 05 e8 b9 00 00 00 	movl   $0x0,0xb9e8
    1f04:	00 00 00 
    1f07:	83 ec 0c             	sub    $0xc,%esp
    1f0a:	53                   	push   %ebx
    1f0b:	e8 c0 6d 00 00       	call   8cd0 <mon_tftp_in>
    1f10:	83 c4 10             	add    $0x10,%esp
    1f13:	83 f8 01             	cmp    $0x1,%eax
    1f16:	75 0c                	jne    1f24 <mon_udp_in+0x11c>
    1f18:	c7 05 c8 8c 01 00 0e 	movl   $0xe,0x18cc8
    1f1f:	00 00 00 
    1f22:	eb 0f                	jmp    1f33 <mon_udp_in+0x12b>
    1f24:	83 f8 ff             	cmp    $0xffffffff,%eax
    1f27:	75 0a                	jne    1f33 <mon_udp_in+0x12b>
    1f29:	c7 05 c8 8c 01 00 11 	movl   $0x11,0x18cc8
    1f30:	00 00 00 
    1f33:	83 ec 0c             	sub    $0xc,%esp
    1f36:	56                   	push   %esi
    1f37:	e8 d0 2b 00 00       	call   4b0c <freebuf>
    1f3c:	b8 01 00 00 00       	mov    $0x1,%eax
    1f41:	8d 65 f8             	lea    0xfffffff8(%ebp),%esp
    1f44:	5b                   	pop    %ebx
    1f45:	5e                   	pop    %esi
    1f46:	5d                   	pop    %ebp
    1f47:	c3                   	ret    

00001f48 <mon_udpcksum>:
    1f48:	55                   	push   %ebp
    1f49:	89 e5                	mov    %esp,%ebp
    1f4b:	57                   	push   %edi
    1f4c:	56                   	push   %esi
    1f4d:	53                   	push   %ebx
    1f4e:	8b 45 08             	mov    0x8(%ebp),%eax
    1f51:	8b 5d 0c             	mov    0xc(%ebp),%ebx
    1f54:	8d 78 2a             	lea    0x2a(%eax),%edi
    1f57:	be 00 00 00 00       	mov    $0x0,%esi
    1f5c:	8d 48 22             	lea    0x22(%eax),%ecx
    1f5f:	ba 00 00 00 00       	mov    $0x0,%edx
    1f64:	66 8b 01             	mov    (%ecx),%ax
    1f67:	25 ff ff 00 00       	and    $0xffff,%eax
    1f6c:	01 c6                	add    %eax,%esi
    1f6e:	83 c1 02             	add    $0x2,%ecx
    1f71:	42                   	inc    %edx
    1f72:	83 fa 03             	cmp    $0x3,%edx
    1f75:	7e ed                	jle    1f64 <mon_udpcksum+0x1c>
    1f77:	89 f9                	mov    %edi,%ecx
    1f79:	8d 43 11             	lea    0x11(%ebx),%eax
    1f7c:	0f b6 d4             	movzbl %ah,%edx
    1f7f:	25 ff 00 00 00       	and    $0xff,%eax
    1f84:	c1 e0 08             	shl    $0x8,%eax
    1f87:	09 c2                	or     %eax,%edx
    1f89:	01 d6                	add    %edx,%esi
    1f8b:	f6 c3 01             	test   $0x1,%bl
    1f8e:	74 05                	je     1f95 <mon_udpcksum+0x4d>
    1f90:	c6 04 1f 00          	movb   $0x0,(%edi,%ebx,1)
    1f94:	43                   	inc    %ebx
    1f95:	d1 fb                	sar    %ebx
    1f97:	ba 00 00 00 00       	mov    $0x0,%edx
    1f9c:	39 da                	cmp    %ebx,%edx
    1f9e:	7d 12                	jge    1fb2 <mon_udpcksum+0x6a>
    1fa0:	66 8b 01             	mov    (%ecx),%ax
    1fa3:	25 ff ff 00 00       	and    $0xffff,%eax
    1fa8:	01 c6                	add    %eax,%esi
    1faa:	83 c1 02             	add    $0x2,%ecx
    1fad:	42                   	inc    %edx
    1fae:	39 da                	cmp    %ebx,%edx
    1fb0:	7c ee                	jl     1fa0 <mon_udpcksum+0x58>
    1fb2:	89 f2                	mov    %esi,%edx
    1fb4:	c1 ea 10             	shr    $0x10,%edx
    1fb7:	89 f0                	mov    %esi,%eax
    1fb9:	25 ff ff 00 00       	and    $0xffff,%eax
    1fbe:	8d 34 02             	lea    (%edx,%eax,1),%esi
    1fc1:	89 f0                	mov    %esi,%eax
    1fc3:	c1 e8 10             	shr    $0x10,%eax
    1fc6:	01 c6                	add    %eax,%esi
    1fc8:	89 f0                	mov    %esi,%eax
    1fca:	f7 d0                	not    %eax
    1fcc:	25 ff ff 00 00       	and    $0xffff,%eax
    1fd1:	5b                   	pop    %ebx
    1fd2:	5e                   	pop    %esi
    1fd3:	5f                   	pop    %edi
    1fd4:	5d                   	pop    %ebp
    1fd5:	c3                   	ret    
    1fd6:	90                   	nop    
    1fd7:	90                   	nop    

00001fd8 <mon_enq>:
    1fd8:	55                   	push   %ebp
    1fd9:	89 e5                	mov    %esp,%ebp
    1fdb:	57                   	push   %edi
    1fdc:	56                   	push   %esi
    1fdd:	53                   	push   %ebx
    1fde:	83 ec 0c             	sub    $0xc,%esp
    1fe1:	8b 4d 08             	mov    0x8(%ebp),%ecx
    1fe4:	8b 7d 10             	mov    0x10(%ebp),%edi
    1fe7:	b8 ff ff ff ff       	mov    $0xffffffff,%eax
    1fec:	83 f9 1f             	cmp    $0x1f,%ecx
    1fef:	0f 87 c1 00 00 00    	ja     20b6 <mon_enq+0xde>
    1ff5:	8d 04 cd 00 00 00 00 	lea    0x0(,%ecx,8),%eax
    1ffc:	29 c8                	sub    %ecx,%eax
    1ffe:	8d 14 85 00 00 00 00 	lea    0x0(,%eax,4),%edx
    2005:	80 ba 60 b6 00 00 00 	cmpb   $0x0,0xb660(%edx)
    200c:	74 0e                	je     201c <mon_enq+0x44>
    200e:	8b 82 68 b6 00 00    	mov    0xb668(%edx),%eax
    2014:	3b 82 64 b6 00 00    	cmp    0xb664(%edx),%eax
    201a:	7c 0a                	jl     2026 <mon_enq+0x4e>
    201c:	b8 ff ff ff ff       	mov    $0xffffffff,%eax
    2021:	e9 90 00 00 00       	jmp    20b6 <mon_enq+0xde>
    2026:	8d 04 cd 00 00 00 00 	lea    0x0(,%ecx,8),%eax
    202d:	29 c8                	sub    %ecx,%eax
    202f:	8d 34 85 60 b6 00 00 	lea    0xb660(,%eax,4),%esi
    2036:	83 ec 0c             	sub    $0xc,%esp
    2039:	8d 45 f2             	lea    0xfffffff2(%ebp),%eax
    203c:	50                   	push   %eax
    203d:	e8 7a e7 ff ff       	call   7bc <disable>
    2042:	83 c4 10             	add    $0x10,%esp
    2045:	83 7e 08 00          	cmpl   $0x0,0x8(%esi)
    2049:	79 07                	jns    2052 <mon_enq+0x7a>
    204b:	c7 46 08 00 00 00 00 	movl   $0x0,0x8(%esi)
    2052:	8b 5e 08             	mov    0x8(%esi),%ebx
    2055:	4b                   	dec    %ebx
    2056:	78 12                	js     206a <mon_enq+0x92>
    2058:	8b 46 14             	mov    0x14(%esi),%eax
    205b:	89 c2                	mov    %eax,%edx
    205d:	39 3c 98             	cmp    %edi,(%eax,%ebx,4)
    2060:	7d 08                	jge    206a <mon_enq+0x92>
    2062:	4b                   	dec    %ebx
    2063:	78 05                	js     206a <mon_enq+0x92>
    2065:	39 3c 9a             	cmp    %edi,(%edx,%ebx,4)
    2068:	7c f8                	jl     2062 <mon_enq+0x8a>
    206a:	8b 4e 08             	mov    0x8(%esi),%ecx
    206d:	49                   	dec    %ecx
    206e:	39 d9                	cmp    %ebx,%ecx
    2070:	7e 19                	jle    208b <mon_enq+0xb3>
    2072:	8b 56 14             	mov    0x14(%esi),%edx
    2075:	8b 04 8a             	mov    (%edx,%ecx,4),%eax
    2078:	89 44 8a 04          	mov    %eax,0x4(%edx,%ecx,4)
    207c:	8b 56 18             	mov    0x18(%esi),%edx
    207f:	8b 04 8a             	mov    (%edx,%ecx,4),%eax
    2082:	89 44 8a 04          	mov    %eax,0x4(%edx,%ecx,4)
    2086:	49                   	dec    %ecx
    2087:	39 d9                	cmp    %ebx,%ecx
    2089:	7f e7                	jg     2072 <mon_enq+0x9a>
    208b:	8b 46 14             	mov    0x14(%esi),%eax
    208e:	89 7c 98 04          	mov    %edi,0x4(%eax,%ebx,4)
    2092:	8b 56 18             	mov    0x18(%esi),%edx
    2095:	8b 45 0c             	mov    0xc(%ebp),%eax
    2098:	89 44 9a 04          	mov    %eax,0x4(%edx,%ebx,4)
    209c:	8b 46 08             	mov    0x8(%esi),%eax
    209f:	40                   	inc    %eax
    20a0:	89 46 08             	mov    %eax,0x8(%esi)
    20a3:	8b 5e 04             	mov    0x4(%esi),%ebx
    20a6:	29 c3                	sub    %eax,%ebx
    20a8:	83 ec 0c             	sub    $0xc,%esp
    20ab:	8d 45 f2             	lea    0xfffffff2(%ebp),%eax
    20ae:	50                   	push   %eax
    20af:	e8 30 e7 ff ff       	call   7e4 <restore>
    20b4:	89 d8                	mov    %ebx,%eax
    20b6:	8d 65 f4             	lea    0xfffffff4(%ebp),%esp
    20b9:	5b                   	pop    %ebx
    20ba:	5e                   	pop    %esi
    20bb:	5f                   	pop    %edi
    20bc:	5d                   	pop    %ebp
    20bd:	c3                   	ret    

000020be <mon_deq>:
    20be:	55                   	push   %ebp
    20bf:	89 e5                	mov    %esp,%ebp
    20c1:	56                   	push   %esi
    20c2:	53                   	push   %ebx
    20c3:	83 ec 10             	sub    $0x10,%esp
    20c6:	8b 55 08             	mov    0x8(%ebp),%edx
    20c9:	b8 00 00 00 00       	mov    $0x0,%eax
    20ce:	83 fa 1f             	cmp    $0x1f,%edx
    20d1:	77 7f                	ja     2152 <mon_deq+0x94>
    20d3:	8d 04 d5 00 00 00 00 	lea    0x0(,%edx,8),%eax
    20da:	29 d0                	sub    %edx,%eax
    20dc:	c1 e0 02             	shl    $0x2,%eax
    20df:	80 b8 60 b6 00 00 00 	cmpb   $0x0,0xb660(%eax)
    20e6:	74 09                	je     20f1 <mon_deq+0x33>
    20e8:	83 b8 68 b6 00 00 00 	cmpl   $0x0,0xb668(%eax)
    20ef:	7f 07                	jg     20f8 <mon_deq+0x3a>
    20f1:	b8 00 00 00 00       	mov    $0x0,%eax
    20f6:	eb 5a                	jmp    2152 <mon_deq+0x94>
    20f8:	8d 04 d5 00 00 00 00 	lea    0x0(,%edx,8),%eax
    20ff:	29 d0                	sub    %edx,%eax
    2101:	8d 1c 85 60 b6 00 00 	lea    0xb660(,%eax,4),%ebx
    2108:	83 ec 0c             	sub    $0xc,%esp
    210b:	8d 45 f6             	lea    0xfffffff6(%ebp),%eax
    210e:	50                   	push   %eax
    210f:	e8 a8 e6 ff ff       	call   7bc <disable>
    2114:	8b 43 18             	mov    0x18(%ebx),%eax
    2117:	8b 30                	mov    (%eax),%esi
    2119:	b9 01 00 00 00       	mov    $0x1,%ecx
    211e:	83 c4 10             	add    $0x10,%esp
    2121:	83 7b 08 01          	cmpl   $0x1,0x8(%ebx)
    2125:	7e 1a                	jle    2141 <mon_deq+0x83>
    2127:	8b 53 18             	mov    0x18(%ebx),%edx
    212a:	8b 04 8a             	mov    (%edx,%ecx,4),%eax
    212d:	89 44 8a fc          	mov    %eax,0xfffffffc(%edx,%ecx,4)
    2131:	8b 53 14             	mov    0x14(%ebx),%edx
    2134:	8b 04 8a             	mov    (%edx,%ecx,4),%eax
    2137:	89 44 8a fc          	mov    %eax,0xfffffffc(%edx,%ecx,4)
    213b:	41                   	inc    %ecx
    213c:	39 4b 08             	cmp    %ecx,0x8(%ebx)
    213f:	7f e6                	jg     2127 <mon_deq+0x69>
    2141:	ff 4b 08             	decl   0x8(%ebx)
    2144:	83 ec 0c             	sub    $0xc,%esp
    2147:	8d 45 f6             	lea    0xfffffff6(%ebp),%eax
    214a:	50                   	push   %eax
    214b:	e8 94 e6 ff ff       	call   7e4 <restore>
    2150:	89 f0                	mov    %esi,%eax
    2152:	8d 65 f8             	lea    0xfffffff8(%ebp),%esp
    2155:	5b                   	pop    %ebx
    2156:	5e                   	pop    %esi
    2157:	5d                   	pop    %ebp
    2158:	c3                   	ret    

00002159 <mon_newq>:
    2159:	55                   	push   %ebp
    215a:	89 e5                	mov    %esp,%ebp
    215c:	57                   	push   %edi
    215d:	56                   	push   %esi
    215e:	53                   	push   %ebx
    215f:	83 ec 0c             	sub    $0xc,%esp
    2162:	8b 55 08             	mov    0x8(%ebp),%edx
    2165:	be 00 00 00 00       	mov    $0x0,%esi
    216a:	8d 04 f5 00 00 00 00 	lea    0x0(,%esi,8),%eax
    2171:	29 f0                	sub    %esi,%eax
    2173:	80 3c 85 60 b6 00 00 	cmpb   $0x0,0xb660(,%eax,4)
    217a:	00 
    217b:	74 06                	je     2183 <mon_newq+0x2a>
    217d:	46                   	inc    %esi
    217e:	83 fe 1f             	cmp    $0x1f,%esi
    2181:	7e e7                	jle    216a <mon_newq+0x11>
    2183:	b8 ff ff ff ff       	mov    $0xffffffff,%eax
    2188:	83 fe 20             	cmp    $0x20,%esi
    218b:	74 5d                	je     21ea <mon_newq+0x91>
    218d:	8d 04 f5 00 00 00 00 	lea    0x0(,%esi,8),%eax
    2194:	29 f0                	sub    %esi,%eax
    2196:	c1 e0 02             	shl    $0x2,%eax
    2199:	8d b8 60 b6 00 00    	lea    0xb660(%eax),%edi
    219f:	c6 80 60 b6 00 00 01 	movb   $0x1,0xb660(%eax)
    21a6:	89 57 04             	mov    %edx,0x4(%edi)
    21a9:	c7 47 08 00 00 00 00 	movl   $0x0,0x8(%edi)
    21b0:	c7 47 0c ff ff ff ff 	movl   $0xffffffff,0xc(%edi)
    21b7:	83 ec 0c             	sub    $0xc,%esp
    21ba:	8d 1c 95 00 00 00 00 	lea    0x0(,%edx,4),%ebx
    21c1:	53                   	push   %ebx
    21c2:	e8 05 2d 00 00       	call   4ecc <getmem>
    21c7:	89 47 18             	mov    %eax,0x18(%edi)
    21ca:	89 1c 24             	mov    %ebx,(%esp)
    21cd:	e8 fa 2c 00 00       	call   4ecc <getmem>
    21d2:	89 47 14             	mov    %eax,0x14(%edi)
    21d5:	83 c4 10             	add    $0x10,%esp
    21d8:	83 f8 ff             	cmp    $0xffffffff,%eax
    21db:	74 08                	je     21e5 <mon_newq+0x8c>
    21dd:	89 f0                	mov    %esi,%eax
    21df:	83 7f 18 ff          	cmpl   $0xffffffff,0x18(%edi)
    21e3:	75 05                	jne    21ea <mon_newq+0x91>
    21e5:	b8 ff ff ff ff       	mov    $0xffffffff,%eax
    21ea:	8d 65 f4             	lea    0xfffffff4(%ebp),%esp
    21ed:	5b                   	pop    %ebx
    21ee:	5e                   	pop    %esi
    21ef:	5f                   	pop    %edi
    21f0:	5d                   	pop    %ebp
    21f1:	c3                   	ret    

000021f2 <mon_lenq>:
    21f2:	55                   	push   %ebp
    21f3:	89 e5                	mov    %esp,%ebp
    21f5:	8b 55 08             	mov    0x8(%ebp),%edx
    21f8:	83 fa 1f             	cmp    $0x1f,%edx
    21fb:	77 13                	ja     2210 <mon_lenq+0x1e>
    21fd:	8d 04 d5 00 00 00 00 	lea    0x0(,%edx,8),%eax
    2204:	29 d0                	sub    %edx,%eax
    2206:	80 3c 85 60 b6 00 00 	cmpb   $0x0,0xb660(,%eax,4)
    220d:	00 
    220e:	75 07                	jne    2217 <mon_lenq+0x25>
    2210:	b8 ff ff ff ff       	mov    $0xffffffff,%eax
    2215:	eb 10                	jmp    2227 <mon_lenq+0x35>
    2217:	8d 04 d5 00 00 00 00 	lea    0x0(,%edx,8),%eax
    221e:	29 d0                	sub    %edx,%eax
    2220:	8b 04 85 68 b6 00 00 	mov    0xb668(,%eax,4),%eax
    2227:	5d                   	pop    %ebp
    2228:	c3                   	ret    

00002229 <mon_initq>:
    2229:	55                   	push   %ebp
    222a:	89 e5                	mov    %esp,%ebp
    222c:	ba 00 00 00 00       	mov    $0x0,%edx
    2231:	8d 04 d5 00 00 00 00 	lea    0x0(,%edx,8),%eax
    2238:	29 d0                	sub    %edx,%eax
    223a:	c6 04 85 60 b6 00 00 	movb   $0x0,0xb660(,%eax,4)
    2241:	00 
    2242:	42                   	inc    %edx
    2243:	83 fa 1f             	cmp    $0x1f,%edx
    2246:	7e e9                	jle    2231 <mon_initq+0x8>
    2248:	b8 01 00 00 00       	mov    $0x1,%eax
    224d:	5d                   	pop    %ebp
    224e:	c3                   	ret    

0000224f <mon_headq>:
    224f:	55                   	push   %ebp
    2250:	89 e5                	mov    %esp,%ebp
    2252:	53                   	push   %ebx
    2253:	83 ec 04             	sub    $0x4,%esp
    2256:	8b 55 08             	mov    0x8(%ebp),%edx
    2259:	b8 00 00 00 00       	mov    $0x0,%eax
    225e:	83 fa 1f             	cmp    $0x1f,%edx
    2261:	77 53                	ja     22b6 <mon_headq+0x67>
    2263:	8d 04 d5 00 00 00 00 	lea    0x0(,%edx,8),%eax
    226a:	29 d0                	sub    %edx,%eax
    226c:	c1 e0 02             	shl    $0x2,%eax
    226f:	80 b8 60 b6 00 00 00 	cmpb   $0x0,0xb660(%eax)
    2276:	74 09                	je     2281 <mon_headq+0x32>
    2278:	83 b8 68 b6 00 00 00 	cmpl   $0x0,0xb668(%eax)
    227f:	75 07                	jne    2288 <mon_headq+0x39>
    2281:	b8 00 00 00 00       	mov    $0x0,%eax
    2286:	eb 2e                	jmp    22b6 <mon_headq+0x67>
    2288:	8d 1c d5 00 00 00 00 	lea    0x0(,%edx,8),%ebx
    228f:	29 d3                	sub    %edx,%ebx
    2291:	8d 1c 9d 60 b6 00 00 	lea    0xb660(,%ebx,4),%ebx
    2298:	83 ec 0c             	sub    $0xc,%esp
    229b:	8d 45 fa             	lea    0xfffffffa(%ebp),%eax
    229e:	50                   	push   %eax
    229f:	e8 18 e5 ff ff       	call   7bc <disable>
    22a4:	8b 43 18             	mov    0x18(%ebx),%eax
    22a7:	8b 18                	mov    (%eax),%ebx
    22a9:	8d 45 fa             	lea    0xfffffffa(%ebp),%eax
    22ac:	89 04 24             	mov    %eax,(%esp)
    22af:	e8 30 e5 ff ff       	call   7e4 <restore>
    22b4:	89 d8                	mov    %ebx,%eax
    22b6:	8b 5d fc             	mov    0xfffffffc(%ebp),%ebx
    22b9:	c9                   	leave  
    22ba:	c3                   	ret    
    22bb:	90                   	nop    

000022bc <mon_ethintr>:
    22bc:	55                   	push   %ebp
    22bd:	89 e5                	mov    %esp,%ebp
    22bf:	57                   	push   %edi
    22c0:	56                   	push   %esi
    22c1:	53                   	push   %ebx
    22c2:	83 ec 18             	sub    $0x18,%esp
    22c5:	8d 45 f2             	lea    0xfffffff2(%ebp),%eax
    22c8:	50                   	push   %eax
    22c9:	e8 ee e4 ff ff       	call   7bc <disable>
    22ce:	83 c4 10             	add    $0x10,%esp
    22d1:	66 a1 b0 8c 01 00    	mov    0x18cb0,%ax
    22d7:	89 c7                	mov    %eax,%edi
    22d9:	81 e7 ff ff 00 00    	and    $0xffff,%edi
    22df:	8d 77 01             	lea    0x1(%edi),%esi
    22e2:	83 ec 0c             	sub    $0xc,%esp
    22e5:	56                   	push   %esi
    22e6:	e8 a1 dd ff ff       	call   8c <inb>
    22eb:	83 c4 10             	add    $0x10,%esp
    22ee:	89 c3                	mov    %eax,%ebx
    22f0:	83 e3 0f             	and    $0xf,%ebx
    22f3:	74 57                	je     234c <mon_ethintr+0x90>
    22f5:	f6 c3 08             	test   $0x8,%bl
    22f8:	74 0e                	je     2308 <mon_ethintr+0x4c>
    22fa:	83 ec 08             	sub    $0x8,%esp
    22fd:	6a 08                	push   $0x8
    22ff:	56                   	push   %esi
    2300:	e8 a0 dd ff ff       	call   a5 <outb>
    2305:	83 c4 10             	add    $0x10,%esp
    2308:	f6 c3 04             	test   $0x4,%bl
    230b:	74 1c                	je     2329 <mon_ethintr+0x6d>
    230d:	83 ec 08             	sub    $0x8,%esp
    2310:	6a 04                	push   $0x4
    2312:	56                   	push   %esi
    2313:	e8 8d dd ff ff       	call   a5 <outb>
    2318:	83 c4 08             	add    $0x8,%esp
    231b:	57                   	push   %edi
    231c:	68 a0 8c 01 00       	push   $0x18ca0
    2321:	e8 3f 00 00 00       	call   2365 <eep_xintr>
    2326:	83 c4 10             	add    $0x10,%esp
    2329:	f6 c3 03             	test   $0x3,%bl
    232c:	74 b4                	je     22e2 <mon_ethintr+0x26>
    232e:	83 ec 08             	sub    $0x8,%esp
    2331:	6a 03                	push   $0x3
    2333:	56                   	push   %esi
    2334:	e8 6c dd ff ff       	call   a5 <outb>
    2339:	83 c4 08             	add    $0x8,%esp
    233c:	57                   	push   %edi
    233d:	68 a0 8c 01 00       	push   $0x18ca0
    2342:	e8 dd 0a 00 00       	call   2e24 <mon_ethdemux>
    2347:	83 c4 10             	add    $0x10,%esp
    234a:	eb 96                	jmp    22e2 <mon_ethintr+0x26>
    234c:	83 ec 0c             	sub    $0xc,%esp
    234f:	8d 45 f2             	lea    0xfffffff2(%ebp),%eax
    2352:	50                   	push   %eax
    2353:	e8 8c e4 ff ff       	call   7e4 <restore>
    2358:	b8 01 00 00 00       	mov    $0x1,%eax
    235d:	8d 65 f4             	lea    0xfffffff4(%ebp),%esp
    2360:	5b                   	pop    %ebx
    2361:	5e                   	pop    %esi
    2362:	5f                   	pop    %edi
    2363:	5d                   	pop    %ebp
    2364:	c3                   	ret    

00002365 <eep_xintr>:
    2365:	55                   	push   %ebp
    2366:	89 e5                	mov    %esp,%ebp
    2368:	57                   	push   %edi
    2369:	56                   	push   %esi
    236a:	53                   	push   %ebx
    236b:	83 ec 0c             	sub    $0xc,%esp
    236e:	8b 75 08             	mov    0x8(%ebp),%esi
    2371:	8b 55 0c             	mov    0xc(%ebp),%edx
    2374:	bf 00 00 00 00       	mov    $0x0,%edi
    2379:	8d 42 0c             	lea    0xc(%edx),%eax
    237c:	66 89 45 f2          	mov    %ax,0xfffffff2(%ebp)
    2380:	8d 4a 0e             	lea    0xe(%edx),%ecx
    2383:	66 8b 46 16          	mov    0x16(%esi),%ax
    2387:	66 3b 46 18          	cmp    0x18(%esi),%ax
    238b:	0f 84 ab 00 00 00    	je     243c <eep_xintr+0xd7>
    2391:	89 cb                	mov    %ecx,%ebx
    2393:	81 e3 ff ff 00 00    	and    $0xffff,%ebx
    2399:	81 e2 ff ff 00 00    	and    $0xffff,%edx
    239f:	89 55 ec             	mov    %edx,0xffffffec(%ebp)
    23a2:	83 ec 08             	sub    $0x8,%esp
    23a5:	66 8b 46 16          	mov    0x16(%esi),%ax
    23a9:	25 ff ff 00 00       	and    $0xffff,%eax
    23ae:	50                   	push   %eax
    23af:	66 8b 45 f2          	mov    0xfffffff2(%ebp),%ax
    23b3:	25 ff ff 00 00       	and    $0xffff,%eax
    23b8:	50                   	push   %eax
    23b9:	e8 f1 dc ff ff       	call   af <outw>
    23be:	89 1c 24             	mov    %ebx,(%esp)
    23c1:	e8 ce dc ff ff       	call   94 <inw>
    23c6:	83 c4 10             	add    $0x10,%esp
    23c9:	84 c0                	test   %al,%al
    23cb:	79 6f                	jns    243c <eep_xintr+0xd7>
    23cd:	83 ec 0c             	sub    $0xc,%esp
    23d0:	53                   	push   %ebx
    23d1:	e8 be dc ff ff       	call   94 <inw>
    23d6:	83 c4 10             	add    $0x10,%esp
    23d9:	f6 c4 20             	test   $0x20,%ah
    23dc:	75 05                	jne    23e3 <eep_xintr+0x7e>
    23de:	bf 01 00 00 00       	mov    $0x1,%edi
    23e3:	83 ec 0c             	sub    $0xc,%esp
    23e6:	53                   	push   %ebx
    23e7:	e8 a8 dc ff ff       	call   94 <inw>
    23ec:	66 89 46 16          	mov    %ax,0x16(%esi)
    23f0:	83 c4 10             	add    $0x10,%esp
    23f3:	89 fa                	mov    %edi,%edx
    23f5:	84 d2                	test   %dl,%dl
    23f7:	74 35                	je     242e <eep_xintr+0xc9>
    23f9:	83 ec 08             	sub    $0x8,%esp
    23fc:	25 ff ff 00 00       	and    $0xffff,%eax
    2401:	50                   	push   %eax
    2402:	8b 7d ec             	mov    0xffffffec(%ebp),%edi
    2405:	8d 47 0a             	lea    0xa(%edi),%eax
    2408:	50                   	push   %eax
    2409:	e8 a1 dc ff ff       	call   af <outw>
    240e:	83 c4 10             	add    $0x10,%esp
    2411:	66 8b 46 16          	mov    0x16(%esi),%ax
    2415:	66 3b 46 18          	cmp    0x18(%esi),%ax
    2419:	74 0e                	je     2429 <eep_xintr+0xc4>
    241b:	83 ec 08             	sub    $0x8,%esp
    241e:	6a 04                	push   $0x4
    2420:	57                   	push   %edi
    2421:	e8 7f dc ff ff       	call   a5 <outb>
    2426:	83 c4 10             	add    $0x10,%esp
    2429:	bf 00 00 00 00       	mov    $0x0,%edi
    242e:	66 8b 46 16          	mov    0x16(%esi),%ax
    2432:	66 3b 46 18          	cmp    0x18(%esi),%ax
    2436:	0f 85 66 ff ff ff    	jne    23a2 <eep_xintr+0x3d>
    243c:	83 ec 0c             	sub    $0xc,%esp
    243f:	ff 76 0c             	pushl  0xc(%esi)
    2442:	e8 ab fd ff ff       	call   21f2 <mon_lenq>
    2447:	83 c4 10             	add    $0x10,%esp
    244a:	85 c0                	test   %eax,%eax
    244c:	74 0c                	je     245a <eep_xintr+0xf5>
    244e:	83 ec 0c             	sub    $0xc,%esp
    2451:	56                   	push   %esi
    2452:	e8 41 0b 00 00       	call   2f98 <mon_ethwstrt>
    2457:	83 c4 10             	add    $0x10,%esp
    245a:	b8 01 00 00 00       	mov    $0x1,%eax
    245f:	8d 65 f4             	lea    0xfffffff4(%ebp),%esp
    2462:	5b                   	pop    %ebx
    2463:	5e                   	pop    %esi
    2464:	5f                   	pop    %edi
    2465:	5d                   	pop    %ebp
    2466:	c3                   	ret    
    2467:	90                   	nop    

00002468 <mon_ethwrite>:
    2468:	55                   	push   %ebp
    2469:	89 e5                	mov    %esp,%ebp
    246b:	57                   	push   %edi
    246c:	56                   	push   %esi
    246d:	53                   	push   %ebx
    246e:	83 ec 0c             	sub    $0xc,%esp
    2471:	8b 75 08             	mov    0x8(%ebp),%esi
    2474:	8b 5d 0c             	mov    0xc(%ebp),%ebx
    2477:	bf a0 8c 01 00       	mov    $0x18ca0,%edi
    247c:	81 fb ea 05 00 00    	cmp    $0x5ea,%ebx
    2482:	7e 13                	jle    2497 <mon_ethwrite+0x2f>
    2484:	83 ec 0c             	sub    $0xc,%esp
    2487:	56                   	push   %esi
    2488:	e8 7f 26 00 00       	call   4b0c <freebuf>
    248d:	b8 ff ff ff ff       	mov    $0xffffffff,%eax
    2492:	e9 92 00 00 00       	jmp    2529 <mon_ethwrite+0xc1>
    2497:	83 fb 3b             	cmp    $0x3b,%ebx
    249a:	7f 05                	jg     24a1 <mon_ethwrite+0x39>
    249c:	bb 3c 00 00 00       	mov    $0x3c,%ebx
    24a1:	83 ec 04             	sub    $0x4,%esp
    24a4:	6a 06                	push   $0x6
    24a6:	57                   	push   %edi
    24a7:	8d 46 0e             	lea    0xe(%esi),%eax
    24aa:	50                   	push   %eax
    24ab:	e8 b0 6b 00 00       	call   9060 <blkcopy>
    24b0:	66 89 5e 06          	mov    %bx,0x6(%esi)
    24b4:	66 8b 46 14          	mov    0x14(%esi),%ax
    24b8:	89 c2                	mov    %eax,%edx
    24ba:	66 c1 ea 08          	shr    $0x8,%dx
    24be:	25 ff 00 00 00       	and    $0xff,%eax
    24c3:	c1 e0 08             	shl    $0x8,%eax
    24c6:	09 c2                	or     %eax,%edx
    24c8:	66 89 56 14          	mov    %dx,0x14(%esi)
    24cc:	83 c4 0c             	add    $0xc,%esp
    24cf:	6a 00                	push   $0x0
    24d1:	56                   	push   %esi
    24d2:	ff 77 0c             	pushl  0xc(%edi)
    24d5:	e8 fe fa ff ff       	call   1fd8 <mon_enq>
    24da:	83 c4 10             	add    $0x10,%esp
    24dd:	85 c0                	test   %eax,%eax
    24df:	79 24                	jns    2505 <mon_ethwrite+0x9d>
    24e1:	83 ec 0c             	sub    $0xc,%esp
    24e4:	ff 77 0c             	pushl  0xc(%edi)
    24e7:	e8 06 fd ff ff       	call   21f2 <mon_lenq>
    24ec:	83 c4 08             	add    $0x8,%esp
    24ef:	50                   	push   %eax
    24f0:	68 68 9b 00 00       	push   $0x9b68
    24f5:	e8 6e 35 00 00       	call   5a68 <kprintf>
    24fa:	89 34 24             	mov    %esi,(%esp)
    24fd:	e8 0a 26 00 00       	call   4b0c <freebuf>
    2502:	83 c4 10             	add    $0x10,%esp
    2505:	83 ec 0c             	sub    $0xc,%esp
    2508:	8d 45 f2             	lea    0xfffffff2(%ebp),%eax
    250b:	50                   	push   %eax
    250c:	e8 ab e2 ff ff       	call   7bc <disable>
    2511:	89 3c 24             	mov    %edi,(%esp)
    2514:	e8 7f 0a 00 00       	call   2f98 <mon_ethwstrt>
    2519:	8d 45 f2             	lea    0xfffffff2(%ebp),%eax
    251c:	89 04 24             	mov    %eax,(%esp)
    251f:	e8 c0 e2 ff ff       	call   7e4 <restore>
    2524:	b8 01 00 00 00       	mov    $0x1,%eax
    2529:	8d 65 f4             	lea    0xfffffff4(%ebp),%esp
    252c:	5b                   	pop    %ebx
    252d:	5e                   	pop    %esi
    252e:	5f                   	pop    %edi
    252f:	5d                   	pop    %ebp
    2530:	c3                   	ret    
    2531:	90                   	nop    
    2532:	90                   	nop    
    2533:	90                   	nop    

00002534 <mon_ethinit>:
    2534:	55                   	push   %ebp
    2535:	89 e5                	mov    %esp,%ebp
    2537:	56                   	push   %esi
    2538:	53                   	push   %ebx
    2539:	be a0 8c 01 00       	mov    $0x18ca0,%esi
    253e:	83 ec 0c             	sub    $0xc,%esp
    2541:	6a 10                	push   $0x10
    2543:	e8 11 fc ff ff       	call   2159 <mon_newq>
    2548:	a3 ac 8c 01 00       	mov    %eax,0x18cac
    254d:	66 c7 05 b0 8c 01 00 	movw   $0x0,0x18cb0
    2554:	00 00 
    2556:	e8 65 11 00 00       	call   36c0 <mon_pci_init>
    255b:	83 c4 10             	add    $0x10,%esp
    255e:	83 f8 01             	cmp    $0x1,%eax
    2561:	0f 85 83 00 00 00    	jne    25ea <mon_ethinit+0xb6>
    2567:	83 ec 0c             	sub    $0xc,%esp
    256a:	68 87 9b 00 00       	push   $0x9b87
    256f:	e8 f4 34 00 00       	call   5a68 <kprintf>
    2574:	83 c4 0c             	add    $0xc,%esp
    2577:	6a 00                	push   $0x0
    2579:	68 b7 10 00 00       	push   $0x10b7
    257e:	68 00 92 00 00       	push   $0x9200
    2583:	e8 a7 13 00 00       	call   392f <mon_find_pci_device>
    2588:	83 c4 10             	add    $0x10,%esp
    258b:	83 f8 01             	cmp    $0x1,%eax
    258e:	75 1c                	jne    25ac <mon_ethinit+0x78>
    2590:	83 ec 0c             	sub    $0xc,%esp
    2593:	68 a0 9b 00 00       	push   $0x9ba0
    2598:	e8 cb 34 00 00       	call   5a68 <kprintf>
    259d:	e8 20 15 00 00       	call   3ac2 <mon_3c905_ethinit>
    25a2:	b8 01 00 00 00       	mov    $0x1,%eax
    25a7:	e9 8c 00 00 00       	jmp    2638 <mon_ethinit+0x104>
    25ac:	83 ec 04             	sub    $0x4,%esp
    25af:	6a 00                	push   $0x0
    25b1:	68 86 80 00 00       	push   $0x8086
    25b6:	68 29 12 00 00       	push   $0x1229
    25bb:	e8 6f 13 00 00       	call   392f <mon_find_pci_device>
    25c0:	83 c4 10             	add    $0x10,%esp
    25c3:	83 f8 01             	cmp    $0x1,%eax
    25c6:	75 12                	jne    25da <mon_ethinit+0xa6>
    25c8:	83 ec 0c             	sub    $0xc,%esp
    25cb:	68 d0 9b 00 00       	push   $0x9bd0
    25d0:	e8 93 34 00 00       	call   5a68 <kprintf>
    25d5:	83 c4 10             	add    $0x10,%esp
    25d8:	eb 10                	jmp    25ea <mon_ethinit+0xb6>
    25da:	83 ec 0c             	sub    $0xc,%esp
    25dd:	68 04 9c 00 00       	push   $0x9c04
    25e2:	e8 81 34 00 00       	call   5a68 <kprintf>
    25e7:	83 c4 10             	add    $0x10,%esp
    25ea:	83 ec 08             	sub    $0x8,%esp
    25ed:	bb 00 00 00 00       	mov    $0x0,%ebx
    25f2:	53                   	push   %ebx
    25f3:	56                   	push   %esi
    25f4:	e8 46 00 00 00       	call   263f <eep_probe>
    25f9:	83 c4 10             	add    $0x10,%esp
    25fc:	83 f8 ff             	cmp    $0xffffffff,%eax
    25ff:	75 15                	jne    2616 <mon_ethinit+0xe2>
    2601:	83 ec 08             	sub    $0x8,%esp
    2604:	53                   	push   %ebx
    2605:	68 38 9c 00 00       	push   $0x9c38
    260a:	e8 59 34 00 00       	call   5a68 <kprintf>
    260f:	b8 ff ff ff ff       	mov    $0xffffffff,%eax
    2614:	eb 22                	jmp    2638 <mon_ethinit+0x104>
    2616:	83 ec 08             	sub    $0x8,%esp
    2619:	66 8b 46 10          	mov    0x10(%esi),%ax
    261d:	25 ff ff 00 00       	and    $0xffff,%eax
    2622:	50                   	push   %eax
    2623:	56                   	push   %esi
    2624:	e8 57 04 00 00       	call   2a80 <i82595_init>
    2629:	c7 05 88 8c 01 00 68 	movl   $0x2468,0x18c88
    2630:	24 00 00 
    2633:	b8 01 00 00 00       	mov    $0x1,%eax
    2638:	8d 65 f8             	lea    0xfffffff8(%ebp),%esp
    263b:	5b                   	pop    %ebx
    263c:	5e                   	pop    %esi
    263d:	5d                   	pop    %ebp
    263e:	c3                   	ret    

0000263f <eep_probe>:
    263f:	55                   	push   %ebp
    2640:	89 e5                	mov    %esp,%ebp
    2642:	57                   	push   %edi
    2643:	56                   	push   %esi
    2644:	53                   	push   %ebx
    2645:	83 ec 18             	sub    $0x18,%esp
    2648:	8b 75 08             	mov    0x8(%ebp),%esi
    264b:	8b 7d 0c             	mov    0xc(%ebp),%edi
    264e:	89 f8                	mov    %edi,%eax
    2650:	25 ff ff 00 00       	and    $0xffff,%eax
    2655:	50                   	push   %eax
    2656:	e8 6f 01 00 00       	call   27ca <search_eepro>
    265b:	83 c4 10             	add    $0x10,%esp
    265e:	b9 ff ff ff ff       	mov    $0xffffffff,%ecx
    2663:	66 85 c0             	test   %ax,%ax
    2666:	0f 84 54 01 00 00    	je     27c0 <eep_probe+0x181>
    266c:	66 39 f8             	cmp    %di,%ax
    266f:	74 06                	je     2677 <eep_probe+0x38>
    2671:	89 c7                	mov    %eax,%edi
    2673:	66 89 46 10          	mov    %ax,0x10(%esi)
    2677:	83 ec 08             	sub    $0x8,%esp
    267a:	6a 04                	push   $0x4
    267c:	0f bf df             	movswl %di,%ebx
    267f:	53                   	push   %ebx
    2680:	e8 03 0b 00 00       	call   3188 <mon_ethromread>
    2685:	89 c2                	mov    %eax,%edx
    2687:	66 c1 e8 08          	shr    $0x8,%ax
    268b:	88 06                	mov    %al,(%esi)
    268d:	88 56 01             	mov    %dl,0x1(%esi)
    2690:	83 c4 08             	add    $0x8,%esp
    2693:	6a 03                	push   $0x3
    2695:	53                   	push   %ebx
    2696:	e8 ed 0a 00 00       	call   3188 <mon_ethromread>
    269b:	89 c2                	mov    %eax,%edx
    269d:	66 c1 e8 08          	shr    $0x8,%ax
    26a1:	88 46 02             	mov    %al,0x2(%esi)
    26a4:	88 56 03             	mov    %dl,0x3(%esi)
    26a7:	83 c4 08             	add    $0x8,%esp
    26aa:	6a 02                	push   $0x2
    26ac:	53                   	push   %ebx
    26ad:	e8 d6 0a 00 00       	call   3188 <mon_ethromread>
    26b2:	89 c2                	mov    %eax,%edx
    26b4:	66 c1 e8 08          	shr    $0x8,%ax
    26b8:	88 46 04             	mov    %al,0x4(%esi)
    26bb:	88 56 05             	mov    %dl,0x5(%esi)
    26be:	8b 06                	mov    (%esi),%eax
    26c0:	25 ff ff ff 00       	and    $0xffffff,%eax
    26c5:	83 c4 10             	add    $0x10,%esp
    26c8:	b9 ff ff ff ff       	mov    $0xffffffff,%ecx
    26cd:	3d 00 aa 00 00       	cmp    $0xaa00,%eax
    26d2:	0f 85 e8 00 00 00    	jne    27c0 <eep_probe+0x181>
    26d8:	ba 00 00 00 00       	mov    $0x0,%edx
    26dd:	89 d0                	mov    %edx,%eax
    26df:	25 ff ff 00 00       	and    $0xffff,%eax
    26e4:	c6 44 06 06 ff       	movb   $0xff,0x6(%esi,%eax,1)
    26e9:	42                   	inc    %edx
    26ea:	66 83 fa 05          	cmp    $0x5,%dx
    26ee:	76 ed                	jbe    26dd <eep_probe+0x9e>
    26f0:	83 ec 08             	sub    $0x8,%esp
    26f3:	6a 01                	push   $0x1
    26f5:	0f bf c7             	movswl %di,%eax
    26f8:	50                   	push   %eax
    26f9:	e8 8a 0a 00 00       	call   3188 <mon_ethromread>
    26fe:	89 c2                	mov    %eax,%edx
    2700:	83 c4 10             	add    $0x10,%esp
    2703:	89 d0                	mov    %edx,%eax
    2705:	83 e0 07             	and    $0x7,%eax
    2708:	83 f8 04             	cmp    $0x4,%eax
    270b:	77 2a                	ja     2737 <eep_probe+0xf8>
    270d:	ff 24 85 c8 9c 00 00 	jmp    *0x9cc8(,%eax,4)
    2714:	b8 09 00 00 00       	mov    $0x9,%eax
    2719:	eb 30                	jmp    274b <eep_probe+0x10c>
    271b:	b8 03 00 00 00       	mov    $0x3,%eax
    2720:	eb 29                	jmp    274b <eep_probe+0x10c>
    2722:	b8 05 00 00 00       	mov    $0x5,%eax
    2727:	eb 22                	jmp    274b <eep_probe+0x10c>
    2729:	b8 0a 00 00 00       	mov    $0xa,%eax
    272e:	eb 1b                	jmp    274b <eep_probe+0x10c>
    2730:	b8 0b 00 00 00       	mov    $0xb,%eax
    2735:	eb 14                	jmp    274b <eep_probe+0x10c>
    2737:	83 ec 0c             	sub    $0xc,%esp
    273a:	68 64 9c 00 00       	push   $0x9c64
    273f:	e8 24 33 00 00       	call   5a68 <kprintf>
    2744:	b9 ff ff ff ff       	mov    $0xffffffff,%ecx
    2749:	eb 75                	jmp    27c0 <eep_probe+0x181>
    274b:	66 89 46 12          	mov    %ax,0x12(%esi)
    274f:	83 ec 08             	sub    $0x8,%esp
    2752:	68 b0 8c 00 00       	push   $0x8cb0
    2757:	83 c0 20             	add    $0x20,%eax
    275a:	50                   	push   %eax
    275b:	e8 82 21 00 00       	call   48e2 <set_evec>
    2760:	89 f8                	mov    %edi,%eax
    2762:	25 ff ff 00 00       	and    $0xffff,%eax
    2767:	89 04 24             	mov    %eax,(%esp)
    276a:	e8 72 01 00 00       	call   28e1 <check_mem_size>
    276f:	83 c4 10             	add    $0x10,%esp
    2772:	83 f8 20             	cmp    $0x20,%eax
    2775:	74 07                	je     277e <eep_probe+0x13f>
    2777:	83 f8 40             	cmp    $0x40,%eax
    277a:	74 11                	je     278d <eep_probe+0x14e>
    277c:	eb 1e                	jmp    279c <eep_probe+0x15d>
    277e:	c7 46 20 00 80 00 00 	movl   $0x8000,0x20(%esi)
    2785:	66 c7 46 24 00 18    	movw   $0x1800,0x24(%esi)
    278b:	eb 23                	jmp    27b0 <eep_probe+0x171>
    278d:	c7 46 20 00 00 01 00 	movl   $0x10000,0x20(%esi)
    2794:	66 c7 46 24 00 30    	movw   $0x3000,0x24(%esi)
    279a:	eb 14                	jmp    27b0 <eep_probe+0x171>
    279c:	83 ec 0c             	sub    $0xc,%esp
    279f:	68 9c 9c 00 00       	push   $0x9c9c
    27a4:	e8 bf 32 00 00       	call   5a68 <kprintf>
    27a9:	b9 ff ff ff ff       	mov    $0xffffffff,%ecx
    27ae:	eb 10                	jmp    27c0 <eep_probe+0x181>
    27b0:	8b 46 20             	mov    0x20(%esi),%eax
    27b3:	66 2b 46 24          	sub    0x24(%esi),%ax
    27b7:	66 89 46 26          	mov    %ax,0x26(%esi)
    27bb:	b9 01 00 00 00       	mov    $0x1,%ecx
    27c0:	89 c8                	mov    %ecx,%eax
    27c2:	8d 65 f4             	lea    0xfffffff4(%ebp),%esp
    27c5:	5b                   	pop    %ebx
    27c6:	5e                   	pop    %esi
    27c7:	5f                   	pop    %edi
    27c8:	5d                   	pop    %ebp
    27c9:	c3                   	ret    

000027ca <search_eepro>:
    27ca:	55                   	push   %ebp
    27cb:	89 e5                	mov    %esp,%ebp
    27cd:	56                   	push   %esi
    27ce:	53                   	push   %ebx
    27cf:	8b 5d 08             	mov    0x8(%ebp),%ebx
    27d2:	83 ec 0c             	sub    $0xc,%esp
    27d5:	89 d8                	mov    %ebx,%eax
    27d7:	25 ff ff 00 00       	and    $0xffff,%eax
    27dc:	50                   	push   %eax
    27dd:	e8 78 00 00 00       	call   285a <check_board>
    27e2:	83 c4 10             	add    $0x10,%esp
    27e5:	89 c2                	mov    %eax,%edx
    27e7:	83 f8 ff             	cmp    $0xffffffff,%eax
    27ea:	75 65                	jne    2851 <search_eepro+0x87>
    27ec:	eb 08                	jmp    27f6 <search_eepro+0x2c>
    27ee:	89 c2                	mov    %eax,%edx
    27f0:	eb 5f                	jmp    2851 <search_eepro+0x87>
    27f2:	89 c2                	mov    %eax,%edx
    27f4:	eb 5b                	jmp    2851 <search_eepro+0x87>
    27f6:	bb 00 02 00 00       	mov    $0x200,%ebx
    27fb:	be 00 00 00 00       	mov    $0x0,%esi
    2800:	83 ec 0c             	sub    $0xc,%esp
    2803:	89 d8                	mov    %ebx,%eax
    2805:	25 ff ff 00 00       	and    $0xffff,%eax
    280a:	50                   	push   %eax
    280b:	e8 4a 00 00 00       	call   285a <check_board>
    2810:	83 c4 10             	add    $0x10,%esp
    2813:	83 f8 ff             	cmp    $0xffffffff,%eax
    2816:	75 d6                	jne    27ee <search_eepro+0x24>
    2818:	83 c3 10             	add    $0x10,%ebx
    281b:	46                   	inc    %esi
    281c:	83 fe 07             	cmp    $0x7,%esi
    281f:	7e df                	jle    2800 <search_eepro+0x36>
    2821:	bb 00 03 00 00       	mov    $0x300,%ebx
    2826:	be 00 00 00 00       	mov    $0x0,%esi
    282b:	83 ec 0c             	sub    $0xc,%esp
    282e:	89 d8                	mov    %ebx,%eax
    2830:	25 ff ff 00 00       	and    $0xffff,%eax
    2835:	50                   	push   %eax
    2836:	e8 1f 00 00 00       	call   285a <check_board>
    283b:	83 c4 10             	add    $0x10,%esp
    283e:	83 f8 ff             	cmp    $0xffffffff,%eax
    2841:	75 af                	jne    27f2 <search_eepro+0x28>
    2843:	83 c3 10             	add    $0x10,%ebx
    2846:	46                   	inc    %esi
    2847:	83 fe 07             	cmp    $0x7,%esi
    284a:	7e df                	jle    282b <search_eepro+0x61>
    284c:	ba 00 00 00 00       	mov    $0x0,%edx
    2851:	89 d0                	mov    %edx,%eax
    2853:	8d 65 f8             	lea    0xfffffff8(%ebp),%esp
    2856:	5b                   	pop    %ebx
    2857:	5e                   	pop    %esi
    2858:	5d                   	pop    %ebp
    2859:	c3                   	ret    

0000285a <check_board>:
    285a:	55                   	push   %ebp
    285b:	89 e5                	mov    %esp,%ebp
    285d:	57                   	push   %edi
    285e:	56                   	push   %esi
    285f:	53                   	push   %ebx
    2860:	83 ec 0c             	sub    $0xc,%esp
    2863:	8b 45 08             	mov    0x8(%ebp),%eax
    2866:	66 89 45 f2          	mov    %ax,0xfffffff2(%ebp)
    286a:	b3 00                	mov    $0x0,%bl
    286c:	25 ff ff 00 00       	and    $0xffff,%eax
    2871:	8d 70 02             	lea    0x2(%eax),%esi
    2874:	83 ec 0c             	sub    $0xc,%esp
    2877:	56                   	push   %esi
    2878:	e8 0f d8 ff ff       	call   8c <inb>
    287d:	83 e0 ec             	and    $0xffffffec,%eax
    2880:	83 c4 10             	add    $0x10,%esp
    2883:	3c 24                	cmp    $0x24,%al
    2885:	74 06                	je     288d <check_board+0x33>
    2887:	43                   	inc    %ebx
    2888:	80 fb 03             	cmp    $0x3,%bl
    288b:	76 e7                	jbe    2874 <check_board+0x1a>
    288d:	be 40 00 00 00       	mov    $0x40,%esi
    2892:	b3 00                	mov    $0x0,%bl
    2894:	66 8b 45 f2          	mov    0xfffffff2(%ebp),%ax
    2898:	25 ff ff 00 00       	and    $0xffff,%eax
    289d:	8d 78 02             	lea    0x2(%eax),%edi
    28a0:	83 ec 0c             	sub    $0xc,%esp
    28a3:	57                   	push   %edi
    28a4:	e8 e3 d7 ff ff       	call   8c <inb>
    28a9:	25 ec 00 00 00       	and    $0xec,%eax
    28ae:	89 f2                	mov    %esi,%edx
    28b0:	81 e2 ff 00 00 00    	and    $0xff,%edx
    28b6:	83 c2 24             	add    $0x24,%edx
    28b9:	83 c4 10             	add    $0x10,%esp
    28bc:	39 d0                	cmp    %edx,%eax
    28be:	74 07                	je     28c7 <check_board+0x6d>
    28c0:	b8 ff ff ff ff       	mov    $0xffffffff,%eax
    28c5:	eb 12                	jmp    28d9 <check_board+0x7f>
    28c7:	83 c6 40             	add    $0x40,%esi
    28ca:	43                   	inc    %ebx
    28cb:	80 fb 02             	cmp    $0x2,%bl
    28ce:	76 d0                	jbe    28a0 <check_board+0x46>
    28d0:	66 8b 45 f2          	mov    0xfffffff2(%ebp),%ax
    28d4:	25 ff ff 00 00       	and    $0xffff,%eax
    28d9:	8d 65 f4             	lea    0xfffffff4(%ebp),%esp
    28dc:	5b                   	pop    %ebx
    28dd:	5e                   	pop    %esi
    28de:	5f                   	pop    %edi
    28df:	5d                   	pop    %ebp
    28e0:	c3                   	ret    

000028e1 <check_mem_size>:
    28e1:	55                   	push   %ebp
    28e2:	89 e5                	mov    %esp,%ebp
    28e4:	57                   	push   %edi
    28e5:	56                   	push   %esi
    28e6:	53                   	push   %ebx
    28e7:	83 ec 14             	sub    $0x14,%esp
    28ea:	8b 45 08             	mov    0x8(%ebp),%eax
    28ed:	8d 50 0e             	lea    0xe(%eax),%edx
    28f0:	66 89 55 f2          	mov    %dx,0xfffffff2(%ebp)
    28f4:	8d 50 0c             	lea    0xc(%eax),%edx
    28f7:	66 89 55 f0          	mov    %dx,0xfffffff0(%ebp)
    28fb:	6a 00                	push   $0x0
    28fd:	25 ff ff 00 00       	and    $0xffff,%eax
    2902:	50                   	push   %eax
    2903:	e8 9d d7 ff ff       	call   a5 <outb>
    2908:	83 c4 08             	add    $0x8,%esp
    290b:	6a 00                	push   $0x0
    290d:	8b 45 f0             	mov    0xfffffff0(%ebp),%eax
    2910:	25 ff ff 00 00       	and    $0xffff,%eax
    2915:	50                   	push   %eax
    2916:	e8 94 d7 ff ff       	call   af <outw>
    291b:	be 03 00 00 00       	mov    $0x3,%esi
    2920:	bb 00 00 00 00       	mov    $0x0,%ebx
    2925:	83 c4 10             	add    $0x10,%esp
    2928:	66 8b 7d f2          	mov    0xfffffff2(%ebp),%di
    292c:	81 e7 ff ff 00 00    	and    $0xffff,%edi
    2932:	83 ec 08             	sub    $0x8,%esp
    2935:	89 f0                	mov    %esi,%eax
    2937:	25 ff ff 00 00       	and    $0xffff,%eax
    293c:	50                   	push   %eax
    293d:	57                   	push   %edi
    293e:	e8 6c d7 ff ff       	call   af <outw>
    2943:	83 c6 03             	add    $0x3,%esi
    2946:	83 c4 10             	add    $0x10,%esp
    2949:	43                   	inc    %ebx
    294a:	66 83 fb 0f          	cmp    $0xf,%bx
    294e:	76 e2                	jbe    2932 <check_mem_size+0x51>
    2950:	83 ec 08             	sub    $0x8,%esp
    2953:	6a 00                	push   $0x0
    2955:	8b 45 f0             	mov    0xfffffff0(%ebp),%eax
    2958:	25 ff ff 00 00       	and    $0xffff,%eax
    295d:	50                   	push   %eax
    295e:	e8 4c d7 ff ff       	call   af <outw>
    2963:	be 03 00 00 00       	mov    $0x3,%esi
    2968:	bb 00 00 00 00       	mov    $0x0,%ebx
    296d:	83 c4 10             	add    $0x10,%esp
    2970:	66 8b 7d f2          	mov    0xfffffff2(%ebp),%di
    2974:	81 e7 ff ff 00 00    	and    $0xffff,%edi
    297a:	83 ec 0c             	sub    $0xc,%esp
    297d:	57                   	push   %edi
    297e:	e8 11 d7 ff ff       	call   94 <inw>
    2983:	83 c4 10             	add    $0x10,%esp
    2986:	66 39 c6             	cmp    %ax,%si
    2989:	74 0a                	je     2995 <check_mem_size+0xb4>
    298b:	b8 ff ff ff ff       	mov    $0xffffffff,%eax
    2990:	e9 e3 00 00 00       	jmp    2a78 <check_mem_size+0x197>
    2995:	83 c6 03             	add    $0x3,%esi
    2998:	43                   	inc    %ebx
    2999:	66 83 fb 0f          	cmp    $0xf,%bx
    299d:	76 db                	jbe    297a <check_mem_size+0x99>
    299f:	83 ec 08             	sub    $0x8,%esp
    29a2:	68 00 80 00 00       	push   $0x8000
    29a7:	8b 45 f0             	mov    0xfffffff0(%ebp),%eax
    29aa:	25 ff ff 00 00       	and    $0xffff,%eax
    29af:	50                   	push   %eax
    29b0:	e8 fa d6 ff ff       	call   af <outw>
    29b5:	be 09 00 00 00       	mov    $0x9,%esi
    29ba:	bb 00 00 00 00       	mov    $0x0,%ebx
    29bf:	83 c4 10             	add    $0x10,%esp
    29c2:	66 8b 7d f2          	mov    0xfffffff2(%ebp),%di
    29c6:	81 e7 ff ff 00 00    	and    $0xffff,%edi
    29cc:	83 ec 08             	sub    $0x8,%esp
    29cf:	89 f0                	mov    %esi,%eax
    29d1:	25 ff ff 00 00       	and    $0xffff,%eax
    29d6:	50                   	push   %eax
    29d7:	57                   	push   %edi
    29d8:	e8 d2 d6 ff ff       	call   af <outw>
    29dd:	83 c6 03             	add    $0x3,%esi
    29e0:	83 c4 10             	add    $0x10,%esp
    29e3:	43                   	inc    %ebx
    29e4:	66 83 fb 0f          	cmp    $0xf,%bx
    29e8:	76 e2                	jbe    29cc <check_mem_size+0xeb>
    29ea:	83 ec 08             	sub    $0x8,%esp
    29ed:	6a 00                	push   $0x0
    29ef:	8b 45 f0             	mov    0xfffffff0(%ebp),%eax
    29f2:	25 ff ff 00 00       	and    $0xffff,%eax
    29f7:	50                   	push   %eax
    29f8:	e8 b2 d6 ff ff       	call   af <outw>
    29fd:	bb 00 00 00 00       	mov    $0x0,%ebx
    2a02:	83 c4 10             	add    $0x10,%esp
    2a05:	66 8b 75 f2          	mov    0xfffffff2(%ebp),%si
    2a09:	81 e6 ff ff 00 00    	and    $0xffff,%esi
    2a0f:	83 ec 08             	sub    $0x8,%esp
    2a12:	6a 00                	push   $0x0
    2a14:	56                   	push   %esi
    2a15:	e8 95 d6 ff ff       	call   af <outw>
    2a1a:	83 c4 10             	add    $0x10,%esp
    2a1d:	43                   	inc    %ebx
    2a1e:	66 83 fb 0f          	cmp    $0xf,%bx
    2a22:	76 eb                	jbe    2a0f <check_mem_size+0x12e>
    2a24:	83 ec 08             	sub    $0x8,%esp
    2a27:	68 00 80 00 00       	push   $0x8000
    2a2c:	8b 45 f0             	mov    0xfffffff0(%ebp),%eax
    2a2f:	25 ff ff 00 00       	and    $0xffff,%eax
    2a34:	50                   	push   %eax
    2a35:	e8 75 d6 ff ff       	call   af <outw>
    2a3a:	be 09 00 00 00       	mov    $0x9,%esi
    2a3f:	bb 00 00 00 00       	mov    $0x0,%ebx
    2a44:	83 c4 10             	add    $0x10,%esp
    2a47:	66 8b 7d f2          	mov    0xfffffff2(%ebp),%di
    2a4b:	81 e7 ff ff 00 00    	and    $0xffff,%edi
    2a51:	83 ec 0c             	sub    $0xc,%esp
    2a54:	57                   	push   %edi
    2a55:	e8 3a d6 ff ff       	call   94 <inw>
    2a5a:	83 c4 10             	add    $0x10,%esp
    2a5d:	66 39 c6             	cmp    %ax,%si
    2a60:	74 07                	je     2a69 <check_mem_size+0x188>
    2a62:	b8 20 00 00 00       	mov    $0x20,%eax
    2a67:	eb 0f                	jmp    2a78 <check_mem_size+0x197>
    2a69:	83 c6 03             	add    $0x3,%esi
    2a6c:	43                   	inc    %ebx
    2a6d:	66 83 fb 0f          	cmp    $0xf,%bx
    2a71:	76 de                	jbe    2a51 <check_mem_size+0x170>
    2a73:	b8 40 00 00 00       	mov    $0x40,%eax
    2a78:	8d 65 f4             	lea    0xfffffff4(%ebp),%esp
    2a7b:	5b                   	pop    %ebx
    2a7c:	5e                   	pop    %esi
    2a7d:	5f                   	pop    %edi
    2a7e:	5d                   	pop    %ebp
    2a7f:	c3                   	ret    

00002a80 <i82595_init>:
    2a80:	55                   	push   %ebp
    2a81:	89 e5                	mov    %esp,%ebp
    2a83:	57                   	push   %edi
    2a84:	56                   	push   %esi
    2a85:	53                   	push   %ebx
    2a86:	83 ec 10             	sub    $0x10,%esp
    2a89:	8b 45 0c             	mov    0xc(%ebp),%eax
    2a8c:	66 89 45 f2          	mov    %ax,0xfffffff2(%ebp)
    2a90:	6a 0e                	push   $0xe
    2a92:	6a 0e                	push   $0xe
    2a94:	25 ff ff 00 00       	and    $0xffff,%eax
    2a99:	50                   	push   %eax
    2a9a:	e8 f9 0a 00 00       	call   3598 <mon_ethcmd>
    2a9f:	83 c4 10             	add    $0x10,%esp
    2aa2:	ba ff ff ff ff       	mov    $0xffffffff,%edx
    2aa7:	83 f8 ff             	cmp    $0xffffffff,%eax
    2aaa:	0f 84 63 02 00 00    	je     2d13 <i82595_init+0x293>
    2ab0:	83 ec 08             	sub    $0x8,%esp
    2ab3:	6a 40                	push   $0x40
    2ab5:	66 8b 75 f2          	mov    0xfffffff2(%ebp),%si
    2ab9:	81 e6 ff ff 00 00    	and    $0xffff,%esi
    2abf:	56                   	push   %esi
    2ac0:	e8 e0 d5 ff ff       	call   a5 <outb>
    2ac5:	8d 5e 01             	lea    0x1(%esi),%ebx
    2ac8:	89 1c 24             	mov    %ebx,(%esp)
    2acb:	e8 bc d5 ff ff       	call   8c <inb>
    2ad0:	83 c4 08             	add    $0x8,%esp
    2ad3:	83 c8 80             	or     $0xffffff80,%eax
    2ad6:	25 ff 00 00 00       	and    $0xff,%eax
    2adb:	50                   	push   %eax
    2adc:	53                   	push   %ebx
    2add:	e8 c3 d5 ff ff       	call   a5 <outb>
    2ae2:	8d 7e 02             	lea    0x2(%esi),%edi
    2ae5:	89 3c 24             	mov    %edi,(%esp)
    2ae8:	e8 9f d5 ff ff       	call   8c <inb>
    2aed:	83 c4 08             	add    $0x8,%esp
    2af0:	25 f8 00 00 00       	and    $0xf8,%eax
    2af5:	8b 4d 08             	mov    0x8(%ebp),%ecx
    2af8:	66 8b 51 12          	mov    0x12(%ecx),%dx
    2afc:	81 e2 ff ff 00 00    	and    $0xffff,%edx
    2b02:	0f be 92 b0 b2 00 00 	movsbl 0xb2b0(%edx),%edx
    2b09:	09 d0                	or     %edx,%eax
    2b0b:	50                   	push   %eax
    2b0c:	57                   	push   %edi
    2b0d:	e8 93 d5 ff ff       	call   a5 <outb>
    2b12:	89 1c 24             	mov    %ebx,(%esp)
    2b15:	e8 72 d5 ff ff       	call   8c <inb>
    2b1a:	83 c4 08             	add    $0x8,%esp
    2b1d:	83 c8 80             	or     $0xffffff80,%eax
    2b20:	25 ff 00 00 00       	and    $0xff,%eax
    2b25:	50                   	push   %eax
    2b26:	53                   	push   %ebx
    2b27:	e8 79 d5 ff ff       	call   a5 <outb>
    2b2c:	83 c4 08             	add    $0x8,%esp
    2b2f:	6a 00                	push   $0x0
    2b31:	8d 46 0a             	lea    0xa(%esi),%eax
    2b34:	50                   	push   %eax
    2b35:	e8 6b d5 ff ff       	call   a5 <outb>
    2b3a:	83 c4 08             	add    $0x8,%esp
    2b3d:	8b 55 08             	mov    0x8(%ebp),%edx
    2b40:	b8 00 00 00 00       	mov    $0x0,%eax
    2b45:	8a 42 25             	mov    0x25(%edx),%al
    2b48:	48                   	dec    %eax
    2b49:	50                   	push   %eax
    2b4a:	8d 46 0b             	lea    0xb(%esi),%eax
    2b4d:	50                   	push   %eax
    2b4e:	e8 52 d5 ff ff       	call   a5 <outb>
    2b53:	83 c4 08             	add    $0x8,%esp
    2b56:	8b 4d 08             	mov    0x8(%ebp),%ecx
    2b59:	b8 00 00 00 00       	mov    $0x0,%eax
    2b5e:	8a 41 25             	mov    0x25(%ecx),%al
    2b61:	50                   	push   %eax
    2b62:	8d 46 08             	lea    0x8(%esi),%eax
    2b65:	50                   	push   %eax
    2b66:	e8 3a d5 ff ff       	call   a5 <outb>
    2b6b:	83 c4 08             	add    $0x8,%esp
    2b6e:	8b 55 08             	mov    0x8(%ebp),%edx
    2b71:	8b 42 20             	mov    0x20(%edx),%eax
    2b74:	c1 e8 08             	shr    $0x8,%eax
    2b77:	48                   	dec    %eax
    2b78:	50                   	push   %eax
    2b79:	8d 46 09             	lea    0x9(%esi),%eax
    2b7c:	50                   	push   %eax
    2b7d:	e8 23 d5 ff ff       	call   a5 <outb>
    2b82:	83 c4 08             	add    $0x8,%esp
    2b85:	68 80 00 00 00       	push   $0x80
    2b8a:	56                   	push   %esi
    2b8b:	e8 15 d5 ff ff       	call   a5 <outb>
    2b90:	89 1c 24             	mov    %ebx,(%esp)
    2b93:	e8 f4 d4 ff ff       	call   8c <inb>
    2b98:	83 c4 08             	add    $0x8,%esp
    2b9b:	83 c8 a0             	or     $0xffffffa0,%eax
    2b9e:	25 ff 00 00 00       	and    $0xff,%eax
    2ba3:	50                   	push   %eax
    2ba4:	53                   	push   %ebx
    2ba5:	e8 fb d4 ff ff       	call   a5 <outb>
    2baa:	83 c4 08             	add    $0x8,%esp
    2bad:	6a 14                	push   $0x14
    2baf:	57                   	push   %edi
    2bb0:	e8 f0 d4 ff ff       	call   a5 <outb>
    2bb5:	8d 5e 03             	lea    0x3(%esi),%ebx
    2bb8:	89 1c 24             	mov    %ebx,(%esp)
    2bbb:	e8 cc d4 ff ff       	call   8c <inb>
    2bc0:	83 c4 08             	add    $0x8,%esp
    2bc3:	83 e0 2f             	and    $0x2f,%eax
    2bc6:	50                   	push   %eax
    2bc7:	53                   	push   %ebx
    2bc8:	e8 d8 d4 ff ff       	call   a5 <outb>
    2bcd:	83 c4 08             	add    $0x8,%esp
    2bd0:	6a 00                	push   $0x0
    2bd2:	56                   	push   %esi
    2bd3:	e8 cd d4 ff ff       	call   a5 <outb>
    2bd8:	83 c4 08             	add    $0x8,%esp
    2bdb:	6a 1e                	push   $0x1e
    2bdd:	56                   	push   %esi
    2bde:	e8 c2 d4 ff ff       	call   a5 <outb>
    2be3:	ba 00 00 00 00       	mov    $0x0,%edx
    2be8:	83 c4 10             	add    $0x10,%esp
    2beb:	8b 0d cc b1 00 00    	mov    0xb1cc,%ecx
    2bf1:	bb 40 06 00 00       	mov    $0x640,%ebx
    2bf6:	89 d8                	mov    %ebx,%eax
    2bf8:	d3 f8                	sar    %cl,%eax
    2bfa:	48                   	dec    %eax
    2bfb:	85 c0                	test   %eax,%eax
    2bfd:	7f fb                	jg     2bfa <i82595_init+0x17a>
    2bff:	42                   	inc    %edx
    2c00:	83 fa 04             	cmp    $0x4,%edx
    2c03:	7e f1                	jle    2bf6 <i82595_init+0x176>
    2c05:	83 ec 08             	sub    $0x8,%esp
    2c08:	6a 00                	push   $0x0
    2c0a:	66 8b 5d f2          	mov    0xfffffff2(%ebp),%bx
    2c0e:	81 e3 ff ff 00 00    	and    $0xffff,%ebx
    2c14:	8d 43 0a             	lea    0xa(%ebx),%eax
    2c17:	50                   	push   %eax
    2c18:	e8 92 d4 ff ff       	call   af <outw>
    2c1d:	8b 4d 08             	mov    0x8(%ebp),%ecx
    2c20:	66 c7 41 18 00 00    	movw   $0x0,0x18(%ecx)
    2c26:	66 c7 41 16 00 00    	movw   $0x0,0x16(%ecx)
    2c2c:	83 c4 08             	add    $0x8,%esp
    2c2f:	66 8b 41 24          	mov    0x24(%ecx),%ax
    2c33:	25 ff ff 00 00       	and    $0xffff,%eax
    2c38:	50                   	push   %eax
    2c39:	8d 43 04             	lea    0x4(%ebx),%eax
    2c3c:	50                   	push   %eax
    2c3d:	e8 6d d4 ff ff       	call   af <outw>
    2c42:	83 c4 08             	add    $0x8,%esp
    2c45:	8b 55 08             	mov    0x8(%ebp),%edx
    2c48:	8b 42 20             	mov    0x20(%edx),%eax
    2c4b:	48                   	dec    %eax
    2c4c:	50                   	push   %eax
    2c4d:	8d 43 06             	lea    0x6(%ebx),%eax
    2c50:	50                   	push   %eax
    2c51:	e8 59 d4 ff ff       	call   af <outw>
    2c56:	8b 4d 08             	mov    0x8(%ebp),%ecx
    2c59:	66 8b 41 24          	mov    0x24(%ecx),%ax
    2c5d:	66 89 41 14          	mov    %ax,0x14(%ecx)
    2c61:	89 1c 24             	mov    %ebx,(%esp)
    2c64:	e8 b4 00 00 00       	call   2d1d <config_593>
    2c69:	83 c4 0c             	add    $0xc,%esp
    2c6c:	6a 07                	push   $0x7
    2c6e:	6a 07                	push   $0x7
    2c70:	53                   	push   %ebx
    2c71:	e8 22 09 00 00       	call   3598 <mon_ethcmd>
    2c76:	83 c4 10             	add    $0x10,%esp
    2c79:	ba ff ff ff ff       	mov    $0xffffffff,%edx
    2c7e:	83 f8 ff             	cmp    $0xffffffff,%eax
    2c81:	0f 84 8c 00 00 00    	je     2d13 <i82595_init+0x293>
    2c87:	83 ec 08             	sub    $0x8,%esp
    2c8a:	68 80 00 00 00       	push   $0x80
    2c8f:	66 8b 45 f2          	mov    0xfffffff2(%ebp),%ax
    2c93:	25 ff ff 00 00       	and    $0xffff,%eax
    2c98:	50                   	push   %eax
    2c99:	e8 07 d4 ff ff       	call   a5 <outb>
    2c9e:	bb 00 00 00 00       	mov    $0x0,%ebx
    2ca3:	83 c4 10             	add    $0x10,%esp
    2ca6:	66 8b 75 f2          	mov    0xfffffff2(%ebp),%si
    2caa:	81 e6 ff ff 00 00    	and    $0xffff,%esi
    2cb0:	83 ec 08             	sub    $0x8,%esp
    2cb3:	8b 55 08             	mov    0x8(%ebp),%edx
    2cb6:	b8 00 00 00 00       	mov    $0x0,%eax
    2cbb:	8a 04 1a             	mov    (%edx,%ebx,1),%al
    2cbe:	50                   	push   %eax
    2cbf:	8d 44 1e 04          	lea    0x4(%esi,%ebx,1),%eax
    2cc3:	50                   	push   %eax
    2cc4:	e8 dc d3 ff ff       	call   a5 <outb>
    2cc9:	83 c4 10             	add    $0x10,%esp
    2ccc:	43                   	inc    %ebx
    2ccd:	83 fb 05             	cmp    $0x5,%ebx
    2cd0:	7e de                	jle    2cb0 <i82595_init+0x230>
    2cd2:	83 ec 08             	sub    $0x8,%esp
    2cd5:	6a 00                	push   $0x0
    2cd7:	66 8b 5d f2          	mov    0xfffffff2(%ebp),%bx
    2cdb:	81 e3 ff ff 00 00    	and    $0xffff,%ebx
    2ce1:	53                   	push   %ebx
    2ce2:	e8 be d3 ff ff       	call   a5 <outb>
    2ce7:	83 c4 08             	add    $0x8,%esp
    2cea:	6a 09                	push   $0x9
    2cec:	8d 43 03             	lea    0x3(%ebx),%eax
    2cef:	50                   	push   %eax
    2cf0:	e8 b0 d3 ff ff       	call   a5 <outb>
    2cf5:	83 c4 08             	add    $0x8,%esp
    2cf8:	6a 0f                	push   $0xf
    2cfa:	8d 43 01             	lea    0x1(%ebx),%eax
    2cfd:	50                   	push   %eax
    2cfe:	e8 a2 d3 ff ff       	call   a5 <outb>
    2d03:	83 c4 08             	add    $0x8,%esp
    2d06:	6a 08                	push   $0x8
    2d08:	53                   	push   %ebx
    2d09:	e8 97 d3 ff ff       	call   a5 <outb>
    2d0e:	ba 01 00 00 00       	mov    $0x1,%edx
    2d13:	89 d0                	mov    %edx,%eax
    2d15:	8d 65 f4             	lea    0xfffffff4(%ebp),%esp
    2d18:	5b                   	pop    %ebx
    2d19:	5e                   	pop    %esi
    2d1a:	5f                   	pop    %edi
    2d1b:	5d                   	pop    %ebp
    2d1c:	c3                   	ret    

00002d1d <config_593>:
    2d1d:	55                   	push   %ebp
    2d1e:	89 e5                	mov    %esp,%ebp
    2d20:	57                   	push   %edi
    2d21:	56                   	push   %esi
    2d22:	53                   	push   %ebx
    2d23:	83 ec 14             	sub    $0x14,%esp
    2d26:	8b 7d 08             	mov    0x8(%ebp),%edi
    2d29:	6a 00                	push   $0x0
    2d2b:	89 fe                	mov    %edi,%esi
    2d2d:	81 e6 ff ff 00 00    	and    $0xffff,%esi
    2d33:	8d 46 0a             	lea    0xa(%esi),%eax
    2d36:	50                   	push   %eax
    2d37:	e8 73 d3 ff ff       	call   af <outw>
    2d3c:	83 c4 08             	add    $0x8,%esp
    2d3f:	6a 00                	push   $0x0
    2d41:	8d 46 0c             	lea    0xc(%esi),%eax
    2d44:	50                   	push   %eax
    2d45:	e8 65 d3 ff ff       	call   af <outw>
    2d4a:	83 c4 08             	add    $0x8,%esp
    2d4d:	6a 02                	push   $0x2
    2d4f:	8d 5e 0e             	lea    0xe(%esi),%ebx
    2d52:	53                   	push   %ebx
    2d53:	e8 57 d3 ff ff       	call   af <outw>
    2d58:	83 c4 08             	add    $0x8,%esp
    2d5b:	6a 00                	push   $0x0
    2d5d:	53                   	push   %ebx
    2d5e:	e8 4c d3 ff ff       	call   af <outw>
    2d63:	83 c4 08             	add    $0x8,%esp
    2d66:	6a 00                	push   $0x0
    2d68:	53                   	push   %ebx
    2d69:	e8 41 d3 ff ff       	call   af <outw>
    2d6e:	83 c4 08             	add    $0x8,%esp
    2d71:	6a 0a                	push   $0xa
    2d73:	53                   	push   %ebx
    2d74:	e8 36 d3 ff ff       	call   af <outw>
    2d79:	83 c4 08             	add    $0x8,%esp
    2d7c:	6a 2e                	push   $0x2e
    2d7e:	53                   	push   %ebx
    2d7f:	e8 2b d3 ff ff       	call   af <outw>
    2d84:	83 c4 08             	add    $0x8,%esp
    2d87:	6a 60                	push   $0x60
    2d89:	53                   	push   %ebx
    2d8a:	e8 20 d3 ff ff       	call   af <outw>
    2d8f:	83 c4 08             	add    $0x8,%esp
    2d92:	68 f2 08 00 00       	push   $0x8f2
    2d97:	53                   	push   %ebx
    2d98:	e8 12 d3 ff ff       	call   af <outw>
    2d9d:	83 c4 08             	add    $0x8,%esp
    2da0:	68 00 40 00 00       	push   $0x4000
    2da5:	53                   	push   %ebx
    2da6:	e8 04 d3 ff ff       	call   af <outw>
    2dab:	83 c4 08             	add    $0x8,%esp
    2dae:	68 b6 00 00 00       	push   $0xb6
    2db3:	53                   	push   %ebx
    2db4:	e8 f6 d2 ff ff       	call   af <outw>
    2db9:	83 c4 08             	add    $0x8,%esp
    2dbc:	6a 02                	push   $0x2
    2dbe:	56                   	push   %esi
    2dbf:	e8 e1 d2 ff ff       	call   a5 <outb>
    2dc4:	ba 00 00 00 00       	mov    $0x0,%edx
    2dc9:	83 c4 10             	add    $0x10,%esp
    2dcc:	8b 0d cc b1 00 00    	mov    0xb1cc,%ecx
    2dd2:	bb 80 3e 00 00       	mov    $0x3e80,%ebx
    2dd7:	89 d8                	mov    %ebx,%eax
    2dd9:	d3 f8                	sar    %cl,%eax
    2ddb:	48                   	dec    %eax
    2ddc:	85 c0                	test   %eax,%eax
    2dde:	7f fb                	jg     2ddb <config_593+0xbe>
    2de0:	42                   	inc    %edx
    2de1:	83 fa 04             	cmp    $0x4,%edx
    2de4:	7e f1                	jle    2dd7 <config_593+0xba>
    2de6:	83 ec 08             	sub    $0x8,%esp
    2de9:	6a 00                	push   $0x0
    2deb:	89 fb                	mov    %edi,%ebx
    2ded:	81 e3 ff ff 00 00    	and    $0xffff,%ebx
    2df3:	8d 43 0a             	lea    0xa(%ebx),%eax
    2df6:	50                   	push   %eax
    2df7:	e8 b3 d2 ff ff       	call   af <outw>
    2dfc:	83 c4 08             	add    $0x8,%esp
    2dff:	6a 00                	push   $0x0
    2e01:	8d 43 0c             	lea    0xc(%ebx),%eax
    2e04:	50                   	push   %eax
    2e05:	e8 a5 d2 ff ff       	call   af <outw>
    2e0a:	83 c4 08             	add    $0x8,%esp
    2e0d:	6a 08                	push   $0x8
    2e0f:	43                   	inc    %ebx
    2e10:	53                   	push   %ebx
    2e11:	e8 8f d2 ff ff       	call   a5 <outb>
    2e16:	b8 01 00 00 00       	mov    $0x1,%eax
    2e1b:	8d 65 f4             	lea    0xfffffff4(%ebp),%esp
    2e1e:	5b                   	pop    %ebx
    2e1f:	5e                   	pop    %esi
    2e20:	5f                   	pop    %edi
    2e21:	5d                   	pop    %ebp
    2e22:	c3                   	ret    
    2e23:	90                   	nop    

00002e24 <mon_ethdemux>:
    2e24:	55                   	push   %ebp
    2e25:	89 e5                	mov    %esp,%ebp
    2e27:	57                   	push   %edi
    2e28:	56                   	push   %esi
    2e29:	53                   	push   %ebx
    2e2a:	83 ec 0c             	sub    $0xc,%esp
    2e2d:	8b 7d 08             	mov    0x8(%ebp),%edi
    2e30:	8b 45 0c             	mov    0xc(%ebp),%eax
    2e33:	8d 50 0e             	lea    0xe(%eax),%edx
    2e36:	c7 45 f0 0a 00 00 00 	movl   $0xa,0xfffffff0(%ebp)
    2e3d:	25 ff ff 00 00       	and    $0xffff,%eax
    2e42:	8d 48 0c             	lea    0xc(%eax),%ecx
    2e45:	89 4d ec             	mov    %ecx,0xffffffec(%ebp)
    2e48:	89 d6                	mov    %edx,%esi
    2e4a:	81 e6 ff ff 00 00    	and    $0xffff,%esi
    2e50:	83 c0 06             	add    $0x6,%eax
    2e53:	89 45 e8             	mov    %eax,0xffffffe8(%ebp)
    2e56:	83 ec 08             	sub    $0x8,%esp
    2e59:	66 8b 47 14          	mov    0x14(%edi),%ax
    2e5d:	25 ff ff 00 00       	and    $0xffff,%eax
    2e62:	50                   	push   %eax
    2e63:	ff 75 ec             	pushl  0xffffffec(%ebp)
    2e66:	e8 44 d2 ff ff       	call   af <outw>
    2e6b:	89 34 24             	mov    %esi,(%esp)
    2e6e:	e8 21 d2 ff ff       	call   94 <inw>
    2e73:	89 c3                	mov    %eax,%ebx
    2e75:	89 34 24             	mov    %esi,(%esp)
    2e78:	e8 17 d2 ff ff       	call   94 <inw>
    2e7d:	83 c4 10             	add    $0x10,%esp
    2e80:	f6 c4 20             	test   $0x20,%ah
    2e83:	74 66                	je     2eeb <mon_ethdemux+0xc7>
    2e85:	f6 c3 08             	test   $0x8,%bl
    2e88:	74 61                	je     2eeb <mon_ethdemux+0xc7>
    2e8a:	83 ec 0c             	sub    $0xc,%esp
    2e8d:	56                   	push   %esi
    2e8e:	e8 01 d2 ff ff       	call   94 <inw>
    2e93:	89 c3                	mov    %eax,%ebx
    2e95:	89 34 24             	mov    %esi,(%esp)
    2e98:	e8 f7 d1 ff ff       	call   94 <inw>
    2e9d:	66 89 5f 14          	mov    %bx,0x14(%edi)
    2ea1:	83 c4 10             	add    $0x10,%esp
    2ea4:	66 3d ea 05          	cmp    $0x5ea,%ax
    2ea8:	77 13                	ja     2ebd <mon_ethdemux+0x99>
    2eaa:	83 ec 04             	sub    $0x4,%esp
    2ead:	25 ff ff 00 00       	and    $0xffff,%eax
    2eb2:	50                   	push   %eax
    2eb3:	56                   	push   %esi
    2eb4:	57                   	push   %edi
    2eb5:	e8 3e 00 00 00       	call   2ef8 <rcv_frame>
    2eba:	83 c4 10             	add    $0x10,%esp
    2ebd:	66 8b 47 14          	mov    0x14(%edi),%ax
    2ec1:	83 e8 02             	sub    $0x2,%eax
    2ec4:	66 39 47 24          	cmp    %ax,0x24(%edi)
    2ec8:	76 04                	jbe    2ece <mon_ethdemux+0xaa>
    2eca:	66 03 47 26          	add    0x26(%edi),%ax
    2ece:	83 ec 08             	sub    $0x8,%esp
    2ed1:	25 ff ff 00 00       	and    $0xffff,%eax
    2ed6:	50                   	push   %eax
    2ed7:	ff 75 e8             	pushl  0xffffffe8(%ebp)
    2eda:	e8 d0 d1 ff ff       	call   af <outw>
    2edf:	83 c4 10             	add    $0x10,%esp
    2ee2:	ff 4d f0             	decl   0xfffffff0(%ebp)
    2ee5:	0f 85 6b ff ff ff    	jne    2e56 <mon_ethdemux+0x32>
    2eeb:	b8 01 00 00 00       	mov    $0x1,%eax
    2ef0:	8d 65 f4             	lea    0xfffffff4(%ebp),%esp
    2ef3:	5b                   	pop    %ebx
    2ef4:	5e                   	pop    %esi
    2ef5:	5f                   	pop    %edi
    2ef6:	5d                   	pop    %ebp
    2ef7:	c3                   	ret    

00002ef8 <rcv_frame>:
    2ef8:	55                   	push   %ebp
    2ef9:	89 e5                	mov    %esp,%ebp
    2efb:	57                   	push   %edi
    2efc:	56                   	push   %esi
    2efd:	53                   	push   %ebx
    2efe:	83 ec 18             	sub    $0x18,%esp
    2f01:	8b 7d 0c             	mov    0xc(%ebp),%edi
    2f04:	8b 75 10             	mov    0x10(%ebp),%esi
    2f07:	ff 35 70 8c 01 00    	pushl  0x18c70
    2f0d:	e8 4d 1e 00 00       	call   4d5f <nbgetbuf>
    2f12:	89 c3                	mov    %eax,%ebx
    2f14:	83 c4 10             	add    $0x10,%esp
    2f17:	b8 01 00 00 00       	mov    $0x1,%eax
    2f1c:	85 db                	test   %ebx,%ebx
    2f1e:	74 70                	je     2f90 <rcv_frame+0x98>
    2f20:	66 89 73 06          	mov    %si,0x6(%ebx)
    2f24:	83 ec 04             	sub    $0x4,%esp
    2f27:	89 f0                	mov    %esi,%eax
    2f29:	25 ff ff 00 00       	and    $0xffff,%eax
    2f2e:	40                   	inc    %eax
    2f2f:	d1 f8                	sar    %eax
    2f31:	50                   	push   %eax
    2f32:	8d 43 08             	lea    0x8(%ebx),%eax
    2f35:	50                   	push   %eax
    2f36:	89 f8                	mov    %edi,%eax
    2f38:	25 ff ff 00 00       	and    $0xffff,%eax
    2f3d:	50                   	push   %eax
    2f3e:	e8 c7 d1 ff ff       	call   10a <insw>
    2f43:	66 8b 43 14          	mov    0x14(%ebx),%ax
    2f47:	89 c2                	mov    %eax,%edx
    2f49:	66 c1 ea 08          	shr    $0x8,%dx
    2f4d:	25 ff 00 00 00       	and    $0xff,%eax
    2f52:	c1 e0 08             	shl    $0x8,%eax
    2f55:	09 c2                	or     %eax,%edx
    2f57:	66 89 53 14          	mov    %dx,0x14(%ebx)
    2f5b:	83 c4 10             	add    $0x10,%esp
    2f5e:	80 3d 74 8c 01 00 02 	cmpb   $0x2,0x18c74
    2f65:	75 0e                	jne    2f75 <rcv_frame+0x7d>
    2f67:	83 ec 0c             	sub    $0xc,%esp
    2f6a:	53                   	push   %ebx
    2f6b:	e8 9c 1b 00 00       	call   4b0c <freebuf>
    2f70:	83 c4 10             	add    $0x10,%esp
    2f73:	eb 16                	jmp    2f8b <rcv_frame+0x93>
    2f75:	83 ec 04             	sub    $0x4,%esp
    2f78:	0f bf 43 06          	movswl 0x6(%ebx),%eax
    2f7c:	50                   	push   %eax
    2f7d:	53                   	push   %ebx
    2f7e:	68 74 8c 01 00       	push   $0x18c74
    2f83:	e8 9d ec ff ff       	call   1c25 <mon_ni_in>
    2f88:	83 c4 10             	add    $0x10,%esp
    2f8b:	b8 01 00 00 00       	mov    $0x1,%eax
    2f90:	8d 65 f4             	lea    0xfffffff4(%ebp),%esp
    2f93:	5b                   	pop    %ebx
    2f94:	5e                   	pop    %esi
    2f95:	5f                   	pop    %edi
    2f96:	5d                   	pop    %ebp
    2f97:	c3                   	ret    

00002f98 <mon_ethwstrt>:
    2f98:	55                   	push   %ebp
    2f99:	89 e5                	mov    %esp,%ebp
    2f9b:	57                   	push   %edi
    2f9c:	56                   	push   %esi
    2f9d:	53                   	push   %ebx
    2f9e:	83 ec 0c             	sub    $0xc,%esp
    2fa1:	8b 75 08             	mov    0x8(%ebp),%esi
    2fa4:	66 8b 46 10          	mov    0x10(%esi),%ax
    2fa8:	8d 50 0e             	lea    0xe(%eax),%edx
    2fab:	8d 48 0c             	lea    0xc(%eax),%ecx
    2fae:	66 89 4d f2          	mov    %cx,0xfffffff2(%ebp)
    2fb2:	81 e2 ff ff 00 00    	and    $0xffff,%edx
    2fb8:	89 55 ec             	mov    %edx,0xffffffec(%ebp)
    2fbb:	25 ff ff 00 00       	and    $0xffff,%eax
    2fc0:	89 45 e8             	mov    %eax,0xffffffe8(%ebp)
    2fc3:	66 8b 46 18          	mov    0x18(%esi),%ax
    2fc7:	66 2b 46 16          	sub    0x16(%esi),%ax
    2fcb:	66 8b 56 24          	mov    0x24(%esi),%dx
    2fcf:	89 d3                	mov    %edx,%ebx
    2fd1:	66 29 c3             	sub    %ax,%bx
    2fd4:	66 39 da             	cmp    %bx,%dx
    2fd7:	73 03                	jae    2fdc <mon_ethwstrt+0x44>
    2fd9:	66 29 d3             	sub    %dx,%bx
    2fdc:	83 ec 0c             	sub    $0xc,%esp
    2fdf:	ff 76 0c             	pushl  0xc(%esi)
    2fe2:	e8 68 f2 ff ff       	call   224f <mon_headq>
    2fe7:	83 c4 10             	add    $0x10,%esp
    2fea:	85 c0                	test   %eax,%eax
    2fec:	75 0a                	jne    2ff8 <mon_ethwstrt+0x60>
    2fee:	b8 01 00 00 00       	mov    $0x1,%eax
    2ff3:	e9 85 01 00 00       	jmp    317d <mon_ethwstrt+0x1e5>
    2ff8:	0f bf 40 06          	movswl 0x6(%eax),%eax
    2ffc:	40                   	inc    %eax
    2ffd:	83 e0 fe             	and    $0xfffffffe,%eax
    3000:	83 c0 08             	add    $0x8,%eax
    3003:	66 89 45 f0          	mov    %ax,0xfffffff0(%ebp)
    3007:	66 39 d8             	cmp    %bx,%ax
    300a:	76 0a                	jbe    3016 <mon_ethwstrt+0x7e>
    300c:	b8 01 00 00 00       	mov    $0x1,%eax
    3011:	e9 67 01 00 00       	jmp    317d <mon_ethwstrt+0x1e5>
    3016:	8b 5d f0             	mov    0xfffffff0(%ebp),%ebx
    3019:	66 03 5e 18          	add    0x18(%esi),%bx
    301d:	89 d8                	mov    %ebx,%eax
    301f:	25 ff ff 00 00       	and    $0xffff,%eax
    3024:	83 c0 08             	add    $0x8,%eax
    3027:	66 8b 4e 24          	mov    0x24(%esi),%cx
    302b:	89 ca                	mov    %ecx,%edx
    302d:	81 e2 ff ff 00 00    	and    $0xffff,%edx
    3033:	39 d0                	cmp    %edx,%eax
    3035:	7c 06                	jl     303d <mon_ethwstrt+0xa5>
    3037:	66 29 cb             	sub    %cx,%bx
    303a:	83 c3 08             	add    $0x8,%ebx
    303d:	83 ec 0c             	sub    $0xc,%esp
    3040:	ff 76 0c             	pushl  0xc(%esi)
    3043:	e8 76 f0 ff ff       	call   20be <mon_deq>
    3048:	89 c7                	mov    %eax,%edi
    304a:	83 c4 08             	add    $0x8,%esp
    304d:	66 8b 46 18          	mov    0x18(%esi),%ax
    3051:	25 ff ff 00 00       	and    $0xffff,%eax
    3056:	50                   	push   %eax
    3057:	66 8b 45 f2          	mov    0xfffffff2(%ebp),%ax
    305b:	25 ff ff 00 00       	and    $0xffff,%eax
    3060:	50                   	push   %eax
    3061:	e8 49 d0 ff ff       	call   af <outw>
    3066:	83 c4 08             	add    $0x8,%esp
    3069:	6a 04                	push   $0x4
    306b:	ff 75 ec             	pushl  0xffffffec(%ebp)
    306e:	e8 3c d0 ff ff       	call   af <outw>
    3073:	83 c4 08             	add    $0x8,%esp
    3076:	6a 00                	push   $0x0
    3078:	ff 75 ec             	pushl  0xffffffec(%ebp)
    307b:	e8 2f d0 ff ff       	call   af <outw>
    3080:	83 c4 08             	add    $0x8,%esp
    3083:	89 d8                	mov    %ebx,%eax
    3085:	25 ff ff 00 00       	and    $0xffff,%eax
    308a:	50                   	push   %eax
    308b:	ff 75 ec             	pushl  0xffffffec(%ebp)
    308e:	e8 1c d0 ff ff       	call   af <outw>
    3093:	83 c4 08             	add    $0x8,%esp
    3096:	0f bf 47 06          	movswl 0x6(%edi),%eax
    309a:	50                   	push   %eax
    309b:	ff 75 ec             	pushl  0xffffffec(%ebp)
    309e:	e8 0c d0 ff ff       	call   af <outw>
    30a3:	83 c4 0c             	add    $0xc,%esp
    30a6:	8b 45 f0             	mov    0xfffffff0(%ebp),%eax
    30a9:	66 d1 e8             	shr    %ax
    30ac:	25 ff ff 00 00       	and    $0xffff,%eax
    30b1:	50                   	push   %eax
    30b2:	8d 47 08             	lea    0x8(%edi),%eax
    30b5:	50                   	push   %eax
    30b6:	ff 75 ec             	pushl  0xffffffec(%ebp)
    30b9:	e8 62 d0 ff ff       	call   120 <outsw>
    30be:	83 c4 10             	add    $0x10,%esp
    30c1:	66 8b 46 16          	mov    0x16(%esi),%ax
    30c5:	66 3b 46 18          	cmp    0x18(%esi),%ax
    30c9:	75 27                	jne    30f2 <mon_ethwstrt+0x15a>
    30cb:	83 ec 08             	sub    $0x8,%esp
    30ce:	25 ff ff 00 00       	and    $0xffff,%eax
    30d3:	50                   	push   %eax
    30d4:	8b 45 e8             	mov    0xffffffe8(%ebp),%eax
    30d7:	83 c0 0a             	add    $0xa,%eax
    30da:	50                   	push   %eax
    30db:	e8 cf cf ff ff       	call   af <outw>
    30e0:	83 c4 08             	add    $0x8,%esp
    30e3:	6a 04                	push   $0x4
    30e5:	ff 75 e8             	pushl  0xffffffe8(%ebp)
    30e8:	e8 b8 cf ff ff       	call   a5 <outb>
    30ed:	83 c4 10             	add    $0x10,%esp
    30f0:	eb 55                	jmp    3147 <mon_ethwstrt+0x1af>
    30f2:	83 ec 08             	sub    $0x8,%esp
    30f5:	66 8b 46 1a          	mov    0x1a(%esi),%ax
    30f9:	25 ff ff 00 00       	and    $0xffff,%eax
    30fe:	50                   	push   %eax
    30ff:	66 8b 45 f2          	mov    0xfffffff2(%ebp),%ax
    3103:	25 ff ff 00 00       	and    $0xffff,%eax
    3108:	50                   	push   %eax
    3109:	e8 a1 cf ff ff       	call   af <outw>
    310e:	83 c4 08             	add    $0x8,%esp
    3111:	66 8b 46 1c          	mov    0x1c(%esi),%ax
    3115:	0d 00 80 ff ff       	or     $0xffff8000,%eax
    311a:	25 ff ff 00 00       	and    $0xffff,%eax
    311f:	50                   	push   %eax
    3120:	ff 75 ec             	pushl  0xffffffec(%ebp)
    3123:	e8 87 cf ff ff       	call   af <outw>
    3128:	83 c4 08             	add    $0x8,%esp
    312b:	6a 04                	push   $0x4
    312d:	8b 45 e8             	mov    0xffffffe8(%ebp),%eax
    3130:	40                   	inc    %eax
    3131:	50                   	push   %eax
    3132:	e8 6e cf ff ff       	call   a5 <outb>
    3137:	83 c4 08             	add    $0x8,%esp
    313a:	6a 1c                	push   $0x1c
    313c:	ff 75 e8             	pushl  0xffffffe8(%ebp)
    313f:	e8 61 cf ff ff       	call   a5 <outb>
    3144:	83 c4 10             	add    $0x10,%esp
    3147:	66 8b 46 18          	mov    0x18(%esi),%ax
    314b:	83 c0 06             	add    $0x6,%eax
    314e:	66 89 46 1a          	mov    %ax,0x1a(%esi)
    3152:	66 3b 46 24          	cmp    0x24(%esi),%ax
    3156:	72 08                	jb     3160 <mon_ethwstrt+0x1c8>
    3158:	66 2b 46 24          	sub    0x24(%esi),%ax
    315c:	66 89 46 1a          	mov    %ax,0x1a(%esi)
    3160:	66 8b 47 06          	mov    0x6(%edi),%ax
    3164:	66 89 46 1c          	mov    %ax,0x1c(%esi)
    3168:	66 89 5e 18          	mov    %bx,0x18(%esi)
    316c:	83 ec 0c             	sub    $0xc,%esp
    316f:	57                   	push   %edi
    3170:	e8 97 19 00 00       	call   4b0c <freebuf>
    3175:	83 c4 10             	add    $0x10,%esp
    3178:	e9 46 fe ff ff       	jmp    2fc3 <mon_ethwstrt+0x2b>
    317d:	8d 65 f4             	lea    0xfffffff4(%ebp),%esp
    3180:	5b                   	pop    %ebx
    3181:	5e                   	pop    %esi
    3182:	5f                   	pop    %edi
    3183:	5d                   	pop    %ebp
    3184:	c3                   	ret    
    3185:	90                   	nop    
    3186:	90                   	nop    
    3187:	90                   	nop    

00003188 <mon_ethromread>:
    3188:	55                   	push   %ebp
    3189:	89 e5                	mov    %esp,%ebp
    318b:	57                   	push   %edi
    318c:	56                   	push   %esi
    318d:	53                   	push   %ebx
    318e:	83 ec 24             	sub    $0x24,%esp
    3191:	8b 45 08             	mov    0x8(%ebp),%eax
    3194:	66 89 45 f2          	mov    %ax,0xfffffff2(%ebp)
    3198:	83 c0 0a             	add    $0xa,%eax
    319b:	66 89 45 f0          	mov    %ax,0xfffffff0(%ebp)
    319f:	8b 45 0c             	mov    0xc(%ebp),%eax
    31a2:	0d 80 01 00 00       	or     $0x180,%eax
    31a7:	98                   	cwtl   
    31a8:	89 45 ec             	mov    %eax,0xffffffec(%ebp)
    31ab:	66 c7 45 ea 00 00    	movw   $0x0,0xffffffea(%ebp)
    31b1:	68 80 00 00 00       	push   $0x80
    31b6:	0f bf 45 f2          	movswl 0xfffffff2(%ebp),%eax
    31ba:	50                   	push   %eax
    31bb:	e8 e5 ce ff ff       	call   a5 <outb>
    31c0:	83 c4 08             	add    $0x8,%esp
    31c3:	6a 02                	push   $0x2
    31c5:	0f bf 45 f0          	movswl 0xfffffff0(%ebp),%eax
    31c9:	50                   	push   %eax
    31ca:	e8 d6 ce ff ff       	call   a5 <outb>
    31cf:	bf 08 00 00 00       	mov    $0x8,%edi
    31d4:	83 c4 10             	add    $0x10,%esp
    31d7:	0f bf 4d f0          	movswl 0xfffffff0(%ebp),%ecx
    31db:	89 4d e4             	mov    %ecx,0xffffffe4(%ebp)
    31de:	8b 45 ec             	mov    0xffffffec(%ebp),%eax
    31e1:	89 f9                	mov    %edi,%ecx
    31e3:	d3 f8                	sar    %cl,%eax
    31e5:	be 06 00 00 00       	mov    $0x6,%esi
    31ea:	a8 01                	test   $0x1,%al
    31ec:	75 05                	jne    31f3 <mon_ethromread+0x6b>
    31ee:	be 02 00 00 00       	mov    $0x2,%esi
    31f3:	83 ec 08             	sub    $0x8,%esp
    31f6:	0f bf c6             	movswl %si,%eax
    31f9:	50                   	push   %eax
    31fa:	ff 75 e4             	pushl  0xffffffe4(%ebp)
    31fd:	e8 a3 ce ff ff       	call   a5 <outb>
    3202:	83 c4 08             	add    $0x8,%esp
    3205:	89 f0                	mov    %esi,%eax
    3207:	83 c8 01             	or     $0x1,%eax
    320a:	98                   	cwtl   
    320b:	50                   	push   %eax
    320c:	ff 75 e4             	pushl  0xffffffe4(%ebp)
    320f:	e8 91 ce ff ff       	call   a5 <outb>
    3214:	ba 00 00 00 00       	mov    $0x0,%edx
    3219:	83 c4 10             	add    $0x10,%esp
    321c:	8b 0d cc b1 00 00    	mov    0xb1cc,%ecx
    3222:	bb 10 00 00 00       	mov    $0x10,%ebx
    3227:	89 d8                	mov    %ebx,%eax
    3229:	d3 f8                	sar    %cl,%eax
    322b:	48                   	dec    %eax
    322c:	85 c0                	test   %eax,%eax
    322e:	7f fb                	jg     322b <mon_ethromread+0xa3>
    3230:	42                   	inc    %edx
    3231:	83 fa 04             	cmp    $0x4,%edx
    3234:	7e f1                	jle    3227 <mon_ethromread+0x9f>
    3236:	83 ec 08             	sub    $0x8,%esp
    3239:	0f bf c6             	movswl %si,%eax
    323c:	50                   	push   %eax
    323d:	ff 75 e4             	pushl  0xffffffe4(%ebp)
    3240:	e8 60 ce ff ff       	call   a5 <outb>
    3245:	ba 00 00 00 00       	mov    $0x0,%edx
    324a:	83 c4 10             	add    $0x10,%esp
    324d:	8b 0d cc b1 00 00    	mov    0xb1cc,%ecx
    3253:	bb 10 00 00 00       	mov    $0x10,%ebx
    3258:	89 d8                	mov    %ebx,%eax
    325a:	d3 f8                	sar    %cl,%eax
    325c:	48                   	dec    %eax
    325d:	85 c0                	test   %eax,%eax
    325f:	7f fb                	jg     325c <mon_ethromread+0xd4>
    3261:	42                   	inc    %edx
    3262:	83 fa 04             	cmp    $0x4,%edx
    3265:	7e f1                	jle    3258 <mon_ethromread+0xd0>
    3267:	4f                   	dec    %edi
    3268:	0f 89 70 ff ff ff    	jns    31de <mon_ethromread+0x56>
    326e:	83 ec 08             	sub    $0x8,%esp
    3271:	6a 02                	push   $0x2
    3273:	0f bf 45 f0          	movswl 0xfffffff0(%ebp),%eax
    3277:	50                   	push   %eax
    3278:	e8 28 ce ff ff       	call   a5 <outb>
    327d:	bf 10 00 00 00       	mov    $0x10,%edi
    3282:	83 c4 10             	add    $0x10,%esp
    3285:	0f bf 75 f0          	movswl 0xfffffff0(%ebp),%esi
    3289:	83 ec 08             	sub    $0x8,%esp
    328c:	6a 03                	push   $0x3
    328e:	56                   	push   %esi
    328f:	e8 11 ce ff ff       	call   a5 <outb>
    3294:	ba 00 00 00 00       	mov    $0x0,%edx
    3299:	83 c4 10             	add    $0x10,%esp
    329c:	8b 0d cc b1 00 00    	mov    0xb1cc,%ecx
    32a2:	b8 10 00 00 00       	mov    $0x10,%eax
    32a7:	d3 f8                	sar    %cl,%eax
    32a9:	48                   	dec    %eax
    32aa:	85 c0                	test   %eax,%eax
    32ac:	7f fb                	jg     32a9 <mon_ethromread+0x121>
    32ae:	42                   	inc    %edx
    32af:	83 fa 04             	cmp    $0x4,%edx
    32b2:	7e ee                	jle    32a2 <mon_ethromread+0x11a>
    32b4:	66 d1 65 ea          	shlw   0xffffffea(%ebp)
    32b8:	83 ec 0c             	sub    $0xc,%esp
    32bb:	56                   	push   %esi
    32bc:	e8 cb cd ff ff       	call   8c <inb>
    32c1:	c1 e8 03             	shr    $0x3,%eax
    32c4:	83 e0 01             	and    $0x1,%eax
    32c7:	66 09 45 ea          	or     %ax,0xffffffea(%ebp)
    32cb:	83 c4 08             	add    $0x8,%esp
    32ce:	6a 02                	push   $0x2
    32d0:	56                   	push   %esi
    32d1:	e8 cf cd ff ff       	call   a5 <outb>
    32d6:	ba 00 00 00 00       	mov    $0x0,%edx
    32db:	83 c4 10             	add    $0x10,%esp
    32de:	8b 0d cc b1 00 00    	mov    0xb1cc,%ecx
    32e4:	bb 10 00 00 00       	mov    $0x10,%ebx
    32e9:	89 d8                	mov    %ebx,%eax
    32eb:	d3 f8                	sar    %cl,%eax
    32ed:	48                   	dec    %eax
    32ee:	85 c0                	test   %eax,%eax
    32f0:	7f fb                	jg     32ed <mon_ethromread+0x165>
    32f2:	42                   	inc    %edx
    32f3:	83 fa 04             	cmp    $0x4,%edx
    32f6:	7e f1                	jle    32e9 <mon_ethromread+0x161>
    32f8:	4f                   	dec    %edi
    32f9:	85 ff                	test   %edi,%edi
    32fb:	7f 8c                	jg     3289 <mon_ethromread+0x101>
    32fd:	83 ec 08             	sub    $0x8,%esp
    3300:	6a 01                	push   $0x1
    3302:	0f bf 45 f0          	movswl 0xfffffff0(%ebp),%eax
    3306:	50                   	push   %eax
    3307:	e8 99 cd ff ff       	call   a5 <outb>
    330c:	ba 00 00 00 00       	mov    $0x0,%edx
    3311:	83 c4 10             	add    $0x10,%esp
    3314:	8b 0d cc b1 00 00    	mov    0xb1cc,%ecx
    331a:	bb 10 00 00 00       	mov    $0x10,%ebx
    331f:	89 d8                	mov    %ebx,%eax
    3321:	d3 f8                	sar    %cl,%eax
    3323:	48                   	dec    %eax
    3324:	85 c0                	test   %eax,%eax
    3326:	7f fb                	jg     3323 <mon_ethromread+0x19b>
    3328:	42                   	inc    %edx
    3329:	83 fa 04             	cmp    $0x4,%edx
    332c:	7e f1                	jle    331f <mon_ethromread+0x197>
    332e:	83 ec 08             	sub    $0x8,%esp
    3331:	6a 00                	push   $0x0
    3333:	0f bf 45 f0          	movswl 0xfffffff0(%ebp),%eax
    3337:	50                   	push   %eax
    3338:	e8 68 cd ff ff       	call   a5 <outb>
    333d:	ba 00 00 00 00       	mov    $0x0,%edx
    3342:	83 c4 10             	add    $0x10,%esp
    3345:	8b 0d cc b1 00 00    	mov    0xb1cc,%ecx
    334b:	bb 10 00 00 00       	mov    $0x10,%ebx
    3350:	89 d8                	mov    %ebx,%eax
    3352:	d3 f8                	sar    %cl,%eax
    3354:	48                   	dec    %eax
    3355:	85 c0                	test   %eax,%eax
    3357:	7f fb                	jg     3354 <mon_ethromread+0x1cc>
    3359:	42                   	inc    %edx
    335a:	83 fa 04             	cmp    $0x4,%edx
    335d:	7e f1                	jle    3350 <mon_ethromread+0x1c8>
    335f:	83 ec 08             	sub    $0x8,%esp
    3362:	6a 00                	push   $0x0
    3364:	0f bf 45 f2          	movswl 0xfffffff2(%ebp),%eax
    3368:	50                   	push   %eax
    3369:	e8 37 cd ff ff       	call   a5 <outb>
    336e:	66 8b 45 ea          	mov    0xffffffea(%ebp),%ax
    3372:	25 ff ff 00 00       	and    $0xffff,%eax
    3377:	8d 65 f4             	lea    0xfffffff4(%ebp),%esp
    337a:	5b                   	pop    %ebx
    337b:	5e                   	pop    %esi
    337c:	5f                   	pop    %edi
    337d:	5d                   	pop    %ebp
    337e:	c3                   	ret    
    337f:	90                   	nop    

00003380 <boot_xinu>:
    3380:	55                   	push   %ebp
    3381:	89 e5                	mov    %esp,%ebp
    3383:	83 ec 08             	sub    $0x8,%esp
    3386:	c7 05 e8 b9 00 00 00 	movl   $0x0,0xb9e8
    338d:	00 00 00 
    3390:	c7 05 e0 b9 00 00 00 	movl   $0x0,0xb9e0
    3397:	00 00 00 
    339a:	c7 05 c8 8c 01 00 0a 	movl   $0xa,0x18cc8
    33a1:	00 00 00 
    33a4:	a1 c8 8c 01 00       	mov    0x18cc8,%eax
    33a9:	83 e8 0a             	sub    $0xa,%eax
    33ac:	83 f8 07             	cmp    $0x7,%eax
    33af:	0f 87 24 01 00 00    	ja     34d9 <boot_xinu+0x159>
    33b5:	ff 24 85 70 9d 00 00 	jmp    *0x9d70(,%eax,4)
    33bc:	ff 05 e0 b9 00 00    	incl   0xb9e0
    33c2:	83 3d e0 b9 00 00 03 	cmpl   $0x3,0xb9e0
    33c9:	7e 17                	jle    33e2 <boot_xinu+0x62>
    33cb:	83 ec 0c             	sub    $0xc,%esp
    33ce:	68 dc 9c 00 00       	push   $0x9cdc
    33d3:	e8 90 26 00 00       	call   5a68 <kprintf>
    33d8:	b8 ff ff ff ff       	mov    $0xffffffff,%eax
    33dd:	e9 12 01 00 00       	jmp    34f4 <boot_xinu+0x174>
    33e2:	c7 05 c8 8c 01 00 0b 	movl   $0xb,0x18cc8
    33e9:	00 00 00 
    33ec:	83 ec 0c             	sub    $0xc,%esp
    33ef:	68 22 9d 00 00       	push   $0x9d22
    33f4:	e8 6f 26 00 00       	call   5a68 <kprintf>
    33f9:	83 c4 10             	add    $0x10,%esp
    33fc:	83 3d ec b9 00 00 00 	cmpl   $0x0,0xb9ec
    3403:	75 0a                	jne    340f <boot_xinu+0x8f>
    3405:	a1 e4 b9 00 00       	mov    0xb9e4,%eax
    340a:	a3 ec b9 00 00       	mov    %eax,0xb9ec
    340f:	83 ec 0c             	sub    $0xc,%esp
    3412:	a1 e4 b9 00 00       	mov    0xb9e4,%eax
    3417:	2b 05 ec b9 00 00    	sub    0xb9ec,%eax
    341d:	50                   	push   %eax
    341e:	e8 1c e5 ff ff       	call   193f <mon_bootp_request>
    3423:	a1 e4 b9 00 00       	mov    0xb9e4,%eax
    3428:	03 05 e0 b9 00 00    	add    0xb9e0,%eax
    342e:	83 c0 02             	add    $0x2,%eax
    3431:	a3 e8 b9 00 00       	mov    %eax,0xb9e8
    3436:	83 c4 10             	add    $0x10,%esp
    3439:	e9 66 ff ff ff       	jmp    33a4 <boot_xinu+0x24>
    343e:	ff 05 e0 b9 00 00    	incl   0xb9e0
    3444:	83 3d e0 b9 00 00 03 	cmpl   $0x3,0xb9e0
    344b:	7e 17                	jle    3464 <boot_xinu+0xe4>
    344d:	83 ec 0c             	sub    $0xc,%esp
    3450:	68 00 9d 00 00       	push   $0x9d00
    3455:	e8 0e 26 00 00       	call   5a68 <kprintf>
    345a:	b8 ff ff ff ff       	mov    $0xffffffff,%eax
    345f:	e9 90 00 00 00       	jmp    34f4 <boot_xinu+0x174>
    3464:	83 ec 0c             	sub    $0xc,%esp
    3467:	68 3a 9d 00 00       	push   $0x9d3a
    346c:	e8 f7 25 00 00       	call   5a68 <kprintf>
    3471:	e8 82 59 00 00       	call   8df8 <mon_tftp_req>
    3476:	c7 05 c8 8c 01 00 0d 	movl   $0xd,0x18cc8
    347d:	00 00 00 
    3480:	a1 e4 b9 00 00       	mov    0xb9e4,%eax
    3485:	03 05 e0 b9 00 00    	add    0xb9e0,%eax
    348b:	83 c0 02             	add    $0x2,%eax
    348e:	a3 e8 b9 00 00       	mov    %eax,0xb9e8
    3493:	c7 05 e4 9a 01 00 01 	movl   $0x1,0x19ae4
    349a:	00 00 00 
    349d:	c7 05 dc 9a 01 00 00 	movl   $0x0,0x19adc
    34a4:	00 00 00 
    34a7:	c7 05 e8 9a 01 00 00 	movl   $0x0,0x19ae8
    34ae:	00 00 00 
    34b1:	83 c4 10             	add    $0x10,%esp
    34b4:	e9 eb fe ff ff       	jmp    33a4 <boot_xinu+0x24>
    34b9:	83 ec 0c             	sub    $0xc,%esp
    34bc:	8d 45 fe             	lea    0xfffffffe(%ebp),%eax
    34bf:	50                   	push   %eax
    34c0:	e8 f7 d2 ff ff       	call   7bc <disable>
    34c5:	e8 7b cc ff ff       	call   145 <jumptobootcode>
    34ca:	83 c4 10             	add    $0x10,%esp
    34cd:	e9 d2 fe ff ff       	jmp    33a4 <boot_xinu+0x24>
    34d2:	b8 ff ff ff ff       	mov    $0xffffffff,%eax
    34d7:	eb 1b                	jmp    34f4 <boot_xinu+0x174>
    34d9:	83 ec 08             	sub    $0x8,%esp
    34dc:	ff 35 c8 8c 01 00    	pushl  0x18cc8
    34e2:	68 51 9d 00 00       	push   $0x9d51
    34e7:	e8 7c 25 00 00       	call   5a68 <kprintf>
    34ec:	83 c4 10             	add    $0x10,%esp
    34ef:	e9 b0 fe ff ff       	jmp    33a4 <boot_xinu+0x24>
    34f4:	c9                   	leave  
    34f5:	c3                   	ret    
    34f6:	90                   	nop    
    34f7:	90                   	nop    

000034f8 <mon_timer>:
    34f8:	55                   	push   %ebp
    34f9:	89 e5                	mov    %esp,%ebp
    34fb:	83 ec 08             	sub    $0x8,%esp
    34fe:	83 3d e8 b9 00 00 00 	cmpl   $0x0,0xb9e8
    3505:	0f 84 86 00 00 00    	je     3591 <mon_timer+0x99>
    350b:	a1 e4 b9 00 00       	mov    0xb9e4,%eax
    3510:	3b 05 e8 b9 00 00    	cmp    0xb9e8,%eax
    3516:	7c 79                	jl     3591 <mon_timer+0x99>
    3518:	a1 c8 8c 01 00       	mov    0x18cc8,%eax
    351d:	83 f8 0b             	cmp    $0xb,%eax
    3520:	74 07                	je     3529 <mon_timer+0x31>
    3522:	83 f8 0d             	cmp    $0xd,%eax
    3525:	74 0e                	je     3535 <mon_timer+0x3d>
    3527:	eb 68                	jmp    3591 <mon_timer+0x99>
    3529:	c7 05 c8 8c 01 00 10 	movl   $0x10,0x18cc8
    3530:	00 00 00 
    3533:	eb 5c                	jmp    3591 <mon_timer+0x99>
    3535:	83 3d dc 9a 01 00 00 	cmpl   $0x0,0x19adc
    353c:	75 0c                	jne    354a <mon_timer+0x52>
    353e:	c7 05 c8 8c 01 00 11 	movl   $0x11,0x18cc8
    3545:	00 00 00 
    3548:	eb 47                	jmp    3591 <mon_timer+0x99>
    354a:	83 3d e8 9a 01 00 04 	cmpl   $0x4,0x19ae8
    3551:	7f 1a                	jg     356d <mon_timer+0x75>
    3553:	83 ec 0c             	sub    $0xc,%esp
    3556:	a1 e4 9a 01 00       	mov    0x19ae4,%eax
    355b:	48                   	dec    %eax
    355c:	50                   	push   %eax
    355d:	e8 1c 5a 00 00       	call   8f7e <mon_tftp_ack>
    3562:	ff 05 e8 9a 01 00    	incl   0x19ae8
    3568:	83 c4 10             	add    $0x10,%esp
    356b:	eb 24                	jmp    3591 <mon_timer+0x99>
    356d:	83 ec 0c             	sub    $0xc,%esp
    3570:	68 90 9d 00 00       	push   $0x9d90
    3575:	e8 ee 24 00 00       	call   5a68 <kprintf>
    357a:	c7 05 c8 8c 01 00 0f 	movl   $0xf,0x18cc8
    3581:	00 00 00 
    3584:	c7 05 e8 b9 00 00 00 	movl   $0x0,0xb9e8
    358b:	00 00 00 
    358e:	83 c4 10             	add    $0x10,%esp
    3591:	b8 01 00 00 00       	mov    $0x1,%eax
    3596:	c9                   	leave  
    3597:	c3                   	ret    

00003598 <mon_ethcmd>:
    3598:	55                   	push   %ebp
    3599:	89 e5                	mov    %esp,%ebp
    359b:	57                   	push   %edi
    359c:	56                   	push   %esi
    359d:	53                   	push   %ebx
    359e:	83 ec 14             	sub    $0x14,%esp
    35a1:	8b 5d 08             	mov    0x8(%ebp),%ebx
    35a4:	8b 45 0c             	mov    0xc(%ebp),%eax
    35a7:	66 89 45 f2          	mov    %ax,0xfffffff2(%ebp)
    35ab:	8b 45 10             	mov    0x10(%ebp),%eax
    35ae:	66 89 45 f0          	mov    %ax,0xfffffff0(%ebp)
    35b2:	6a 08                	push   $0x8
    35b4:	89 d8                	mov    %ebx,%eax
    35b6:	25 ff ff 00 00       	and    $0xffff,%eax
    35bb:	40                   	inc    %eax
    35bc:	50                   	push   %eax
    35bd:	e8 e3 ca ff ff       	call   a5 <outb>
    35c2:	ba 00 00 00 00       	mov    $0x0,%edx
    35c7:	83 c4 10             	add    $0x10,%esp
    35ca:	8b 0d cc b1 00 00    	mov    0xb1cc,%ecx
    35d0:	be 80 3e 00 00       	mov    $0x3e80,%esi
    35d5:	89 f0                	mov    %esi,%eax
    35d7:	d3 f8                	sar    %cl,%eax
    35d9:	48                   	dec    %eax
    35da:	85 c0                	test   %eax,%eax
    35dc:	7f fb                	jg     35d9 <mon_ethcmd+0x41>
    35de:	42                   	inc    %edx
    35df:	83 fa 04             	cmp    $0x4,%edx
    35e2:	7e f1                	jle    35d5 <mon_ethcmd+0x3d>
    35e4:	83 ec 08             	sub    $0x8,%esp
    35e7:	66 8b 45 f2          	mov    0xfffffff2(%ebp),%ax
    35eb:	25 ff ff 00 00       	and    $0xffff,%eax
    35f0:	50                   	push   %eax
    35f1:	89 d8                	mov    %ebx,%eax
    35f3:	25 ff ff 00 00       	and    $0xffff,%eax
    35f8:	50                   	push   %eax
    35f9:	e8 a7 ca ff ff       	call   a5 <outb>
    35fe:	ba 00 00 00 00       	mov    $0x0,%edx
    3603:	83 c4 10             	add    $0x10,%esp
    3606:	8b 0d cc b1 00 00    	mov    0xb1cc,%ecx
    360c:	be 80 3e 00 00       	mov    $0x3e80,%esi
    3611:	89 f0                	mov    %esi,%eax
    3613:	d3 f8                	sar    %cl,%eax
    3615:	48                   	dec    %eax
    3616:	85 c0                	test   %eax,%eax
    3618:	7f fb                	jg     3615 <mon_ethcmd+0x7d>
    361a:	42                   	inc    %edx
    361b:	83 fa 04             	cmp    $0x4,%edx
    361e:	7e f1                	jle    3611 <mon_ethcmd+0x79>
    3620:	be 00 00 00 00       	mov    $0x0,%esi
    3625:	81 e3 ff ff 00 00    	and    $0xffff,%ebx
    362b:	89 5d ec             	mov    %ebx,0xffffffec(%ebp)
    362e:	89 df                	mov    %ebx,%edi
    3630:	47                   	inc    %edi
    3631:	83 ec 0c             	sub    $0xc,%esp
    3634:	57                   	push   %edi
    3635:	e8 52 ca ff ff       	call   8c <inb>
    363a:	83 c4 10             	add    $0x10,%esp
    363d:	a8 08                	test   $0x8,%al
    363f:	74 35                	je     3676 <mon_ethcmd+0xde>
    3641:	83 ec 0c             	sub    $0xc,%esp
    3644:	ff 75 ec             	pushl  0xffffffec(%ebp)
    3647:	e8 40 ca ff ff       	call   8c <inb>
    364c:	83 e0 0f             	and    $0xf,%eax
    364f:	8b 55 f0             	mov    0xfffffff0(%ebp),%edx
    3652:	81 e2 ff ff 00 00    	and    $0xffff,%edx
    3658:	83 c4 10             	add    $0x10,%esp
    365b:	39 d0                	cmp    %edx,%eax
    365d:	75 07                	jne    3666 <mon_ethcmd+0xce>
    365f:	b8 01 00 00 00       	mov    $0x1,%eax
    3664:	eb 51                	jmp    36b7 <mon_ethcmd+0x11f>
    3666:	83 ec 08             	sub    $0x8,%esp
    3669:	6a 08                	push   $0x8
    366b:	57                   	push   %edi
    366c:	e8 34 ca ff ff       	call   a5 <outb>
    3671:	83 c4 10             	add    $0x10,%esp
    3674:	eb 1f                	jmp    3695 <mon_ethcmd+0xfd>
    3676:	ba 00 00 00 00       	mov    $0x0,%edx
    367b:	8b 0d cc b1 00 00    	mov    0xb1cc,%ecx
    3681:	bb 80 3e 00 00       	mov    $0x3e80,%ebx
    3686:	89 d8                	mov    %ebx,%eax
    3688:	d3 f8                	sar    %cl,%eax
    368a:	48                   	dec    %eax
    368b:	85 c0                	test   %eax,%eax
    368d:	7f fb                	jg     368a <mon_ethcmd+0xf2>
    368f:	42                   	inc    %edx
    3690:	83 fa 04             	cmp    $0x4,%edx
    3693:	7e f1                	jle    3686 <mon_ethcmd+0xee>
    3695:	46                   	inc    %esi
    3696:	83 fe 63             	cmp    $0x63,%esi
    3699:	7e 96                	jle    3631 <mon_ethcmd+0x99>
    369b:	83 ec 08             	sub    $0x8,%esp
    369e:	66 8b 45 f2          	mov    0xfffffff2(%ebp),%ax
    36a2:	25 ff ff 00 00       	and    $0xffff,%eax
    36a7:	50                   	push   %eax
    36a8:	68 b5 9d 00 00       	push   $0x9db5
    36ad:	e8 b6 23 00 00       	call   5a68 <kprintf>
    36b2:	b8 ff ff ff ff       	mov    $0xffffffff,%eax
    36b7:	8d 65 f4             	lea    0xfffffff4(%ebp),%esp
    36ba:	5b                   	pop    %ebx
    36bb:	5e                   	pop    %esi
    36bc:	5f                   	pop    %edi
    36bd:	5d                   	pop    %ebp
    36be:	c3                   	ret    
    36bf:	90                   	nop    

000036c0 <mon_pci_init>:
    36c0:	55                   	push   %ebp
    36c1:	89 e5                	mov    %esp,%ebp
    36c3:	83 ec 08             	sub    $0x8,%esp
    36c6:	e8 45 00 00 00       	call   3710 <mon_pcibios_init>
    36cb:	83 f8 01             	cmp    $0x1,%eax
    36ce:	75 20                	jne    36f0 <mon_pci_init+0x30>
    36d0:	83 ec 0c             	sub    $0xc,%esp
    36d3:	68 d4 9d 00 00       	push   $0x9dd4
    36d8:	e8 8b 23 00 00       	call   5a68 <kprintf>
    36dd:	c7 04 24 04 a0 00 00 	movl   $0xa004,(%esp)
    36e4:	e8 7f 23 00 00       	call   5a68 <kprintf>
    36e9:	b8 01 00 00 00       	mov    $0x1,%eax
    36ee:	eb 1e                	jmp    370e <mon_pci_init+0x4e>
    36f0:	83 ec 0c             	sub    $0xc,%esp
    36f3:	68 d4 9d 00 00       	push   $0x9dd4
    36f8:	e8 6b 23 00 00       	call   5a68 <kprintf>
    36fd:	c7 04 24 65 a0 00 00 	movl   $0xa065,(%esp)
    3704:	e8 5f 23 00 00       	call   5a68 <kprintf>
    3709:	b8 ff ff ff ff       	mov    $0xffffffff,%eax
    370e:	c9                   	leave  
    370f:	c3                   	ret    

00003710 <mon_pcibios_init>:
    3710:	55                   	push   %ebp
    3711:	89 e5                	mov    %esp,%ebp
    3713:	56                   	push   %esi
    3714:	53                   	push   %ebx
    3715:	be 00 00 0e 00       	mov    $0xe0000,%esi
    371a:	81 3e 5f 33 32 5f    	cmpl   $0x5f32335f,(%esi)
    3720:	75 7b                	jne    379d <mon_pcibios_init+0x8d>
    3722:	b1 00                	mov    $0x0,%cl
    3724:	b8 00 00 00 00       	mov    $0x0,%eax
    3729:	8a 46 09             	mov    0x9(%esi),%al
    372c:	c1 e0 04             	shl    $0x4,%eax
    372f:	89 f3                	mov    %esi,%ebx
    3731:	ba 00 00 00 00       	mov    $0x0,%edx
    3736:	39 c2                	cmp    %eax,%edx
    3738:	7d 08                	jge    3742 <mon_pcibios_init+0x32>
    373a:	02 0c 13             	add    (%ebx,%edx,1),%cl
    373d:	42                   	inc    %edx
    373e:	39 c2                	cmp    %eax,%edx
    3740:	7c f8                	jl     373a <mon_pcibios_init+0x2a>
    3742:	84 c9                	test   %cl,%cl
    3744:	74 13                	je     3759 <mon_pcibios_init+0x49>
    3746:	83 ec 08             	sub    $0x8,%esp
    3749:	56                   	push   %esi
    374a:	68 fc 9d 00 00       	push   $0x9dfc
    374f:	e8 14 23 00 00       	call   5a68 <kprintf>
    3754:	83 c4 10             	add    $0x10,%esp
    3757:	eb 44                	jmp    379d <mon_pcibios_init+0x8d>
    3759:	80 7e 08 00          	cmpb   $0x0,0x8(%esi)
    375d:	74 1c                	je     377b <mon_pcibios_init+0x6b>
    375f:	83 ec 04             	sub    $0x4,%esp
    3762:	56                   	push   %esi
    3763:	b8 00 00 00 00       	mov    $0x0,%eax
    3768:	8a 46 08             	mov    0x8(%esi),%al
    376b:	50                   	push   %eax
    376c:	68 2c 9e 00 00       	push   $0x9e2c
    3771:	e8 f2 22 00 00       	call   5a68 <kprintf>
    3776:	83 c4 10             	add    $0x10,%esp
    3779:	eb 22                	jmp    379d <mon_pcibios_init+0x8d>
    377b:	89 35 f8 b9 00 00    	mov    %esi,0xb9f8
    3781:	8b 46 04             	mov    0x4(%esi),%eax
    3784:	a3 f0 b9 00 00       	mov    %eax,0xb9f0
    3789:	a3 c4 b2 00 00       	mov    %eax,0xb2c4
    378e:	e8 32 00 00 00       	call   37c5 <mon_check_pcibios>
    3793:	83 f8 01             	cmp    $0x1,%eax
    3796:	19 c0                	sbb    %eax,%eax
    3798:	83 c8 01             	or     $0x1,%eax
    379b:	eb 21                	jmp    37be <mon_pcibios_init+0xae>
    379d:	83 c6 10             	add    $0x10,%esi
    37a0:	81 fe f0 ff 0f 00    	cmp    $0xffff0,%esi
    37a6:	0f 86 6e ff ff ff    	jbe    371a <mon_pcibios_init+0xa>
    37ac:	83 ec 0c             	sub    $0xc,%esp
    37af:	68 60 9e 00 00       	push   $0x9e60
    37b4:	e8 af 22 00 00       	call   5a68 <kprintf>
    37b9:	b8 ff ff ff ff       	mov    $0xffffffff,%eax
    37be:	8d 65 f8             	lea    0xfffffff8(%ebp),%esp
    37c1:	5b                   	pop    %ebx
    37c2:	5e                   	pop    %esi
    37c3:	5d                   	pop    %ebp
    37c4:	c3                   	ret    

000037c5 <mon_check_pcibios>:
    37c5:	55                   	push   %ebp
    37c6:	89 e5                	mov    %esp,%ebp
    37c8:	57                   	push   %edi
    37c9:	56                   	push   %esi
    37ca:	53                   	push   %ebx
    37cb:	83 ec 18             	sub    $0x18,%esp
    37ce:	68 24 50 43 49       	push   $0x49435024
    37d3:	e8 e3 00 00 00       	call   38bb <mon_bios32_service>
    37d8:	a3 f4 b9 00 00       	mov    %eax,0xb9f4
    37dd:	83 c4 10             	add    $0x10,%esp
    37e0:	85 c0                	test   %eax,%eax
    37e2:	0f 84 c6 00 00 00    	je     38ae <mon_check_pcibios+0xe9>
    37e8:	bf cc b2 00 00       	mov    $0xb2cc,%edi
    37ed:	a3 cc b2 00 00       	mov    %eax,0xb2cc
    37f2:	9c                   	pushf  
    37f3:	5e                   	pop    %esi
    37f4:	fa                   	cli    
    37f5:	b8 01 b1 00 00       	mov    $0xb101,%eax
    37fa:	ff 1f                	lcall  *(%edi)
    37fc:	72 02                	jb     3800 <mon_check_pcibios+0x3b>
    37fe:	30 e4                	xor    %ah,%ah
    3800:	c1 e0 08             	shl    $0x8,%eax
    3803:	66 89 d8             	mov    %bx,%ax
    3806:	89 d7                	mov    %edx,%edi
    3808:	56                   	push   %esi
    3809:	9d                   	popf   
    380a:	89 c1                	mov    %eax,%ecx
    380c:	c1 e9 10             	shr    $0x10,%ecx
    380f:	89 c6                	mov    %eax,%esi
    3811:	c1 ee 08             	shr    $0x8,%esi
    3814:	88 c3                	mov    %al,%bl
    3816:	84 c9                	test   %cl,%cl
    3818:	0f 95 c2             	setne  %dl
    381b:	81 ff 50 43 49 20    	cmp    $0x20494350,%edi
    3821:	0f 95 c0             	setne  %al
    3824:	09 d0                	or     %edx,%eax
    3826:	a8 01                	test   $0x1,%al
    3828:	74 54                	je     387e <mon_check_pcibios+0xb9>
    382a:	89 f8                	mov    %edi,%eax
    382c:	c1 f8 18             	sar    $0x18,%eax
    382f:	50                   	push   %eax
    3830:	89 f8                	mov    %edi,%eax
    3832:	c1 e8 10             	shr    $0x10,%eax
    3835:	0f be c0             	movsbl %al,%eax
    3838:	50                   	push   %eax
    3839:	89 fa                	mov    %edi,%edx
    383b:	0f be c6             	movsbl %dh,%eax
    383e:	50                   	push   %eax
    383f:	0f be c2             	movsbl %dl,%eax
    3842:	50                   	push   %eax
    3843:	57                   	push   %edi
    3844:	b8 00 00 00 00       	mov    $0x0,%eax
    3849:	88 c8                	mov    %cl,%al
    384b:	50                   	push   %eax
    384c:	b8 0f a0 00 00       	mov    $0xa00f,%eax
    3851:	81 ff 50 43 49 20    	cmp    $0x20494350,%edi
    3857:	74 05                	je     385e <mon_check_pcibios+0x99>
    3859:	b8 17 a0 00 00       	mov    $0xa017,%eax
    385e:	50                   	push   %eax
    385f:	68 9c 9e 00 00       	push   $0x9e9c
    3864:	e8 ff 21 00 00       	call   5a68 <kprintf>
    3869:	83 c4 20             	add    $0x20,%esp
    386c:	81 ff 50 43 49 20    	cmp    $0x20494350,%edi
    3872:	74 0a                	je     387e <mon_check_pcibios+0xb9>
    3874:	c7 05 f4 b9 00 00 00 	movl   $0x0,0xb9f4
    387b:	00 00 00 
    387e:	83 3d f4 b9 00 00 00 	cmpl   $0x0,0xb9f4
    3885:	74 27                	je     38ae <mon_check_pcibios+0xe9>
    3887:	ff 35 f4 b9 00 00    	pushl  0xb9f4
    388d:	b8 00 00 00 00       	mov    $0x0,%eax
    3892:	88 d8                	mov    %bl,%al
    3894:	50                   	push   %eax
    3895:	89 f0                	mov    %esi,%eax
    3897:	25 ff 00 00 00       	and    $0xff,%eax
    389c:	50                   	push   %eax
    389d:	68 60 9f 00 00       	push   $0x9f60
    38a2:	e8 c1 21 00 00       	call   5a68 <kprintf>
    38a7:	b8 01 00 00 00       	mov    $0x1,%eax
    38ac:	eb 05                	jmp    38b3 <mon_check_pcibios+0xee>
    38ae:	b8 00 00 00 00       	mov    $0x0,%eax
    38b3:	8d 65 f4             	lea    0xfffffff4(%ebp),%esp
    38b6:	5b                   	pop    %ebx
    38b7:	5e                   	pop    %esi
    38b8:	5f                   	pop    %edi
    38b9:	5d                   	pop    %ebp
    38ba:	c3                   	ret    

000038bb <mon_bios32_service>:
    38bb:	55                   	push   %ebp
    38bc:	89 e5                	mov    %esp,%ebp
    38be:	57                   	push   %edi
    38bf:	56                   	push   %esi
    38c0:	53                   	push   %ebx
    38c1:	83 ec 0c             	sub    $0xc,%esp
    38c4:	9c                   	pushf  
    38c5:	5e                   	pop    %esi
    38c6:	fa                   	cli    
    38c7:	bb 00 00 00 00       	mov    $0x0,%ebx
    38cc:	bf c4 b2 00 00       	mov    $0xb2c4,%edi
    38d1:	8b 45 08             	mov    0x8(%ebp),%eax
    38d4:	90                   	nop    
    38d5:	90                   	nop    
    38d6:	ff 1f                	lcall  *(%edi)
    38d8:	89 c7                	mov    %eax,%edi
    38da:	56                   	push   %esi
    38db:	9d                   	popf   
    38dc:	25 ff 00 00 00       	and    $0xff,%eax
    38e1:	85 c0                	test   %eax,%eax
    38e3:	74 09                	je     38ee <mon_bios32_service+0x33>
    38e5:	3d 80 00 00 00       	cmp    $0x80,%eax
    38ea:	74 07                	je     38f3 <mon_bios32_service+0x38>
    38ec:	eb 1c                	jmp    390a <mon_bios32_service+0x4f>
    38ee:	8d 04 13             	lea    (%ebx,%edx,1),%eax
    38f1:	eb 34                	jmp    3927 <mon_bios32_service+0x6c>
    38f3:	83 ec 08             	sub    $0x8,%esp
    38f6:	ff 75 08             	pushl  0x8(%ebp)
    38f9:	68 9c 9f 00 00       	push   $0x9f9c
    38fe:	e8 65 21 00 00       	call   5a68 <kprintf>
    3903:	b8 00 00 00 00       	mov    $0x0,%eax
    3908:	eb 1d                	jmp    3927 <mon_bios32_service+0x6c>
    390a:	83 ec 04             	sub    $0x4,%esp
    390d:	89 f8                	mov    %edi,%eax
    390f:	25 ff 00 00 00       	and    $0xff,%eax
    3914:	50                   	push   %eax
    3915:	ff 75 08             	pushl  0x8(%ebp)
    3918:	68 c8 9f 00 00       	push   $0x9fc8
    391d:	e8 46 21 00 00       	call   5a68 <kprintf>
    3922:	b8 00 00 00 00       	mov    $0x0,%eax
    3927:	8d 65 f4             	lea    0xfffffff4(%ebp),%esp
    392a:	5b                   	pop    %ebx
    392b:	5e                   	pop    %esi
    392c:	5f                   	pop    %edi
    392d:	5d                   	pop    %ebp
    392e:	c3                   	ret    

0000392f <mon_find_pci_device>:
    392f:	55                   	push   %ebp
    3930:	89 e5                	mov    %esp,%ebp
    3932:	57                   	push   %edi
    3933:	56                   	push   %esi
    3934:	53                   	push   %ebx
    3935:	8b 4d 08             	mov    0x8(%ebp),%ecx
    3938:	8b 55 0c             	mov    0xc(%ebp),%edx
    393b:	8b 75 10             	mov    0x10(%ebp),%esi
    393e:	b8 02 b1 00 00       	mov    $0xb102,%eax
    3943:	bf cc b2 00 00       	mov    $0xb2cc,%edi
    3948:	ff 1f                	lcall  *(%edi)
    394a:	31 c9                	xor    %ecx,%ecx
    394c:	c1 e8 08             	shr    $0x8,%eax
    394f:	ba ff ff ff ff       	mov    $0xffffffff,%edx
    3954:	84 c0                	test   %al,%al
    3956:	75 0b                	jne    3963 <mon_find_pci_device+0x34>
    3958:	89 1d 04 8e 01 00    	mov    %ebx,0x18e04
    395e:	ba 01 00 00 00       	mov    $0x1,%edx
    3963:	89 d0                	mov    %edx,%eax
    3965:	5b                   	pop    %ebx
    3966:	5e                   	pop    %esi
    3967:	5f                   	pop    %edi
    3968:	5d                   	pop    %ebp
    3969:	c3                   	ret    

0000396a <mon_pci_bios_read_config_byte>:
    396a:	55                   	push   %ebp
    396b:	89 e5                	mov    %esp,%ebp
    396d:	57                   	push   %edi
    396e:	56                   	push   %esi
    396f:	53                   	push   %ebx
    3970:	8b 5d 08             	mov    0x8(%ebp),%ebx
    3973:	8b 7d 0c             	mov    0xc(%ebp),%edi
    3976:	b8 08 b1 00 00       	mov    $0xb108,%eax
    397b:	be cc b2 00 00       	mov    $0xb2cc,%esi
    3980:	ff 1e                	lcall  *(%esi)
    3982:	fc                   	cld    
    3983:	72 02                	jb     3987 <mon_pci_bios_read_config_byte+0x1d>
    3985:	30 e4                	xor    %ah,%ah
    3987:	8b 55 10             	mov    0x10(%ebp),%edx
    398a:	88 0a                	mov    %cl,(%edx)
    398c:	0f b6 c4             	movzbl %ah,%eax
    398f:	5b                   	pop    %ebx
    3990:	5e                   	pop    %esi
    3991:	5f                   	pop    %edi
    3992:	5d                   	pop    %ebp
    3993:	c3                   	ret    

00003994 <mon_pci_bios_read_config_word>:
    3994:	55                   	push   %ebp
    3995:	89 e5                	mov    %esp,%ebp
    3997:	57                   	push   %edi
    3998:	56                   	push   %esi
    3999:	53                   	push   %ebx
    399a:	8b 5d 08             	mov    0x8(%ebp),%ebx
    399d:	8b 7d 0c             	mov    0xc(%ebp),%edi
    39a0:	b8 09 b1 00 00       	mov    $0xb109,%eax
    39a5:	be cc b2 00 00       	mov    $0xb2cc,%esi
    39aa:	ff 1e                	lcall  *(%esi)
    39ac:	fc                   	cld    
    39ad:	72 02                	jb     39b1 <mon_pci_bios_read_config_word+0x1d>
    39af:	30 e4                	xor    %ah,%ah
    39b1:	8b 55 10             	mov    0x10(%ebp),%edx
    39b4:	66 89 0a             	mov    %cx,(%edx)
    39b7:	0f b6 c4             	movzbl %ah,%eax
    39ba:	5b                   	pop    %ebx
    39bb:	5e                   	pop    %esi
    39bc:	5f                   	pop    %edi
    39bd:	5d                   	pop    %ebp
    39be:	c3                   	ret    

000039bf <mon_pci_bios_read_config_dword>:
    39bf:	55                   	push   %ebp
    39c0:	89 e5                	mov    %esp,%ebp
    39c2:	57                   	push   %edi
    39c3:	56                   	push   %esi
    39c4:	53                   	push   %ebx
    39c5:	8b 5d 08             	mov    0x8(%ebp),%ebx
    39c8:	8b 7d 0c             	mov    0xc(%ebp),%edi
    39cb:	b8 0a b1 00 00       	mov    $0xb10a,%eax
    39d0:	be cc b2 00 00       	mov    $0xb2cc,%esi
    39d5:	ff 1e                	lcall  *(%esi)
    39d7:	fc                   	cld    
    39d8:	72 02                	jb     39dc <mon_pci_bios_read_config_dword+0x1d>
    39da:	30 e4                	xor    %ah,%ah
    39dc:	8b 55 10             	mov    0x10(%ebp),%edx
    39df:	89 0a                	mov    %ecx,(%edx)
    39e1:	0f b6 c4             	movzbl %ah,%eax
    39e4:	5b                   	pop    %ebx
    39e5:	5e                   	pop    %esi
    39e6:	5f                   	pop    %edi
    39e7:	5d                   	pop    %ebp
    39e8:	c3                   	ret    

000039e9 <mon_pci_bios_write_config_byte>:
    39e9:	55                   	push   %ebp
    39ea:	89 e5                	mov    %esp,%ebp
    39ec:	57                   	push   %edi
    39ed:	56                   	push   %esi
    39ee:	53                   	push   %ebx
    39ef:	8b 5d 08             	mov    0x8(%ebp),%ebx
    39f2:	8b 7d 0c             	mov    0xc(%ebp),%edi
    39f5:	8a 4d 10             	mov    0x10(%ebp),%cl
    39f8:	b8 0b b1 00 00       	mov    $0xb10b,%eax
    39fd:	be cc b2 00 00       	mov    $0xb2cc,%esi
    3a02:	ff 1e                	lcall  *(%esi)
    3a04:	fc                   	cld    
